
APP_SDK_G0CODE.adx:     file format elf32-nds32le
APP_SDK_G0CODE.adx
architecture: n1h_v3m, flags 0x00000112:
EXEC_P, HAS_SYMS, D_PAGED
start address 0x004043a8

Program Header:
    LOAD off    0x00001000 vaddr 0x00000000 paddr 0x00400000 align 2**12
         filesz 0x000000a4 memsz 0x000000a4 flags r-x
    LOAD off    0x000010a4 vaddr 0x004000a4 paddr 0x004000a4 align 2**12
         filesz 0x00004d14 memsz 0x00004d14 flags r-x
    LOAD off    0x00006000 vaddr 0x00408000 paddr 0x00404dc0 align 2**12
         filesz 0x00000000 memsz 0x00000230 flags rw-
    LOAD off    0x00006800 vaddr 0x0040b800 paddr 0x00404ff0 align 2**12
         filesz 0x0000210c memsz 0x0000210c flags rw-
private flags = 40010042: n1 instructions

Sections:
Idx Name          Size      VMA       LMA       File off  Algn
  0 .nds32_init   000000a4  00000000  00400000  00001000  2**2
                  CONTENTS, ALLOC, LOAD, READONLY, CODE
  1 .text         00004534  004000a4  004000a4  000010a4  2**2
                  CONTENTS, ALLOC, LOAD, READONLY, CODE
  2 .rodata       000007e0  004045d8  004045d8  000055d8  2**2
                  CONTENTS, ALLOC, LOAD, READONLY, DATA
  3 .bss          00000230  00408000  00404dc0  00006000  2**3
                  ALLOC
  4 .cmdhead      00000400  0040b800  00404ff0  00006800  2**10
                  CONTENTS, ALLOC, LOAD, DATA
  5 .scsicmdhead  00000200  0040bc00  004053f0  00006c00  2**3
                  CONTENTS, ALLOC, LOAD, DATA
  6 .scsidatahead 00000200  0040be00  004055f0  00006e00  2**3
                  CONTENTS, ALLOC, LOAD, DATA
  7 .undocds      00000200  0040c000  004057f0  00007000  2**3
                  CONTENTS, ALLOC, LOAD, DATA
  8 .combuffer    00000200  0040c200  004059f0  00007200  2**3
                  CONTENTS, ALLOC, LOAD, DATA
  9 .identify     00000200  0040c400  00405bf0  00007400  2**3
                  CONTENTS, ALLOC, LOAD, DATA
 10 .prdtable     00000200  0040c600  00405df0  00007600  2**3
                  CONTENTS, ALLOC, LOAD, DATA
 11 .fsm_hwd2h    00000800  0040c800  00405ff0  00007800  2**10
                  CONTENTS, ALLOC, LOAD, DATA
 12 .fsm          00000020  0040d000  004067f0  00008000  2**5
                  CONTENTS, ALLOC, LOAD, DATA
 13 .satadc       00000490  0040d020  00406810  00008020  2**3
                  CONTENTS, ALLOC, LOAD, DATA
 14 .scsictrl     00000030  0040d4b0  00406ca0  000084b0  2**2
                  CONTENTS, ALLOC, LOAD, DATA
 15 .tqc          0000042c  0040d4e0  00406cd0  000084e0  2**2
                  CONTENTS, ALLOC, LOAD, DATA
 16 .comment      0000002f  00000000  00000000  0000890c  2**0
                  CONTENTS, READONLY
 17 .debug_aranges 00000d10  00000000  00000000  00008940  2**3
                  CONTENTS, READONLY, DEBUGGING
 18 .debug_info   00077466  00000000  00000000  00009650  2**0
                  CONTENTS, READONLY, DEBUGGING
 19 .debug_abbrev 000058c6  00000000  00000000  00080ab6  2**0
                  CONTENTS, READONLY, DEBUGGING
 20 .debug_line   0000cf14  00000000  00000000  0008637c  2**0
                  CONTENTS, READONLY, DEBUGGING
 21 .debug_frame  0000205c  00000000  00000000  00093290  2**2
                  CONTENTS, READONLY, DEBUGGING
 22 .debug_str    000199de  00000000  00000000  000952ec  2**0
                  CONTENTS, READONLY, DEBUGGING
 23 .debug_loc    000039a0  00000000  00000000  000aecca  2**0
                  CONTENTS, READONLY, DEBUGGING
 24 .debug_ranges 00000c50  00000000  00000000  000b2670  2**3
                  CONTENTS, READONLY, DEBUGGING
 25 .debug_macro  00003a42  00000000  00000000  000b32c0  2**0
                  CONTENTS, READONLY, DEBUGGING
SYMBOL TABLE:
00000000 l    d  .nds32_init	00000000 .nds32_init
004000a4 l    d  .text	00000000 .text
004045d8 l    d  .rodata	00000000 .rodata
00408000 l    d  .bss	00000000 .bss
0040b800 l    d  .cmdhead	00000000 .cmdhead
0040bc00 l    d  .scsicmdhead	00000000 .scsicmdhead
0040be00 l    d  .scsidatahead	00000000 .scsidatahead
0040c000 l    d  .undocds	00000000 .undocds
0040c200 l    d  .combuffer	00000000 .combuffer
0040c400 l    d  .identify	00000000 .identify
0040c600 l    d  .prdtable	00000000 .prdtable
0040c800 l    d  .fsm_hwd2h	00000000 .fsm_hwd2h
0040d000 l    d  .fsm	00000000 .fsm
0040d020 l    d  .satadc	00000000 .satadc
0040d4b0 l    d  .scsictrl	00000000 .scsictrl
0040d4e0 l    d  .tqc	00000000 .tqc
00000000 l    d  .comment	00000000 .comment
00000000 l    d  .debug_aranges	00000000 .debug_aranges
00000000 l    d  .debug_info	00000000 .debug_info
00000000 l    d  .debug_abbrev	00000000 .debug_abbrev
00000000 l    d  .debug_line	00000000 .debug_line
00000000 l    d  .debug_frame	00000000 .debug_frame
00000000 l    d  .debug_str	00000000 .debug_str
00000000 l    d  .debug_loc	00000000 .debug_loc
00000000 l    d  .debug_ranges	00000000 .debug_ranges
00000000 l    d  .debug_macro	00000000 .debug_macro
00000000 l    df *ABS*	00000000 ./SysCfg/src/startup/crt0.o
00000000 l       .nds32_init	00000000 exception_vector
00404140 l       .text	00000000 OS_Trap_TLB_Fill
00404146 l       .text	00000000 OS_Trap_PTE_Not_Present
0040414c l       .text	00000000 OS_Trap_TLB_Misc
00404152 l       .text	00000000 OS_Trap_TLB_VLPT_Miss
00404158 l       .text	00000000 OS_Trap_Machine_Error
0040415e l       .text	00000000 OS_Trap_Debug_Related
00404164 l       .text	00000000 OS_Trap_General_Exception
004041c2 l       .text	00000000 OS_Trap_Syscall
00404298 l       .text	00000000 OS_Trap_Interrupt_HW0
004042a0 l       .text	00000000 OS_Trap_Interrupt_HW1
004042a8 l       .text	00000000 OS_Trap_Interrupt_HW2
004042b0 l       .text	00000000 OS_Trap_Interrupt_HW3
004042b8 l       .text	00000000 OS_Trap_Interrupt_HW4
004042c0 l       .text	00000000 OS_Trap_Interrupt_HW5
004042c8 l       .text	00000000 OS_Trap_Interrupt_HW6
004042d0 l       .text	00000000 OS_Trap_Interrupt_HW7
004042d8 l       .text	00000000 OS_Trap_Interrupt_HW8
004042e0 l       .text	00000000 OS_Trap_Interrupt_HW9
004042e8 l       .text	00000000 OS_Trap_Interrupt_HW10
004042f0 l       .text	00000000 OS_Trap_Interrupt_HW11
004042f8 l       .text	00000000 OS_Trap_Interrupt_HW12
00404300 l       .text	00000000 OS_Trap_Interrupt_HW13
00404308 l       .text	00000000 OS_Trap_Interrupt_HW14
00404310 l       .text	00000000 OS_Trap_Interrupt_HW15
0040431a l       .text	00000000 OS_Trap_Interrupt_HW16
00404324 l       .text	00000000 OS_Trap_Interrupt_HW17
0040432e l       .text	00000000 OS_Trap_Interrupt_HW18
00404338 l       .text	00000000 OS_Trap_Interrupt_HW19
00404342 l       .text	00000000 OS_Trap_Interrupt_HW20
0040434c l       .text	00000000 OS_Trap_Interrupt_HW21
00404356 l       .text	00000000 OS_Trap_Interrupt_HW22
00404360 l       .text	00000000 OS_Trap_Interrupt_HW23
0040436a l       .text	00000000 OS_Trap_Interrupt_HW24
00404374 l       .text	00000000 OS_Trap_Interrupt_HW25
0040437e l       .text	00000000 OS_Trap_Interrupt_HW26
00404388 l       .text	00000000 OS_Trap_Interrupt_HW27
00404392 l       .text	00000000 OS_Trap_Interrupt_HW28
0040439c l       .text	00000000 OS_Trap_Interrupt_HW29
00404296 l       .text	00000000 OS_Trap_Interrupt_UNDEF
004040b4 l       .text	00000000 exception_vector_end
004040b4 l       .text	00000000 exception_handler
004040c0 l       .text	00000000 ISR_TABLE
00404218 l       .text	00000000 common_ISR_wrapper
00000000 l    df *ABS*	00000000 ata_cmd_list.c
00000000 l    df *ABS*	00000000 ata_fpdma.c
0040011e l     F .text	000000b2 ATACmd_RWFpdmaQueued
00000000 l    df *ABS*	00000000 ata_general.c
00000000 l    df *ABS*	00000000 ata_gpl.c
00000000 l    df *ABS*	00000000 ata_identify.c
00000000 l    df *ABS*	00000000 ata_power_mg.c
00000000 l    df *ABS*	00000000 ata_security.c
00000000 l    df *ABS*	00000000 dma1c.c
00000000 l    df *ABS*	00000000 dsata.c
00408004 l     O .bss	00000001 bFlg_Cnt
00408000 l     O .bss	00000004 bFlg_Time
00000000 l    df *ABS*	00000000 sata_dev_idle.c
00408006 l     O .bss	00000002 wCount_dipm.7488
00000000 l    df *ABS*	00000000 sata_dma_in.c
00000000 l    df *ABS*	00000000 sata_dma_out.c
00000000 l    df *ABS*	00000000 sata_fpdma.c
00000000 l    df *ABS*	00000000 sata_misc.c
00000000 l    df *ABS*	00000000 sata_pio_in.c
00000000 l    df *ABS*	00000000 sata_pio_out.c
00000000 l    df *ABS*	00000000 scsi.c
00000000 l    df *ABS*	00000000 task_manage.c
00000000 l    df *ABS*	00000000 task_process.c
00000000 l    df *ABS*	00000000 debug.c
00408008 l     O .bss	00000004 time.8387
00000000 l    df *ABS*	00000000 mcu.c
00000000 l    df *ABS*	00000000 system_sg9081.c
00000000 l    df *ABS*	00000000 uart.c
00404d98 l     O .rodata	00000008 SG_UART_BASE_ARRY
00000000 l    df *ABS*	00000000 uitility.c
00000000 l    df *ABS*	00000000 init-default.c
004043d8 l     F .text	00000008 Default_Handler
00000000 l    df *ABS*	00000000 init-soc.c
00000000 l    df *ABS*	00000000 irq.c
00000000 l    df *ABS*	00000000 main.c
00000000 l    df *ABS*	00000000 lib_a-strlen.o
00000000 l    df *ABS*	00000000 sata_define.c
00000000 l    df *ABS*	00000000 
004000a4 l       .text	00000000 EXEC0_BEGIN
00004d14 l       *ABS*	00000000 EXEC0_SIZE
00400000 l       *ABS*	00000000 LOAD_AREA1_BEGIN
0000210c l       *ABS*	00000000 COMRAM3_SIZE
00000230 l       *ABS*	00000000 RAM_SIZE
0040b000 l       .bss	00000000 EXEC1_BEGIN
004000a4 l       *ABS*	00000000 NDS_SAG_LMA_EILM
0040b800 l       .bss	00000000 COMRAM3_BEGIN
00400000 l       *ABS*	00000000 NDS_SAG_LMA_LOAD_AREA1
004000a4 l       *ABS*	00000000 EILM_BEGIN
00408000 l       .bss	00000000 RAM_BEGIN
00000000 l       *ABS*	00000000 EXEC1_SIZE
00402e4e g     F .text	0000001a Scsi_RegisteInterfaceInfo
00400426 g     F .text	00000036 ATACmd_SetMultipleMode
00403d9a g     F .text	00000016 NVIC_EnableIRQ
00403d82 g     F .text	00000018 __set_PRIMASK
00404b58 g     O .rodata	0000003c tDevCmdEHTbl_C
00402c16 g     F .text	00000038 SATA_DEDD_StateMachine
004043d8  w    F .text	00000008 HW2_ISR
0040b800 g     O .cmdhead	00000400 tCmdHead
00401a58 g     F .text	0000000e DSATA_GetCurrentCmdSlot
00402c78 g     F .text	00000002 SATA_DND_StateMachine
004009b8 g     F .text	00000018 ATACmd_Idle
004043d8  w    F .text	00000008 VEP3_ISR
00402392 g     F .text	0000015e SATA_DevCtx_Init
00400678 g     F .text	0000006a ATACmd_CreateDmaTask
004033e2 g     F .text	00000034 TQM_RemoveMulTask
00403df8 g     F .text	00000062 GetSysTickCnt
00400324 g     F .text	00000038 ATACmd_ReleaseCommand
0040254a g     F .text	0000002e SATA_PrdDoneEventHandler
00403b68 g     F .text	00000016 printstr
00401272 g     F .text	0000004e DSATA_SetCmdHead
00401ff8 g     F .text	00000002 SATA_DDMAO_StateMachine
00400826 g     F .text	0000001c ATACmd_WriteLogDmaExt
0040406a g     F .text	0000001c U32MemCmp
00403494 g     F .text	00000132 HW23_ISR
004035f6 g     F .text	00000020 NCQ_QueueInit
0040057a g     F .text	00000012 ATACmd_PioRdTaskComplete
0040045c g     F .text	000000ca ATACmd_CreatePioTask
004043d8  w    F .text	00000008 VEP63_ISR
004043d8  w    F .text	00000008 VEP36_ISR
00400bc2 g     F .text	00000252 DSATA_Init
00402c50 g     F .text	00000028 SATA_DND_DataTransferReq
004043d8  w    F .text	00000008 VEP37_ISR
0040058c g     F .text	00000012 ATACmd_PioWrTaskComplete
00401136 g     F .text	00000048 DSATA_BulidSDBFis
004044ae  w    F .text	00000002 tlb_exception_handler
00403db0 g     F .text	00000018 NVIC_DisableIRQ
004043d8  w    F .text	00000008 VEP20_ISR
0040252c g     F .text	0000001e SATA_Non_Fatal_Error_Handler
004043d8  w    F .text	00000008 HW1_ISR
00403d68 g     F .text	0000000e __get_sda_base
00404cfc g     O .rodata	00000020 dWRCmdHead
00403bce g     F .text	00000054 PRINT_TIME
00403d5a g     F .text	00000006 __get_pfm_count
00400e24 g     F .text	0000009e DSATA_ModuleInit
004043d8  w    F .text	00000008 VEP24_ISR
00404d1c g     O .rodata	00000028 bFwVersionG0
004043d8  w    F .text	00000008 VEP44_ISR
00403288 g     F .text	0000009c Scsi_IdleCmdHandle
00404b94 g     O .rodata	0000003c tDevCmdDOSTbl_C
0040027e g     F .text	00000052 ATACmd_GetCountLba48
00402132 g     F .text	00000260 SATA_DFPDMAQ_IntEventHandler
00403f24 g     F .text	000000c4 UART_Init
004043d8  w    F .text	00000008 HW30_ISR
0040409c g     F .text	00000018 Check32Sum
00402068 g     F .text	00000046 AddCommandToQueue
004043d8  w    F .text	00000008 VEP43_ISR
00403cc2 g     F .text	00000068 PRINT_HEX
00401080 g     F .text	0000004a DSATA_StartupEnable
00401e68 g     F .text	000000ae SATA_DDMAI_DataTransferReq
004043d8  w    F .text	00000008 VEP32_ISR
00402cfe g     F .text	00000044 SATA_DPIOI_IntEventHandler
004010f6 g     F .text	00000014 DSATA_ClearFsmBuff
004043d8  w    F .text	00000008 VEP47_ISR
0040c000 g     O .undocds	00000200 tSyncBuffer
004000c4 g     F .text	00000002 ATACmd_FpdmaRwTaskComplete
00401cdc g     F .text	000000b4 SATA_DI_StateMachine
0040be00 g     O .scsidatahead	00000200 tScsiDataHead
00401a70 g     F .text	0000000e DSATA_IsAutoSendEnabled
0040c400 g     O .identify	00000200 unAtaIdentify
004043d8  w    F .text	00000008 VEP55_ISR
004043d8  w    F .text	00000008 VEP14_ISR
00403d2a g     F .text	0000000a GIE_ENABLE
00404b1c g     O .rodata	0000003c tDevCmdSMTbl_C
00403902 g     F .text	00000008 __unlock
00402578 g     F .text	00000034 SATA_UpdateRdIdx
004043d8  w    F .text	00000008 VEP27_ISR
0040403c g     F .text	0000000e U32MemSet
004026bc g     F .text	0000001c SATA_FTXDS_Handler
004043d8  w    F .text	00000008 VEP29_ISR
00401aae g     F .text	0000000c DSATA_EnableRxFis
004043d8  w    F .text	00000008 HW9_ISR
00007058 g       *ABS*	00000000 EILM_SIZE
004043d8  w    F .text	00000008 HW26_ISR
004009d0 g     F .text	00000010 ATACmd_IdleImmediate
004025d2 g     F .text	000000ea SATA_Fatal_Error_Handler
00401848 g     F .text	0000012c DSATA_CmdReorderRestart
00403dde g     F .text	0000001a HW10_ISR
004036ec g     F .text	000000a6 TQM_AddTask
004043d8  w    F .text	00000008 VEP45_ISR
004043d8  w    F .text	00000008 VEP26_ISR
0040389e g     F .text	00000064 __wait4unlocked
004020f4 g     F .text	00000020 SATA_DFPDMAQ_DataTransferReq
00403860 g     F .text	00000022 Save_Uart_Buff_To_Log
00404406 g     F .text	00000084 __cpu_init
00400910 g     F .text	000000a8 UpdateStanbyTimerCount
004043d8  w    F .text	00000008 HW5_ISR
0040251c g     F .text	00000010 error_print
0040404a g     F .text	0000000e U08MemSet
004044f4 g     F .text	00000002 HW14_ISR
00402ee4 g     F .text	00000030 Scsi_DataHeadCheckSum
00403e84 g     F .text	00000022 UpdateSystemClock
0040131a g     F .text	00000382 DSATA_ExceptionHandler
0040040e g     F .text	00000018 ATACmd_LegacyCmdSupport
00400842 g     F .text	0000009e Update_IdfyParam
004043d8  w    F .text	00000008 HW11_ISR
00403008 g     F .text	00000096 Scsi_BasisCmdHandle
00402b9a g     F .text	00000002 SATA_DHR_IntEventHandler
00401aba g     F .text	00000222 HW4_ISR
004033a2 g     F .text	00000040 TQM_RemoveTask
004043d8  w    F .text	00000008 VEP7_ISR
004009e0 g     F .text	0000001a ATACmd_Sleep
00402114 g     F .text	0000001e SATA_DFPDMAQ_StateMachine
004002d2 g     F .text	00000052 ATACmd_Identify
004044ac g     F .text	00000002 SysCall_Handler
004043d8  w    F .text	00000008 VEP50_ISR
0040346c g     F .text	00000026 HW24_ISR
004043d8  w    F .text	00000008 VEP25_ISR
004043d8  w    F .text	00000008 VEP0_ISR
0040060e g     F .text	00000012 ATACmd_WriteMultiple
004043d8  w    F .text	00000008 VEP23_ISR
00402a90 g     F .text	00000048 SATA_SendGoodBadStatus
00402b06 g     F .text	00000094 SATA_DHR_StateMachine
004043d8  w    F .text	00000008 VEP4_ISR
0040110a g     F .text	0000002c DSATA_BuildD2HFis
00400732 g     F .text	00000018 ATACmd_WriteDma
0040169c g     F .text	00000090 comreset
004005fc g     F .text	00000012 ATACmd_ReadMultipleExt
004043d8  w    F .text	00000008 HW16_ISR
00402c7c g     F .text	00000030 dpioi2_transmit_data
0040448a g     F .text	00000022 __init
004043d8  w    F .text	00000008 VEP22_ISR
004043d8  w    F .text	00000008 VEP8_ISR
004007a2 g     F .text	00000018 ATACmd_ReadDmaExt
004043d8  w    F .text	00000008 VEP49_ISR
00401ffa g     F .text	0000003e SATA_DDMAO_IntEventHandler
004043d8  w    F .text	00000008 VEP35_ISR
00403c22 g     F .text	00000038 PRINT_TXT
00402d42 g     F .text	00000030 dpioo2_receive_data
004043d8  w    F .text	00000008 HW28_ISR
00408030 g     O .bss	00000200 UART_TX_FIFO
0040c200 g     O .combuffer	00000200 tAsyncBuffer
004043d8  w    F .text	00000008 HW31_ISR
004043d8  w    F .text	00000008 HW12_ISR
00408118  w      .bss	00000000 _FP_BASE_
004043d8  w    F .text	00000008 VEP9_ISR
004043d8  w    F .text	00000008 VEP53_ISR
004043d8  w    F .text	00000008 VEP12_ISR
004043d8  w    F .text	00000008 HW7_ISR
00400a40 g     F .text	0000006c DMAC_DMA1Init
004043d8  w    F .text	00000008 VEP56_ISR
004043d8  w    F .text	00000008 VEP15_ISR
00403936 g     F .text	000000e0 TPM_AsyncEventFromSata
00403d42 g     F .text	00000018 __enable_performance
00400620 g     F .text	00000012 ATACmd_WriteMultipleExt
0040390a g     F .text	0000002c TPM_Init
00403d76 g     F .text	0000000c __get_PRIMASK
004043a8 g     F .text	0000002e _start
00404086 g     F .text	00000016 GetSum
004010ca g     F .text	0000002c DSATA_LinkCheck
00402c7a g     F .text	00000002 SATA_DND_IntEventHandler
00401a66 g     F .text	0000000a DSATA_GetPrdRemainItems
00408010 g     O .bss	00000020 aDebugInfoBuffer
004026d8 g     F .text	00000072 SATA_SaveH2DFis
00408118  w      .bss	00000000 _SDA_BASE_
0040c800 g     O .fsm_hwd2h	00000420 arrunHWD2HFS
00403fe8 g     F .text	00000036 UART_SendMsg
004043d8  w    F .text	00000008 VEP54_ISR
004043d8  w    F .text	00000008 VEP13_ISR
00403d34 g     F .text	0000000e GIE_DISABLE
00401f18 g     F .text	0000001e SATA_DDMAI_IntEventHandler
004043d8  w    F .text	00000008 VEP19_ISR
004043d8  w    F .text	00000008 VEP31_ISR
00400632 g     F .text	00000022 ATACmd_WriteMultipleFuaExt
004043d8  w    F .text	00000008 VEP21_ISR
00402cac g     F .text	00000050 SATA_DPIOI_DataTransferReq
00403616 g     F .text	00000098 TQM_Init
004043d8  w    F .text	00000008 HW0_ISR
004043d8  w    F .text	00000008 VEP42_ISR
004020d4 g     F .text	00000020 SendQueue_CleanACK
0040074a g     F .text	00000018 ATACmd_ReadDma
0040bc00 g     O .scsicmdhead	00000200 tScsiCmdHead
00403792 g     F .text	000000ce TQM_CreateTask
00403a18 g     F .text	00000122 TPM_SyncEventFromSata
00401f16 g     F .text	00000002 SATA_DDMAI_StateMachine
0040077a g     F .text	00000028 ATACmd_WriteDmaFuaExt
0040402a g     F .text	00000012 U32MemCopy
004009fa g     F .text	00000016 ATACmd_Standby
004006e2 g     F .text	00000028 ATACmd_ReadBuffDma
004043d8  w    F .text	00000008 VEP61_ISR
00400fc2 g     F .text	000000be DSATA_RegisteInterfaceInfo
004044ae g     F .text	00000002 Tlb_exception_handler
0040d020 g     O .satadc	00000490 tSataDC
00001000 g       *ABS*	00000000 _stack_size
004043d8  w    F .text	00000008 VEP62_ISR
00401a42 g     F .text	00000016 DSATA_TransferStart
004043d8  w    F .text	00000008 VEP48_ISR
004044b0  w    F .text	00000040 error_exception_handler
004025ac g     F .text	00000026 SATA_SendStatus
004043d8  w    F .text	00000008 VEP52_ISR
004043d8  w    F .text	00000008 VEP11_ISR
004005d6 g     F .text	00000026 ATACmd_WriteBuff
00404788 g     O .rodata	00000200 unAtaIdentify_C
00000000  w      .nds32_init	00000000 _RELAX_END_
00408000 g       .bss	00000000 __bss_start
004043d8  w    F .text	00000008 VEP51_ISR
004043d8  w    F .text	00000008 VEP10_ISR
004044f6 g     F .text	000000d4 main
00403ea6 g     F .text	0000002e delay_ms
00401a34 g     F .text	0000000e DSATA_SendD2HFis
00401a7e g     F .text	00000016 DSATA_EnableAutoSend
004000a4 g       *ABS*	00000000 __init_lmaend
00404058 g     F .text	00000012 U08MemCopy
004043d8  w    F .text	00000008 VEP38_ISR
004043d8  w    F .text	00000008 HW25_ISR
00402de2 g     F .text	00000002 SATA_DPIOO_StateMachine
00403882 g     F .text	0000001c __getlock
0040d4b0 g     O .scsictrl	00000030 tScsiCtl
004043d8  w    F .text	00000008 HW3_ISR
0040d000 g     O .fsm	00000020 unFsmBuff
004000c6 g     F .text	00000058 ATACmd_GetFpdmaLba
004002d0 g     F .text	00000002 ATACmd_ExeDevDiagnostic
004043d8  w    F .text	00000008 HW18_ISR
0040035c g     F .text	00000040 ATACmd_DataSetManagement
00404b0c g     O .rodata	0000000e FIS_CODE
00400aac g     F .text	00000024 DMAC_DMA1WaitDone
004035d6 g     F .text	00000020 NCQ_GetQueueLen
004043d8  w    F .text	00000008 VEP40_ISR
004000a4 g     F .text	00000020 ATACmd_ParseCmd
00402e68 g     F .text	0000007c Scsi_CmdHeadVerify
004043d8  w    F .text	00000008 HW15_ISR
00403c5a g     F .text	00000068 PRINT_DEC
00400fa6 g     F .text	0000001c DSATA_UpdateSystemClockInfo
004043d8  w    F .text	00000008 HW21_ISR
0040080a g     F .text	0000001c ATACmd_ReadLogDmaExt
00400762 g     F .text	00000018 ATACmd_WriteDmaExt
00403ef0 g     F .text	00000034 SystemInit
00401f36 g     F .text	000000c2 SATA_DDMAO_DataTransferReq
00401998 g     F .text	0000009c DSATA_TrigeSendFis
00400a10 g     F .text	00000010 ATACmd_StandbyImmediate
00400234 g     F .text	0000004a ATACmd_GetCountLba28
00403b3c g     F .text	00000020 TPM_StateMachine
00402bfe g     F .text	00000018 SATA_DSR_IntEventHandler
00404cdc g     O .rodata	00000020 dRDCmdHead
004043d8  w    F .text	00000008 VEP33_ISR
00403b5c g     F .text	0000000c printch
00403b9c g     F .text	00000032 printhex
004043d8  w    F .text	00000008 HW22_ISR
004043d8  w    F .text	00000008 VEP28_ISR
004043d8  w    F .text	00000008 VEP60_ISR
00400b02 g     F .text	000000a0 DMAC_DMA1Start
004043d8  w    F .text	00000008 VEP2_ISR
00400ba2 g     F .text	00000020 StanbyEventDone
004024f0 g     F .text	0000002c SATA_ChangeState
0040117e g     F .text	0000009c DSATA_BulidPioSetUpFis
004020ae g     F .text	00000026 fpdmaq_error
004043d8  w    F .text	00000008 VEP46_ISR
0040344e g     F .text	0000001e TQM_CheckDiTaskDone
004008f0 g     F .text	00000020 ATACmd_CheckPowerMode
00402c4e g     F .text	00000002 SATA_DEDD_IntEventHandler
0040401e g     F .text	0000000c Delay
004043d8  w    F .text	00000008 SW0_ISR
004043d8  w    F .text	00000008 VEP6_ISR
004043d8  w    F .text	00000008 HW13_ISR
004043d8  w    F .text	00000008 VEP34_ISR
00400a20 g     F .text	00000020 ATACmd_SecurityFreezeLock
004043d8  w    F .text	00000008 VEP58_ISR
004043d8  w    F .text	00000008 VEP17_ISR
004036c2 g     F .text	0000002a NCQ_QueueInquireTail
00402f14 g     F .text	000000f4 Scsi_ScsiModeVerify
004043d8  w    F .text	00000008 VEP1_ISR
004043d8  w    F .text	00000008 VEP57_ISR
004043d8  w    F .text	00000008 VEP16_ISR
0040172c g     F .text	0000011c linkchange
00404dc0 g       *ABS*	00000000 __data_lmastart
004008e0 g     F .text	00000010 UpdateCheckSum
00402ad8 g     F .text	0000002e SATA_ClearCmd
000000a4 g       *ABS*	00000000 LOAD_AREA1_SIZE
00408000 g       .bss	00000000 _edata
00400526 g     F .text	00000054 ATACmd_PioTaskComplete
004043d8  w    F .text	00000008 HW17_ISR
00408230 g       .bss	00000000 _end
004001da g     F .text	0000000a ATACmd_ReadFpdmaQueued
00403ed4 g     F .text	0000001c SystemClkRecovery
00403b7e g     F .text	0000001e printdec
00400000 g       *ABS*	00000000 __VECTOR_ADDR
004007cc g     F .text	00000028 ATACmd_LogAddr2Lba
004043d8  w    F .text	00000008 HW8_ISR
004036ae g     F .text	00000014 TQM_AbortAllTask
004043d8  w    F .text	00000008 VEP59_ISR
004043d8  w    F .text	00000008 VEP18_ISR
00402d72 g     F .text	00000070 SATA_DPIOO_DataTransferReq
004043d8  w    F .text	00000008 HW6_ISR
004045d8 g     O .rodata	00000160 tATACmdList_C
00400ec2 g     F .text	00000084 DSATA_SysTickProcess
0040c600 g     O .prdtable	00000200 tPrdTbls
004043e0 g     F .text	00000026 __c_init
00401974 g     F .text	00000024 DSATA_Update_rPCMDR
0040313e g     F .text	000000d2 Scsi_CoreSwitchHandle
004001e4 g     F .text	00000050 ATACmd_Chs2Lba
004044ac  w    F .text	00000002 syscall_handler
0040070a g     F .text	00000028 ATACmd_WriteBuffDma
00402cfc g     F .text	00000002 SATA_DPIOI_StateMachine
004043d8  w    F .text	00000008 HW19_ISR
004012c0 g     F .text	0000005a HW20_ISR
004043d8  w    F .text	00000008 HW27_ISR
004043d8  w    F .text	00000008 VEP5_ISR
00402038 g     F .text	00000030 BrokenHost_ClearBusy
00403324 g     F .text	0000007e TQM_DiTaskDoneEventHandler
0040121a g     F .text	00000058 DSATA_BuildPrd
00400654 g     F .text	00000024 ATACmd_DmaRwTaskComplete
00403dc8 g     F .text	00000016 NVIC_ClearPendingIRQ
004043d8  w    F .text	00000008 VEP39_ISR
004001d0 g     F .text	0000000a ATACmd_WriteFpdmaQueued
004044f2 g     F .text	00000002 __soc_init
00402b9c g     F .text	00000062 SATA_DSR_StateMachine
004045cc g     F .text	0000000c strlen
0040d4e0 g     O .tqc	0000042c tTQC
0040b000 g       *ABS*	00000000 _stack
004035c8 g     F .text	0000000e TQM_GetTask
004007ba g     F .text	00000012 ATACmd_Refuse
0040039c g     F .text	00000060 ATACmd_InitDevParam
00403210 g     F .text	00000078 Scsi_IntCmdHandle
004044b0 g     F .text	00000040 SysError_IRQHandler
00408000 g       .rodata	00000000 __data_start
004043d8  w    F .text	00000008 VEP30_ISR
00401d90 g     F .text	000000d8 SATA_DI_IntEventHandler
00403d60 g     F .text	00000008 __disbale_performance
004043d8  w    F .text	00000008 VEP41_ISR
004044f0 g     F .text	00000002 _nds32_init_mem
00400e14 g     F .text	00000010 DSATA_ExbuffAndCheckPoit_Ctrl
004005b0 g     F .text	00000026 ATACmd_ReadBuff
004003fc g     F .text	00000012 ATACmd_FlushCache
00400f46 g     F .text	0000003e DSATA_G3_TaskRouter
00400ad0 g     F .text	00000032 WaitBuffStatusClr
00402de4 g     F .text	0000006a SATA_DPIOO_IntEventHandler
00403416 g     F .text	00000038 TQM_HiTaskDoneEventHandler
0040059e g     F .text	00000012 ATACmd_ReadMultiple
00403e5a g     F .text	0000002a SysTick_Config
004007f4 g     F .text	00000016 ATACmd_WriteLogExt
0040274a g     F .text	00000346 SATA_SReset_Handler
004043d8  w    F .text	00000008 HW29_ISR
00400f84 g     F .text	00000022 DSATA_ModuleProcess
00401a94 g     F .text	0000001a DSATA_DisableAutoSend
0040309e g     F .text	000000a0 Scsi_RdWrRamHandle



Disassembly of section .nds32_init:

00000000 <_RELAX_END_>:
   0:	48 20 21 d4 	j 4043a8 <_start>
   4:	48 20 20 9e 	j 404140 <OS_Trap_TLB_Fill>
   8:	48 20 20 9f 	j 404146 <OS_Trap_PTE_Not_Present>
   c:	48 20 20 a0 	j 40414c <OS_Trap_TLB_Misc>
  10:	48 20 20 a1 	j 404152 <OS_Trap_TLB_VLPT_Miss>
  14:	48 20 20 a2 	j 404158 <OS_Trap_Machine_Error>
  18:	48 20 20 a3 	j 40415e <OS_Trap_Debug_Related>
  1c:	48 20 20 a4 	j 404164 <OS_Trap_General_Exception>
  20:	48 20 20 d1 	j 4041c2 <OS_Trap_Syscall>
  24:	48 20 21 3a 	j 404298 <OS_Trap_Interrupt_HW0>
  28:	48 20 21 3c 	j 4042a0 <OS_Trap_Interrupt_HW1>
  2c:	48 20 21 3e 	j 4042a8 <OS_Trap_Interrupt_HW2>
  30:	48 20 21 40 	j 4042b0 <OS_Trap_Interrupt_HW3>
  34:	48 20 21 42 	j 4042b8 <OS_Trap_Interrupt_HW4>
  38:	48 20 21 44 	j 4042c0 <OS_Trap_Interrupt_HW5>
  3c:	48 20 21 46 	j 4042c8 <OS_Trap_Interrupt_HW6>
  40:	48 20 21 48 	j 4042d0 <OS_Trap_Interrupt_HW7>
  44:	48 20 21 4a 	j 4042d8 <OS_Trap_Interrupt_HW8>
  48:	48 20 21 4c 	j 4042e0 <OS_Trap_Interrupt_HW9>
  4c:	48 20 21 4e 	j 4042e8 <OS_Trap_Interrupt_HW10>
  50:	48 20 21 50 	j 4042f0 <OS_Trap_Interrupt_HW11>
  54:	48 20 21 52 	j 4042f8 <OS_Trap_Interrupt_HW12>
  58:	48 20 21 54 	j 404300 <OS_Trap_Interrupt_HW13>
  5c:	48 20 21 56 	j 404308 <OS_Trap_Interrupt_HW14>
  60:	48 20 21 58 	j 404310 <OS_Trap_Interrupt_HW15>
  64:	48 20 21 5b 	j 40431a <OS_Trap_Interrupt_HW16>
  68:	48 20 21 5e 	j 404324 <OS_Trap_Interrupt_HW17>
  6c:	48 20 21 61 	j 40432e <OS_Trap_Interrupt_HW18>
  70:	48 20 21 64 	j 404338 <OS_Trap_Interrupt_HW19>
  74:	48 20 21 67 	j 404342 <OS_Trap_Interrupt_HW20>
  78:	48 20 21 6a 	j 40434c <OS_Trap_Interrupt_HW21>
  7c:	48 20 21 6d 	j 404356 <OS_Trap_Interrupt_HW22>
  80:	48 20 21 70 	j 404360 <OS_Trap_Interrupt_HW23>
  84:	48 20 21 73 	j 40436a <OS_Trap_Interrupt_HW24>
  88:	48 20 21 76 	j 404374 <OS_Trap_Interrupt_HW25>
  8c:	48 20 21 79 	j 40437e <OS_Trap_Interrupt_HW26>
  90:	48 20 21 7c 	j 404388 <OS_Trap_Interrupt_HW27>
  94:	48 20 21 7f 	j 404392 <OS_Trap_Interrupt_HW28>
  98:	48 20 21 82 	j 40439c <OS_Trap_Interrupt_HW29>
  9c:	48 20 20 fd 	j 404296 <OS_Trap_Interrupt_UNDEF>
  a0:	48 20 20 fb 	j 404296 <OS_Trap_Interrupt_UNDEF>

Disassembly of section .text:

004000a4 <ATACmd_ParseCmd>:
  4000a4:	84 20       	movi55 $r1,#0x0
  4000a6:	3e 2f c4 c0 	addi.gp $r2,#-15168
  4000aa:	38 51 07 00 	lb $r5,[$r2+($r1<<#0x3)]
  4000ae:	94 cb       	slli333 $r3,$r1,#0x3
  4000b0:	d8 05       	bnes38 $r0,4000ba <ATACmd_ParseCmd+0x16>
  4000b2:	3e 0f c4 c0 	addi.gp $r0,#-15168
  4000b6:	88 03       	add45 $r0,$r3
  4000b8:	dd 9e       	ret5 $lp
  4000ba:	8c 21       	addi45 $r1,#0x1
  4000bc:	5a 18 2c f7 	bnec $r1,#0x2c,4000aa <ATACmd_ParseCmd+0x6>
  4000c0:	84 00       	movi55 $r0,#0x0
  4000c2:	dd 9e       	ret5 $lp

004000c4 <ATACmd_FpdmaRwTaskComplete>:
  4000c4:	dd 9e       	ret5 $lp

004000c6 <ATACmd_GetFpdmaLba>:
  4000c6:	a0 c9       	lwi333 $r3,[$r1+#0x4]
  4000c8:	46 20 20 00 	sethi $r2,#0x2000
  4000cc:	fe 9e       	and33 $r2,$r3
  4000ce:	ca 26       	bnez38 $r2,40011a <ATACmd_GetFpdmaLba+0x54>
  4000d0:	00 20 00 09 	lbi $r2,[$r0+#0x9]
  4000d4:	c2 03       	beqz38 $r2,4000da <ATACmd_GetFpdmaLba+0x14>
  4000d6:	84 04       	movi55 $r0,#0x4
  4000d8:	dd 9e       	ret5 $lp
  4000da:	00 20 00 0a 	lbi $r2,[$r0+#0xa]
  4000de:	ca fc       	bnez38 $r2,4000d6 <ATACmd_GetFpdmaLba+0x10>
  4000e0:	a6 c3       	lbi333 $r3,[$r0+#0x3]
  4000e2:	00 20 00 0b 	lbi $r2,[$r0+#0xb]
  4000e6:	40 21 20 08 	slli $r2,$r2,#0x8
  4000ea:	88 43       	add45 $r2,$r3
  4000ec:	ca 03       	bnez38 $r2,4000f2 <ATACmd_GetFpdmaLba+0x2c>
  4000ee:	44 21 00 00 	movi $r2,#0x10000
  4000f2:	a8 8a       	swi333 $r2,[$r1+#0x8]
  4000f4:	a0 81       	lwi333 $r2,[$r0+#0x4]
  4000f6:	40 21 20 08 	slli $r2,$r2,#0x8
  4000fa:	92 48       	srli45 $r2,#0x8
  4000fc:	b6 41       	swi450 $r2,[$r1]
  4000fe:	00 00 00 08 	lbi $r0,[$r0+#0x8]
  400102:	40 00 60 08 	slli $r0,$r0,#0x18
  400106:	88 02       	add45 $r0,$r2
  400108:	b6 01       	swi450 $r0,[$r1]
  40010a:	a0 4a       	lwi333 $r1,[$r1+#0x8]
  40010c:	88 01       	add45 $r0,$r1
  40010e:	3c 1c 13 d0 	lwi.gp $r1,[+#0x4f40]
  400112:	e2 20       	slt45 $r1,$r0
  400114:	e9 e1       	bnezs8 4000d6 <ATACmd_GetFpdmaLba+0x10>
  400116:	84 0b       	movi55 $r0,#0xb
  400118:	dd 9e       	ret5 $lp
  40011a:	84 02       	movi55 $r0,#0x2
  40011c:	dd 9e       	ret5 $lp

0040011e <ATACmd_RWFpdmaQueued>:
  40011e:	fc 40       	push25 $r10,#0    ! {$r6~$r10, $fp, $gp, $lp}
  400120:	80 e0       	mov55 $r7,$r0
  400122:	85 22       	movi55 $r9,#0x2
  400124:	2e 60 4e f4 	lbi.gp $r6,[+#0x4ef4]
  400128:	92 c3       	srli45 $r6,#0x3
  40012a:	3c 00 21 bf 	lhi.gp $r0,[+#0x437e]
  40012e:	96 27       	fexti33 $r0,#0x4
  400130:	e0 06       	slts45 $r0,$r6
  400132:	e9 0c       	bnezs8 40014a <ATACmd_RWFpdmaQueued+0x2c>
  400134:	fa 0c       	movpi45 $r0,#0x1c
  400136:	3e 18 53 c8 	addi.gp $r1,#0x53c8
  40013a:	42 13 00 73 	maddr32 $r1,$r6,$r0
  40013e:	8c 24       	addi45 $r1,#0x4
  400140:	3e 08 4e e8 	addi.gp $r0,#0x4ee8
  400144:	49 ff ff c1 	jal 4000c6 <ATACmd_GetFpdmaLba>
  400148:	81 20       	mov55 $r9,$r0
  40014a:	80 09       	mov55 $r0,$r9
  40014c:	49 00 0f 8e 	jal 402068 <AddCommandToQueue>
  400150:	5a 98 0b 3f 	bnec $r9,#0xb,4001ce <ATACmd_RWFpdmaQueued+0xb0>
  400154:	58 13 01 00 	ori $r1,$r6,#0x100
  400158:	94 3e       	slli333 $r0,$r7,#0x6
  40015a:	fe 47       	or33 $r1,$r0
  40015c:	cf 08       	bnez38 $r7,40016c <ATACmd_RWFpdmaQueued+0x4e>
  40015e:	3c 00 21 c3 	lhi.gp $r0,[+#0x4386]
  400162:	96 16       	bmski33 $r0,#0x2
  400164:	92 02       	srli45 $r0,#0x2
  400166:	40 00 24 08 	slli $r0,$r0,#0x9
  40016a:	fe 47       	or33 $r1,$r0
  40016c:	fa 0c       	movpi45 $r0,#0x1c
  40016e:	3e 98 53 c8 	addi.gp $r9,#0x53c8
  400172:	42 93 00 73 	maddr32 $r9,$r6,$r0
  400176:	50 a4 80 08 	addi $r10,$r9,#0x8
  40017a:	04 25 00 01 	lwi $r2,[$r10+#0x4]
  40017e:	80 06       	mov55 $r0,$r6
  400180:	80 62       	mov55 $r3,$r2
  400182:	40 41 24 08 	slli $r4,$r2,#0x9
  400186:	49 00 08 76 	jal 401272 <DSATA_SetCmdHead>
  40018a:	02 04 80 05 	lhi $r0,[$r9+#0xa]
  40018e:	97 cf       	fexti33 $r7,#0x1
  400190:	92 06       	srli45 $r0,#0x6
  400192:	94 06       	slli333 $r0,$r0,#0x6
  400194:	ff 87       	or33 $r6,$r0
  400196:	44 0f ff 3f 	movi $r0,#-193
  40019a:	ff 86       	and33 $r6,$r0
  40019c:	95 fe       	slli333 $r7,$r7,#0x6
  40019e:	ff bf       	or33 $r6,$r7
  4001a0:	12 64 80 05 	shi $r6,[$r9+#0xa]
  4001a4:	2e 00 4e ef 	lbi.gp $r0,[+#0x4eef]
  4001a8:	3e 2f 7f ac 	addi.gp $r2,#-32852
  4001ac:	92 07       	srli45 $r0,#0x7
  4001ae:	40 10 2c 08 	slli $r1,$r0,#0xb
  4001b2:	96 31       	zeh33 $r0,$r6
  4001b4:	54 00 07 ff 	andi $r0,$r0,#0x7ff
  4001b8:	fe 0f       	or33 $r0,$r1
  4001ba:	12 04 80 05 	shi $r0,[$r9+#0xa]
  4001be:	80 29       	mov55 $r1,$r9
  4001c0:	3c 0c 13 e0 	lwi.gp $r0,[+#0x4f80]
  4001c4:	14 04 80 04 	swi $r0,[$r9+#0x10]
  4001c8:	84 00       	movi55 $r0,#0x0
  4001ca:	49 00 1a e4 	jal 403792 <TQM_CreateTask>
  4001ce:	fc c0       	pop25 $r10,#0    ! {$r6~$r10, $fp, $gp, $lp}

004001d0 <ATACmd_WriteFpdmaQueued>:
  4001d0:	fc 00       	push25 $r6,#0    ! {$r6, $fp, $gp, $lp}
  4001d2:	84 00       	movi55 $r0,#0x0
  4001d4:	49 ff ff a5 	jal 40011e <ATACmd_RWFpdmaQueued>
  4001d8:	fc 80       	pop25 $r6,#0    ! {$r6, $fp, $gp, $lp}

004001da <ATACmd_ReadFpdmaQueued>:
  4001da:	fc 00       	push25 $r6,#0    ! {$r6, $fp, $gp, $lp}
  4001dc:	84 01       	movi55 $r0,#0x1
  4001de:	49 ff ff a0 	jal 40011e <ATACmd_RWFpdmaQueued>
  4001e2:	fc 80       	pop25 $r6,#0    ! {$r6, $fp, $gp, $lp}

004001e4 <ATACmd_Chs2Lba>:
  4001e4:	fc 00       	push25 $r6,#0    ! {$r6, $fp, $gp, $lp}
  4001e6:	a6 86       	lbi333 $r2,[$r0+#0x6]
  4001e8:	a6 45       	lbi333 $r1,[$r0+#0x5]
  4001ea:	40 21 20 08 	slli $r2,$r2,#0x8
  4001ee:	88 41       	add45 $r2,$r1
  4001f0:	3c 50 21 aa 	lhi.gp $r5,[+#0x4354]
  4001f4:	a6 44       	lbi333 $r1,[$r0+#0x4]
  4001f6:	96 91       	zeh33 $r2,$r2
  4001f8:	a6 07       	lbi333 $r0,[$r0+#0x7]
  4001fa:	3c 40 21 ab 	lhi.gp $r4,[+#0x4356]
  4001fe:	e0 45       	slts45 $r2,$r5
  400200:	96 48       	zeb33 $r1,$r1
  400202:	96 00       	zeb33 $r0,$r0
  400204:	3c 30 21 ac 	lhi.gp $r3,[+#0x4358]
  400208:	e8 10       	beqzs8 400228 <ATACmd_Chs2Lba+0x44>
  40020a:	96 1f       	fexti33 $r0,#0x3
  40020c:	e0 04       	slts45 $r0,$r4
  40020e:	e8 0d       	beqzs8 400228 <ATACmd_Chs2Lba+0x44>
  400210:	e2 61       	slt45 $r3,$r1
  400212:	e9 0b       	bnezs8 400228 <ATACmd_Chs2Lba+0x44>
  400214:	c1 0a       	beqz38 $r1,400228 <ATACmd_Chs2Lba+0x44>
  400216:	42 01 10 73 	maddr32 $r0,$r2,$r4
  40021a:	8e 21       	subi45 $r1,#0x1
  40021c:	42 10 0c 73 	maddr32 $r1,$r0,$r3
  400220:	3c 1e 14 f3 	swi.gp $r1,[+#0x53cc]
  400224:	84 0b       	movi55 $r0,#0xb
  400226:	fc 80       	pop25 $r6,#0    ! {$r6, $fp, $gp, $lp}
  400228:	3e 0f c6 20 	addi.gp $r0,#-14816
  40022c:	49 00 1c fb 	jal 403c22 <PRINT_TXT>
  400230:	84 04       	movi55 $r0,#0x4
  400232:	fc 80       	pop25 $r6,#0    ! {$r6, $fp, $gp, $lp}

00400234 <ATACmd_GetCountLba28>:
  400234:	00 10 00 0c 	lbi $r1,[$r0+#0xc]
  400238:	96 48       	zeb33 $r1,$r1
  40023a:	c9 03       	bnez38 $r1,400240 <ATACmd_GetCountLba28+0xc>
  40023c:	44 10 01 00 	movi $r1,#0x100
  400240:	3c 1e 14 f5 	swi.gp $r1,[+#0x53d4]
  400244:	a6 47       	lbi333 $r1,[$r0+#0x7]
  400246:	96 76       	bmski33 $r1,#0x6
  400248:	c1 15       	beqz38 $r1,400272 <ATACmd_GetCountLba28+0x3e>
  40024a:	a0 41       	lwi333 $r1,[$r0+#0x4]
  40024c:	a6 07       	lbi333 $r0,[$r0+#0x7]
  40024e:	96 1f       	fexti33 $r0,#0x3
  400250:	40 f0 60 08 	slli $r15,$r0,#0x18
  400254:	40 00 a0 08 	slli $r0,$r1,#0x8
  400258:	92 08       	srli45 $r0,#0x8
  40025a:	88 0f       	add45 $r0,$r15
  40025c:	3c 0e 14 f3 	swi.gp $r0,[+#0x53cc]
  400260:	3c 1c 14 f5 	lwi.gp $r1,[+#0x53d4]
  400264:	88 01       	add45 $r0,$r1
  400266:	3c 1c 13 d0 	lwi.gp $r1,[+#0x4f40]
  40026a:	e2 20       	slt45 $r1,$r0
  40026c:	e9 07       	bnezs8 40027a <ATACmd_GetCountLba28+0x46>
  40026e:	84 0b       	movi55 $r0,#0xb
  400270:	dd 9e       	ret5 $lp
  400272:	fc 00       	push25 $r6,#0    ! {$r6, $fp, $gp, $lp}
  400274:	49 ff ff b8 	jal 4001e4 <ATACmd_Chs2Lba>
  400278:	fc 80       	pop25 $r6,#0    ! {$r6, $fp, $gp, $lp}
  40027a:	84 04       	movi55 $r0,#0x4
  40027c:	dd 9e       	ret5 $lp

0040027e <ATACmd_GetCountLba48>:
  40027e:	fc 00       	push25 $r6,#0    ! {$r6, $fp, $gp, $lp}
  400280:	00 10 00 09 	lbi $r1,[$r0+#0x9]
  400284:	c9 04       	bnez38 $r1,40028c <ATACmd_GetCountLba48+0xe>
  400286:	00 10 00 0a 	lbi $r1,[$r0+#0xa]
  40028a:	c1 06       	beqz38 $r1,400296 <ATACmd_GetCountLba48+0x18>
  40028c:	3e 0f c6 2c 	addi.gp $r0,#-14804
  400290:	49 00 1c c9 	jal 403c22 <PRINT_TXT>
  400294:	d5 1c       	j8 4002cc <ATACmd_GetCountLba48+0x4e>
  400296:	a0 43       	lwi333 $r1,[$r0+#0xc]
  400298:	96 49       	zeh33 $r1,$r1
  40029a:	c9 03       	bnez38 $r1,4002a0 <ATACmd_GetCountLba48+0x22>
  40029c:	44 11 00 00 	movi $r1,#0x10000
  4002a0:	3c 1e 14 f5 	swi.gp $r1,[+#0x53d4]
  4002a4:	a0 41       	lwi333 $r1,[$r0+#0x4]
  4002a6:	00 00 00 08 	lbi $r0,[$r0+#0x8]
  4002aa:	40 f0 60 08 	slli $r15,$r0,#0x18
  4002ae:	40 00 a0 08 	slli $r0,$r1,#0x8
  4002b2:	92 08       	srli45 $r0,#0x8
  4002b4:	88 0f       	add45 $r0,$r15
  4002b6:	3c 0e 14 f3 	swi.gp $r0,[+#0x53cc]
  4002ba:	3c 1c 14 f5 	lwi.gp $r1,[+#0x53d4]
  4002be:	88 01       	add45 $r0,$r1
  4002c0:	3c 1c 13 d0 	lwi.gp $r1,[+#0x4f40]
  4002c4:	e2 20       	slt45 $r1,$r0
  4002c6:	e9 03       	bnezs8 4002cc <ATACmd_GetCountLba48+0x4e>
  4002c8:	84 0b       	movi55 $r0,#0xb
  4002ca:	fc 80       	pop25 $r6,#0    ! {$r6, $fp, $gp, $lp}
  4002cc:	84 04       	movi55 $r0,#0x4
  4002ce:	fc 80       	pop25 $r6,#0    ! {$r6, $fp, $gp, $lp}

004002d0 <ATACmd_ExeDevDiagnostic>:
  4002d0:	dd 9e       	ret5 $lp

004002d2 <ATACmd_Identify>:
  4002d2:	fc 24       	push25 $r8,#32    ! {$r6~$r8, $fp, $gp, $lp}
  4002d4:	3e 78 42 e8 	addi.gp $r7,#0x42e8
  4002d8:	3e 68 4f 08 	addi.gp $r6,#0x4f08
  4002dc:	80 07       	mov55 $r0,$r7
  4002de:	44 10 02 00 	movi $r1,#0x200
  4002e2:	49 00 02 ff 	jal 4008e0 <UpdateCheckSum>
  4002e6:	00 33 00 3f 	lbi $r3,[$r6+#0x3f]
  4002ea:	84 00       	movi55 $r0,#0x0
  4002ec:	44 10 00 c0 	movi $r1,#0xc0
  4002f0:	84 41       	movi55 $r2,#0x1
  4002f2:	44 40 02 00 	movi $r4,#0x200
  4002f6:	49 00 07 be 	jal 401272 <DSATA_SetCmdHead>
  4002fa:	84 0b       	movi55 $r0,#0xb
  4002fc:	10 0f 80 04 	sbi $r0,[$sp+#0x4]
  400300:	02 0f 80 07 	lhi $r0,[$sp+#0xe]
  400304:	44 10 ff 00 	movi $r1,#0xff00
  400308:	fe 46       	and33 $r1,$r0
  40030a:	04 33 00 1b 	lwi $r3,[$r6+#0x6c]
  40030e:	58 10 80 40 	ori $r1,$r1,#0x40
  400312:	84 01       	movi55 $r0,#0x1
  400314:	12 1f 80 07 	shi $r1,[$sp+#0xe]
  400318:	f7 85       	swi37.sp $r7,[+#0x14]
  40031a:	f0 84       	swi37.sp $r0,[+#0x10]
  40031c:	b0 41       	addri36.sp $r1,#0x4
  40031e:	84 40       	movi55 $r2,#0x0
  400320:	dd 23       	jral5 $r3
  400322:	fc a4       	pop25 $r8,#32    ! {$r6~$r8, $fp, $gp, $lp}

00400324 <ATACmd_ReleaseCommand>:
  400324:	fc 04       	push25 $r6,#32    ! {$r6, $fp, $gp, $lp}
  400326:	46 10 05 e1 	sethi $r1,#0x5e1
  40032a:	10 0f 80 04 	sbi $r0,[$sp+#0x4]
  40032e:	04 00 80 4a 	lwi $r0,[$r1+#0x128]
  400332:	54 00 0f 0f 	andi $r0,$r0,#0xf0f
  400336:	5a 09 03 12 	bnec $r0,#0x103,40035a <ATACmd_ReleaseCommand+0x36>
  40033a:	04 00 80 44 	lwi $r0,[$r1+#0x110]
  40033e:	92 1e       	srli45 $r0,#0x1e
  400340:	96 06       	bmski33 $r0,#0x0
  400342:	c8 0c       	bnez38 $r0,40035a <ATACmd_ReleaseCommand+0x36>
  400344:	04 20 80 44 	lwi $r2,[$r1+#0x110]
  400348:	92 48       	srli45 $r2,#0x8
  40034a:	96 86       	bmski33 $r2,#0x0
  40034c:	ca 07       	bnez38 $r2,40035a <ATACmd_ReleaseCommand+0x36>
  40034e:	3c 3c 13 dd 	lwi.gp $r3,[+#0x4f74]
  400352:	c3 04       	beqz38 $r3,40035a <ATACmd_ReleaseCommand+0x36>
  400354:	84 02       	movi55 $r0,#0x2
  400356:	b0 41       	addri36.sp $r1,#0x4
  400358:	dd 23       	jral5 $r3
  40035a:	fc 84       	pop25 $r6,#32    ! {$r6, $fp, $gp, $lp}

0040035c <ATACmd_DataSetManagement>:
  40035c:	fc 00       	push25 $r6,#0    ! {$r6, $fp, $gp, $lp}
  40035e:	2e 00 4e eb 	lbi.gp $r0,[+#0x4eeb]
  400362:	96 06       	bmski33 $r0,#0x0
  400364:	c0 13       	beqz38 $r0,40038a <ATACmd_DataSetManagement+0x2e>
  400366:	2e 00 4e f4 	lbi.gp $r0,[+#0x4ef4]
  40036a:	c0 10       	beqz38 $r0,40038a <ATACmd_DataSetManagement+0x2e>
  40036c:	2e 00 4e f4 	lbi.gp $r0,[+#0x4ef4]
  400370:	3c 10 21 dd 	lhi.gp $r1,[+#0x43ba]
  400374:	e2 20       	slt45 $r1,$r0
  400376:	e9 0a       	bnezs8 40038a <ATACmd_DataSetManagement+0x2e>
  400378:	3e 08 4e e8 	addi.gp $r0,#0x4ee8
  40037c:	49 ff ff 81 	jal 40027e <ATACmd_GetCountLba48>
  400380:	80 c0       	mov55 $r6,$r0
  400382:	84 00       	movi55 $r0,#0x0
  400384:	3c 0e 14 f3 	swi.gp $r0,[+#0x53cc]
  400388:	d5 02       	j8 40038c <ATACmd_DataSetManagement+0x30>
  40038a:	84 c2       	movi55 $r6,#0x2
  40038c:	3e 0f c6 34 	addi.gp $r0,#-14796
  400390:	49 00 1c 49 	jal 403c22 <PRINT_TXT>
  400394:	80 06       	mov55 $r0,$r6
  400396:	49 ff ff c7 	jal 400324 <ATACmd_ReleaseCommand>
  40039a:	fc 80       	pop25 $r6,#0    ! {$r6, $fp, $gp, $lp}

0040039c <ATACmd_InitDevParam>:
  40039c:	fc 00       	push25 $r6,#0    ! {$r6, $fp, $gp, $lp}
  40039e:	2e 40 4e ef 	lbi.gp $r4,[+#0x4eef]
  4003a2:	97 1f       	fexti33 $r4,#0x3
  4003a4:	8c 81       	addi45 $r4,#0x1
  4003a6:	3c 48 21 ab 	shi.gp $r4,[+#0x4356]
  4003aa:	3c 20 21 b0 	lhi.gp $r2,[+#0x4360]
  4003ae:	2e 30 4e f4 	lbi.gp $r3,[+#0x4ef4]
  4003b2:	96 d8       	zeb33 $r3,$r3
  4003b4:	3c 38 21 ac 	shi.gp $r3,[+#0x4358]
  4003b8:	3c 00 21 b1 	lhi.gp $r0,[+#0x4362]
  4003bc:	40 00 40 08 	slli $r0,$r0,#0x10
  4003c0:	98 42       	add333 $r1,$r0,$r2
  4003c2:	46 00 0f bf 	sethi $r0,#0xfbf
  4003c6:	50 00 0c 10 	addi $r0,$r0,#0xc10
  4003ca:	e2 01       	slt45 $r0,$r1
  4003cc:	40 10 3c 1b 	cmovn $r1,$r0,$r15
  4003d0:	42 02 0c 24 	mul $r0,$r4,$r3
  4003d4:	40 00 80 17 	divr $r0,$r0,$r1,$r0
  4003d8:	44 10 ff ff 	movi $r1,#0xffff
  4003dc:	e2 20       	slt45 $r1,$r0
  4003de:	40 00 bc 1b 	cmovn $r0,$r1,$r15
  4003e2:	3c 08 21 aa 	shi.gp $r0,[+#0x4354]
  4003e6:	fe 24       	mul33 $r0,$r4
  4003e8:	fe c4       	mul33 $r3,$r0
  4003ea:	3c 38 21 ad 	shi.gp $r3,[+#0x435a]
  4003ee:	92 70       	srli45 $r3,#0x10
  4003f0:	3c 38 21 ae 	shi.gp $r3,[+#0x435c]
  4003f4:	84 0a       	movi55 $r0,#0xa
  4003f6:	49 ff ff 97 	jal 400324 <ATACmd_ReleaseCommand>
  4003fa:	fc 80       	pop25 $r6,#0    ! {$r6, $fp, $gp, $lp}

004003fc <ATACmd_FlushCache>:
  4003fc:	fc 00       	push25 $r6,#0    ! {$r6, $fp, $gp, $lp}
  4003fe:	3e 0f c6 3c 	addi.gp $r0,#-14788
  400402:	49 00 1c 10 	jal 403c22 <PRINT_TXT>
  400406:	84 0a       	movi55 $r0,#0xa
  400408:	49 ff ff 8e 	jal 400324 <ATACmd_ReleaseCommand>
  40040c:	fc 80       	pop25 $r6,#0    ! {$r6, $fp, $gp, $lp}

0040040e <ATACmd_LegacyCmdSupport>:
  40040e:	fc 00       	push25 $r6,#0    ! {$r6, $fp, $gp, $lp}
  400410:	3e 08 4f 08 	addi.gp $r0,#0x4f08
  400414:	84 21       	movi55 $r1,#0x1
  400416:	a8 42       	swi333 $r1,[$r0+#0x8]
  400418:	84 20       	movi55 $r1,#0x0
  40041a:	14 10 01 12 	swi $r1,[$r0+#0x448]
  40041e:	84 0a       	movi55 $r0,#0xa
  400420:	49 ff ff 82 	jal 400324 <ATACmd_ReleaseCommand>
  400424:	fc 80       	pop25 $r6,#0    ! {$r6, $fp, $gp, $lp}

00400426 <ATACmd_SetMultipleMode>:
  400426:	fc 00       	push25 $r6,#0    ! {$r6, $fp, $gp, $lp}
  400428:	2e 00 4e f4 	lbi.gp $r0,[+#0x4ef4]
  40042c:	2e 10 43 46 	lbi.gp $r1,[+#0x4346]
  400430:	e2 20       	slt45 $r1,$r0
  400432:	84 02       	movi55 $r0,#0x2
  400434:	e9 11       	bnezs8 400456 <ATACmd_SetMultipleMode+0x30>
  400436:	2e 00 4e f4 	lbi.gp $r0,[+#0x4ef4]
  40043a:	96 00       	zeb33 $r0,$r0
  40043c:	3e 00 4f 48 	sbi.gp $r0,[+#0x4f48]
  400440:	3c 10 21 af 	lhi.gp $r1,[+#0x435e]
  400444:	92 29       	srli45 $r1,#0x9
  400446:	40 10 a4 08 	slli $r1,$r1,#0x9
  40044a:	fe 0f       	or33 $r0,$r1
  40044c:	58 00 01 00 	ori $r0,$r0,#0x100
  400450:	3c 08 21 af 	shi.gp $r0,[+#0x435e]
  400454:	84 0a       	movi55 $r0,#0xa
  400456:	49 ff ff 67 	jal 400324 <ATACmd_ReleaseCommand>
  40045a:	fc 80       	pop25 $r6,#0    ! {$r6, $fp, $gp, $lp}

0040045c <ATACmd_CreatePioTask>:
  40045c:	5a 08 0f 04 	bnec $r0,#0xf,400464 <ATACmd_CreatePioTask+0x8>
  400460:	48 00 00 62 	j 400524 <ATACmd_CreatePioTask+0xc8>
  400464:	fc 00       	push25 $r6,#0    ! {$r6, $fp, $gp, $lp}
  400466:	e6 0a       	slti45 $r0,#0xa
  400468:	80 c1       	mov55 $r6,$r1
  40046a:	4e f3 00 5a 	bnez $r15,40051e <ATACmd_CreatePioTask+0xc2>
  40046e:	2e 00 4f 49 	lbi.gp $r0,[+#0x4f49]
  400472:	5a 00 e4 10 	beqc $r0,#0xe4,400492 <ATACmd_CreatePioTask+0x36>
  400476:	5a 00 e8 0e 	beqc $r0,#0xe8,400492 <ATACmd_CreatePioTask+0x36>
  40047a:	5a 00 3f 0c 	beqc $r0,#0x3f,400492 <ATACmd_CreatePioTask+0x36>
  40047e:	50 10 7f d1 	addi $r1,$r0,#-47
  400482:	e6 22       	slti45 $r1,#0x2
  400484:	e9 07       	bnezs8 400492 <ATACmd_CreatePioTask+0x36>
  400486:	54 10 00 fb 	andi $r1,$r0,#0xfb
  40048a:	5a 10 20 04 	beqc $r1,#0x20,400492 <ATACmd_CreatePioTask+0x36>
  40048e:	5a 08 34 04 	bnec $r0,#0x34,400496 <ATACmd_CreatePioTask+0x3a>
  400492:	84 01       	movi55 $r0,#0x1
  400494:	d5 06       	j8 4004a0 <ATACmd_CreatePioTask+0x44>
  400496:	2e 00 4f 48 	lbi.gp $r0,[+#0x4f48]
  40049a:	c8 03       	bnez38 $r0,4004a0 <ATACmd_CreatePioTask+0x44>
  40049c:	84 02       	movi55 $r0,#0x2
  40049e:	d5 40       	j8 40051e <ATACmd_CreatePioTask+0xc2>
  4004a0:	3e 00 4f 47 	sbi.gp $r0,[+#0x4f47]
  4004a4:	3e 0f c6 4c 	addi.gp $r0,#-14772
  4004a8:	2e 10 4f 47 	lbi.gp $r1,[+#0x4f47]
  4004ac:	49 00 1b d7 	jal 403c5a <PRINT_DEC>
  4004b0:	84 00       	movi55 $r0,#0x0
  4004b2:	94 76       	slli333 $r1,$r6,#0x6
  4004b4:	58 10 80 80 	ori $r1,$r1,#0x80
  4004b8:	3c 2c 14 f5 	lwi.gp $r2,[+#0x53d4]
  4004bc:	2e 30 4f 47 	lbi.gp $r3,[+#0x4f47]
  4004c0:	80 80       	mov55 $r4,$r0
  4004c2:	49 00 06 d8 	jal 401272 <DSATA_SetCmdHead>
  4004c6:	3c 2c 14 f5 	lwi.gp $r2,[+#0x53d4]
  4004ca:	3c 2e 13 d3 	swi.gp $r2,[+#0x4f4c]
  4004ce:	54 03 00 03 	andi $r0,$r6,#0x3
  4004d2:	94 46       	slli333 $r1,$r0,#0x6
  4004d4:	3c 30 29 e9 	lhi.gp $r3,[+#0x53d2]
  4004d8:	44 0f ff 3f 	movi $r0,#-193
  4004dc:	fe 1e       	and33 $r0,$r3
  4004de:	fe 0f       	or33 $r0,$r1
  4004e0:	3c 08 29 e9 	shi.gp $r0,[+#0x53d2]
  4004e4:	2e 00 4f 47 	lbi.gp $r0,[+#0x4f47]
  4004e8:	e2 02       	slt45 $r0,$r2
  4004ea:	e8 03       	beqzs8 4004f0 <ATACmd_CreatePioTask+0x94>
  4004ec:	3c 0e 14 f5 	swi.gp $r0,[+#0x53d4]
  4004f0:	3c 00 29 e9 	lhi.gp $r0,[+#0x53d2]
  4004f4:	92 06       	srli45 $r0,#0x6
  4004f6:	94 06       	slli333 $r0,$r0,#0x6
  4004f8:	3c 08 29 e9 	shi.gp $r0,[+#0x53d2]
  4004fc:	3c 0c 13 e0 	lwi.gp $r0,[+#0x4f80]
  400500:	3c 0e 14 f6 	swi.gp $r0,[+#0x53d8]
  400504:	84 00       	movi55 $r0,#0x0
  400506:	3e 18 53 c8 	addi.gp $r1,#0x53c8
  40050a:	5a 68 01 05 	bnec $r6,#0x1,400514 <ATACmd_CreatePioTask+0xb8>
  40050e:	3e 2f 84 62 	addi.gp $r2,#-31646
  400512:	d5 03       	j8 400518 <ATACmd_CreatePioTask+0xbc>
  400514:	3e 2f 84 74 	addi.gp $r2,#-31628
  400518:	49 00 19 3d 	jal 403792 <TQM_CreateTask>
  40051c:	fc 80       	pop25 $r6,#0    ! {$r6, $fp, $gp, $lp}
  40051e:	49 ff ff 03 	jal 400324 <ATACmd_ReleaseCommand>
  400522:	fc 80       	pop25 $r6,#0    ! {$r6, $fp, $gp, $lp}
  400524:	dd 9e       	ret5 $lp

00400526 <ATACmd_PioTaskComplete>:
  400526:	fc 00       	push25 $r6,#0    ! {$r6, $fp, $gp, $lp}
  400528:	e6 2a       	slti45 $r1,#0xa
  40052a:	80 80       	mov55 $r4,$r0
  40052c:	80 01       	mov55 $r0,$r1
  40052e:	e8 05       	beqzs8 400538 <ATACmd_PioTaskComplete+0x12>
  400530:	80 24       	mov55 $r1,$r4
  400532:	49 ff ff 95 	jal 40045c <ATACmd_CreatePioTask>
  400536:	fc 80       	pop25 $r6,#0    ! {$r6, $fp, $gp, $lp}
  400538:	3c 3c 14 f5 	lwi.gp $r3,[+#0x53d4]
  40053c:	3c 2c 13 d3 	lwi.gp $r2,[+#0x4f4c]
  400540:	8a 43       	sub45 $r2,$r3
  400542:	3c 2e 13 d3 	swi.gp $r2,[+#0x4f4c]
  400546:	3c 0c 14 f3 	lwi.gp $r0,[+#0x53cc]
  40054a:	88 60       	add45 $r3,$r0
  40054c:	3c 3e 14 f3 	swi.gp $r3,[+#0x53cc]
  400550:	c2 14       	beqz38 $r2,400578 <ATACmd_PioTaskComplete+0x52>
  400552:	3e 18 53 c8 	addi.gp $r1,#0x53c8
  400556:	2e 00 4f 47 	lbi.gp $r0,[+#0x4f47]
  40055a:	e2 02       	slt45 $r0,$r2
  40055c:	40 20 3c 1b 	cmovn $r2,$r0,$r15
  400560:	3c 2e 14 f5 	swi.gp $r2,[+#0x53d4]
  400564:	84 00       	movi55 $r0,#0x0
  400566:	5a 48 01 05 	bnec $r4,#0x1,400570 <ATACmd_PioTaskComplete+0x4a>
  40056a:	3e 2f 84 62 	addi.gp $r2,#-31646
  40056e:	d5 03       	j8 400574 <ATACmd_PioTaskComplete+0x4e>
  400570:	3e 2f 84 74 	addi.gp $r2,#-31628
  400574:	49 00 19 0f 	jal 403792 <TQM_CreateTask>
  400578:	fc 80       	pop25 $r6,#0    ! {$r6, $fp, $gp, $lp}

0040057a <ATACmd_PioRdTaskComplete>:
  40057a:	fc 01       	push25 $r6,#8    ! {$r6, $fp, $gp, $lp}
  40057c:	b6 1f       	swi450 $r0,[$sp]
  40057e:	f1 81       	swi37.sp $r1,[+#0x4]
  400580:	84 01       	movi55 $r0,#0x1
  400582:	b4 3f       	lwi450 $r1,[$sp]
  400584:	f2 01       	lwi37.sp $r2,[+#0x4]
  400586:	49 ff ff d0 	jal 400526 <ATACmd_PioTaskComplete>
  40058a:	fc 81       	pop25 $r6,#8    ! {$r6, $fp, $gp, $lp}

0040058c <ATACmd_PioWrTaskComplete>:
  40058c:	fc 01       	push25 $r6,#8    ! {$r6, $fp, $gp, $lp}
  40058e:	b6 1f       	swi450 $r0,[$sp]
  400590:	f1 81       	swi37.sp $r1,[+#0x4]
  400592:	84 00       	movi55 $r0,#0x0
  400594:	b4 3f       	lwi450 $r1,[$sp]
  400596:	f2 01       	lwi37.sp $r2,[+#0x4]
  400598:	49 ff ff c7 	jal 400526 <ATACmd_PioTaskComplete>
  40059c:	fc 81       	pop25 $r6,#8    ! {$r6, $fp, $gp, $lp}

0040059e <ATACmd_ReadMultiple>:
  40059e:	fc 00       	push25 $r6,#0    ! {$r6, $fp, $gp, $lp}
  4005a0:	3e 08 4e e8 	addi.gp $r0,#0x4ee8
  4005a4:	49 ff fe 48 	jal 400234 <ATACmd_GetCountLba28>
  4005a8:	84 21       	movi55 $r1,#0x1
  4005aa:	49 ff ff 59 	jal 40045c <ATACmd_CreatePioTask>
  4005ae:	fc 80       	pop25 $r6,#0    ! {$r6, $fp, $gp, $lp}

004005b0 <ATACmd_ReadBuff>:
  4005b0:	fc 00       	push25 $r6,#0    ! {$r6, $fp, $gp, $lp}
  4005b2:	84 c1       	movi55 $r6,#0x1
  4005b4:	3c 1c 13 e2 	lwi.gp $r1,[+#0x4f88]
  4005b8:	3e 08 53 c8 	addi.gp $r0,#0x53c8
  4005bc:	50 10 82 31 	addi $r1,$r1,#0x231
  4005c0:	a8 41       	swi333 $r1,[$r0+#0x4]
  4005c2:	a9 83       	swi333 $r6,[$r0+#0xc]
  4005c4:	3e 0f c6 54 	addi.gp $r0,#-14764
  4005c8:	49 00 1b 7d 	jal 403cc2 <PRINT_HEX>
  4005cc:	84 0a       	movi55 $r0,#0xa
  4005ce:	80 26       	mov55 $r1,$r6
  4005d0:	49 ff ff 46 	jal 40045c <ATACmd_CreatePioTask>
  4005d4:	fc 80       	pop25 $r6,#0    ! {$r6, $fp, $gp, $lp}

004005d6 <ATACmd_WriteBuff>:
  4005d6:	fc 00       	push25 $r6,#0    ! {$r6, $fp, $gp, $lp}
  4005d8:	84 41       	movi55 $r2,#0x1
  4005da:	3c 1c 13 e2 	lwi.gp $r1,[+#0x4f88]
  4005de:	3e 08 53 c8 	addi.gp $r0,#0x53c8
  4005e2:	50 10 82 31 	addi $r1,$r1,#0x231
  4005e6:	a8 41       	swi333 $r1,[$r0+#0x4]
  4005e8:	a8 83       	swi333 $r2,[$r0+#0xc]
  4005ea:	3e 0f c6 54 	addi.gp $r0,#-14764
  4005ee:	49 00 1b 6a 	jal 403cc2 <PRINT_HEX>
  4005f2:	84 0a       	movi55 $r0,#0xa
  4005f4:	84 20       	movi55 $r1,#0x0
  4005f6:	49 ff ff 33 	jal 40045c <ATACmd_CreatePioTask>
  4005fa:	fc 80       	pop25 $r6,#0    ! {$r6, $fp, $gp, $lp}

004005fc <ATACmd_ReadMultipleExt>:
  4005fc:	fc 00       	push25 $r6,#0    ! {$r6, $fp, $gp, $lp}
  4005fe:	3e 08 4e e8 	addi.gp $r0,#0x4ee8
  400602:	49 ff fe 3e 	jal 40027e <ATACmd_GetCountLba48>
  400606:	84 21       	movi55 $r1,#0x1
  400608:	49 ff ff 2a 	jal 40045c <ATACmd_CreatePioTask>
  40060c:	fc 80       	pop25 $r6,#0    ! {$r6, $fp, $gp, $lp}

0040060e <ATACmd_WriteMultiple>:
  40060e:	fc 00       	push25 $r6,#0    ! {$r6, $fp, $gp, $lp}
  400610:	3e 08 4e e8 	addi.gp $r0,#0x4ee8
  400614:	49 ff fe 10 	jal 400234 <ATACmd_GetCountLba28>
  400618:	84 20       	movi55 $r1,#0x0
  40061a:	49 ff ff 21 	jal 40045c <ATACmd_CreatePioTask>
  40061e:	fc 80       	pop25 $r6,#0    ! {$r6, $fp, $gp, $lp}

00400620 <ATACmd_WriteMultipleExt>:
  400620:	fc 00       	push25 $r6,#0    ! {$r6, $fp, $gp, $lp}
  400622:	3e 08 4e e8 	addi.gp $r0,#0x4ee8
  400626:	49 ff fe 2c 	jal 40027e <ATACmd_GetCountLba48>
  40062a:	84 20       	movi55 $r1,#0x0
  40062c:	49 ff ff 18 	jal 40045c <ATACmd_CreatePioTask>
  400630:	fc 80       	pop25 $r6,#0    ! {$r6, $fp, $gp, $lp}

00400632 <ATACmd_WriteMultipleFuaExt>:
  400632:	fc 00       	push25 $r6,#0    ! {$r6, $fp, $gp, $lp}
  400634:	3e 08 4e e8 	addi.gp $r0,#0x4ee8
  400638:	49 ff fe 23 	jal 40027e <ATACmd_GetCountLba48>
  40063c:	3e 28 53 d2 	addi.gp $r2,#0x53d2
  400640:	a4 50       	lhi333 $r1,[$r2+#0x0]
  400642:	54 10 87 ff 	andi $r1,$r1,#0x7ff
  400646:	58 10 88 00 	ori $r1,$r1,#0x800
  40064a:	ac 50       	shi333 $r1,[$r2+#0x0]
  40064c:	84 20       	movi55 $r1,#0x0
  40064e:	49 ff ff 07 	jal 40045c <ATACmd_CreatePioTask>
  400652:	fc 80       	pop25 $r6,#0    ! {$r6, $fp, $gp, $lp}

00400654 <ATACmd_DmaRwTaskComplete>:
  400654:	fc 00       	push25 $r6,#0    ! {$r6, $fp, $gp, $lp}
  400656:	e6 0a       	slti45 $r0,#0xa
  400658:	80 c0       	mov55 $r6,$r0
  40065a:	e8 08       	beqzs8 40066a <ATACmd_DmaRwTaskComplete+0x16>
  40065c:	49 ff fe 64 	jal 400324 <ATACmd_ReleaseCommand>
  400660:	3e 0f c6 5c 	addi.gp $r0,#-14756
  400664:	49 00 1a df 	jal 403c22 <PRINT_TXT>
  400668:	fc 80       	pop25 $r6,#0    ! {$r6, $fp, $gp, $lp}
  40066a:	49 00 0a 03 	jal 401a70 <DSATA_IsAutoSendEnabled>
  40066e:	c8 04       	bnez38 $r0,400676 <ATACmd_DmaRwTaskComplete+0x22>
  400670:	80 06       	mov55 $r0,$r6
  400672:	49 ff fe 59 	jal 400324 <ATACmd_ReleaseCommand>
  400676:	fc 80       	pop25 $r6,#0    ! {$r6, $fp, $gp, $lp}

00400678 <ATACmd_CreateDmaTask>:
  400678:	5a 10 0f 34 	beqc $r1,#0xf,4006e0 <ATACmd_CreateDmaTask+0x68>
  40067c:	fc 20       	push25 $r8,#0    ! {$r6~$r8, $fp, $gp, $lp}
  40067e:	e6 2a       	slti45 $r1,#0xa
  400680:	80 c2       	mov55 $r6,$r2
  400682:	80 e0       	mov55 $r7,$r0
  400684:	e9 2a       	bnezs8 4006d8 <ATACmd_CreateDmaTask+0x60>
  400686:	94 56       	slli333 $r1,$r2,#0x6
  400688:	ca 08       	bnez38 $r2,400698 <ATACmd_CreateDmaTask+0x20>
  40068a:	3c 00 21 c3 	lhi.gp $r0,[+#0x4386]
  40068e:	96 16       	bmski33 $r0,#0x2
  400690:	92 02       	srli45 $r0,#0x2
  400692:	40 00 24 08 	slli $r0,$r0,#0x9
  400696:	fe 47       	or33 $r1,$r0
  400698:	84 00       	movi55 $r0,#0x0
  40069a:	3c 2c 14 f5 	lwi.gp $r2,[+#0x53d4]
  40069e:	97 8f       	fexti33 $r6,#0x1
  4006a0:	80 62       	mov55 $r3,$r2
  4006a2:	40 41 24 08 	slli $r4,$r2,#0x9
  4006a6:	49 00 05 e6 	jal 401272 <DSATA_SetCmdHead>
  4006aa:	94 b6       	slli333 $r2,$r6,#0x6
  4006ac:	3c 60 29 e9 	lhi.gp $r6,[+#0x53d2]
  4006b0:	44 0f ff 3f 	movi $r0,#-193
  4006b4:	ff 86       	and33 $r6,$r0
  4006b6:	ff 97       	or33 $r6,$r2
  4006b8:	92 c6       	srli45 $r6,#0x6
  4006ba:	95 b6       	slli333 $r6,$r6,#0x6
  4006bc:	3c 68 29 e9 	shi.gp $r6,[+#0x53d2]
  4006c0:	3c 0c 13 e0 	lwi.gp $r0,[+#0x4f80]
  4006c4:	3c 0e 14 f6 	swi.gp $r0,[+#0x53d8]
  4006c8:	3e 2f 85 3c 	addi.gp $r2,#-31428
  4006cc:	80 07       	mov55 $r0,$r7
  4006ce:	3e 18 53 c8 	addi.gp $r1,#0x53c8
  4006d2:	49 00 18 60 	jal 403792 <TQM_CreateTask>
  4006d6:	fc a0       	pop25 $r8,#0    ! {$r6~$r8, $fp, $gp, $lp}
  4006d8:	80 01       	mov55 $r0,$r1
  4006da:	49 ff fe 25 	jal 400324 <ATACmd_ReleaseCommand>
  4006de:	fc a0       	pop25 $r8,#0    ! {$r6~$r8, $fp, $gp, $lp}
  4006e0:	dd 9e       	ret5 $lp

004006e2 <ATACmd_ReadBuffDma>:
  4006e2:	fc 00       	push25 $r6,#0    ! {$r6, $fp, $gp, $lp}
  4006e4:	84 c1       	movi55 $r6,#0x1
  4006e6:	3c 1c 13 e2 	lwi.gp $r1,[+#0x4f88]
  4006ea:	3e 08 53 c8 	addi.gp $r0,#0x53c8
  4006ee:	50 10 82 31 	addi $r1,$r1,#0x231
  4006f2:	a8 41       	swi333 $r1,[$r0+#0x4]
  4006f4:	a9 83       	swi333 $r6,[$r0+#0xc]
  4006f6:	3e 0f c6 54 	addi.gp $r0,#-14764
  4006fa:	49 00 1a e4 	jal 403cc2 <PRINT_HEX>
  4006fe:	84 00       	movi55 $r0,#0x0
  400700:	84 2b       	movi55 $r1,#0xb
  400702:	80 46       	mov55 $r2,$r6
  400704:	49 ff ff ba 	jal 400678 <ATACmd_CreateDmaTask>
  400708:	fc 80       	pop25 $r6,#0    ! {$r6, $fp, $gp, $lp}

0040070a <ATACmd_WriteBuffDma>:
  40070a:	fc 00       	push25 $r6,#0    ! {$r6, $fp, $gp, $lp}
  40070c:	84 41       	movi55 $r2,#0x1
  40070e:	3c 1c 13 e2 	lwi.gp $r1,[+#0x4f88]
  400712:	3e 08 53 c8 	addi.gp $r0,#0x53c8
  400716:	50 10 82 31 	addi $r1,$r1,#0x231
  40071a:	a8 41       	swi333 $r1,[$r0+#0x4]
  40071c:	a8 83       	swi333 $r2,[$r0+#0xc]
  40071e:	3e 0f c6 54 	addi.gp $r0,#-14764
  400722:	49 00 1a d0 	jal 403cc2 <PRINT_HEX>
  400726:	84 00       	movi55 $r0,#0x0
  400728:	84 2b       	movi55 $r1,#0xb
  40072a:	80 40       	mov55 $r2,$r0
  40072c:	49 ff ff a6 	jal 400678 <ATACmd_CreateDmaTask>
  400730:	fc 80       	pop25 $r6,#0    ! {$r6, $fp, $gp, $lp}

00400732 <ATACmd_WriteDma>:
  400732:	fc 01       	push25 $r6,#8    ! {$r6, $fp, $gp, $lp}
  400734:	3e 08 4e e8 	addi.gp $r0,#0x4ee8
  400738:	49 ff fd 7e 	jal 400234 <ATACmd_GetCountLba28>
  40073c:	f0 81       	swi37.sp $r0,[+#0x4]
  40073e:	84 00       	movi55 $r0,#0x0
  400740:	f1 01       	lwi37.sp $r1,[+#0x4]
  400742:	80 40       	mov55 $r2,$r0
  400744:	49 ff ff 9a 	jal 400678 <ATACmd_CreateDmaTask>
  400748:	fc 81       	pop25 $r6,#8    ! {$r6, $fp, $gp, $lp}

0040074a <ATACmd_ReadDma>:
  40074a:	fc 01       	push25 $r6,#8    ! {$r6, $fp, $gp, $lp}
  40074c:	3e 08 4e e8 	addi.gp $r0,#0x4ee8
  400750:	49 ff fd 72 	jal 400234 <ATACmd_GetCountLba28>
  400754:	f0 81       	swi37.sp $r0,[+#0x4]
  400756:	f1 01       	lwi37.sp $r1,[+#0x4]
  400758:	84 00       	movi55 $r0,#0x0
  40075a:	84 41       	movi55 $r2,#0x1
  40075c:	49 ff ff 8e 	jal 400678 <ATACmd_CreateDmaTask>
  400760:	fc 81       	pop25 $r6,#8    ! {$r6, $fp, $gp, $lp}

00400762 <ATACmd_WriteDmaExt>:
  400762:	fc 01       	push25 $r6,#8    ! {$r6, $fp, $gp, $lp}
  400764:	3e 08 4e e8 	addi.gp $r0,#0x4ee8
  400768:	49 ff fd 8b 	jal 40027e <ATACmd_GetCountLba48>
  40076c:	f0 81       	swi37.sp $r0,[+#0x4]
  40076e:	84 00       	movi55 $r0,#0x0
  400770:	f1 01       	lwi37.sp $r1,[+#0x4]
  400772:	80 40       	mov55 $r2,$r0
  400774:	49 ff ff 82 	jal 400678 <ATACmd_CreateDmaTask>
  400778:	fc 81       	pop25 $r6,#8    ! {$r6, $fp, $gp, $lp}

0040077a <ATACmd_WriteDmaFuaExt>:
  40077a:	fc 01       	push25 $r6,#8    ! {$r6, $fp, $gp, $lp}
  40077c:	3e 08 4e e8 	addi.gp $r0,#0x4ee8
  400780:	49 ff fd 7f 	jal 40027e <ATACmd_GetCountLba48>
  400784:	3e 18 53 d2 	addi.gp $r1,#0x53d2
  400788:	f0 81       	swi37.sp $r0,[+#0x4]
  40078a:	a4 08       	lhi333 $r0,[$r1+#0x0]
  40078c:	54 00 07 ff 	andi $r0,$r0,#0x7ff
  400790:	58 00 08 00 	ori $r0,$r0,#0x800
  400794:	ac 08       	shi333 $r0,[$r1+#0x0]
  400796:	84 00       	movi55 $r0,#0x0
  400798:	f1 01       	lwi37.sp $r1,[+#0x4]
  40079a:	80 40       	mov55 $r2,$r0
  40079c:	49 ff ff 6e 	jal 400678 <ATACmd_CreateDmaTask>
  4007a0:	fc 81       	pop25 $r6,#8    ! {$r6, $fp, $gp, $lp}

004007a2 <ATACmd_ReadDmaExt>:
  4007a2:	fc 01       	push25 $r6,#8    ! {$r6, $fp, $gp, $lp}
  4007a4:	3e 08 4e e8 	addi.gp $r0,#0x4ee8
  4007a8:	49 ff fd 6b 	jal 40027e <ATACmd_GetCountLba48>
  4007ac:	f0 81       	swi37.sp $r0,[+#0x4]
  4007ae:	f1 01       	lwi37.sp $r1,[+#0x4]
  4007b0:	84 00       	movi55 $r0,#0x0
  4007b2:	84 41       	movi55 $r2,#0x1
  4007b4:	49 ff ff 62 	jal 400678 <ATACmd_CreateDmaTask>
  4007b8:	fc 81       	pop25 $r6,#8    ! {$r6, $fp, $gp, $lp}

004007ba <ATACmd_Refuse>:
  4007ba:	fc 00       	push25 $r6,#0    ! {$r6, $fp, $gp, $lp}
  4007bc:	84 02       	movi55 $r0,#0x2
  4007be:	49 ff fd b3 	jal 400324 <ATACmd_ReleaseCommand>
  4007c2:	3e 0f c6 64 	addi.gp $r0,#-14748
  4007c6:	49 00 1a 2e 	jal 403c22 <PRINT_TXT>
  4007ca:	fc 80       	pop25 $r6,#0    ! {$r6, $fp, $gp, $lp}

004007cc <ATACmd_LogAddr2Lba>:
  4007cc:	5a 28 01 05 	bnec $r2,#0x1,4007d6 <ATACmd_LogAddr2Lba+0xa>
  4007d0:	a0 03       	lwi333 $r0,[$r0+#0xc]
  4007d2:	96 00       	zeb33 $r0,$r0
  4007d4:	d5 06       	j8 4007e0 <ATACmd_LogAddr2Lba+0x14>
  4007d6:	a6 45       	lbi333 $r1,[$r0+#0x5]
  4007d8:	00 10 00 09 	lbi $r1,[$r0+#0x9]
  4007dc:	a0 03       	lwi333 $r0,[$r0+#0xc]
  4007de:	96 01       	zeh33 $r0,$r0
  4007e0:	c0 08       	beqz38 $r0,4007f0 <ATACmd_LogAddr2Lba+0x24>
  4007e2:	84 20       	movi55 $r1,#0x0
  4007e4:	3c 1e 14 f3 	swi.gp $r1,[+#0x53cc]
  4007e8:	3c 0e 14 f5 	swi.gp $r0,[+#0x53d4]
  4007ec:	84 0b       	movi55 $r0,#0xb
  4007ee:	dd 9e       	ret5 $lp
  4007f0:	84 02       	movi55 $r0,#0x2
  4007f2:	dd 9e       	ret5 $lp

004007f4 <ATACmd_WriteLogExt>:
  4007f4:	fc 00       	push25 $r6,#0    ! {$r6, $fp, $gp, $lp}
  4007f6:	84 21       	movi55 $r1,#0x1
  4007f8:	84 40       	movi55 $r2,#0x0
  4007fa:	3e 08 4e e8 	addi.gp $r0,#0x4ee8
  4007fe:	49 ff ff e7 	jal 4007cc <ATACmd_LogAddr2Lba>
  400802:	84 20       	movi55 $r1,#0x0
  400804:	49 ff fe 2c 	jal 40045c <ATACmd_CreatePioTask>
  400808:	fc 80       	pop25 $r6,#0    ! {$r6, $fp, $gp, $lp}

0040080a <ATACmd_ReadLogDmaExt>:
  40080a:	fc 01       	push25 $r6,#8    ! {$r6, $fp, $gp, $lp}
  40080c:	84 20       	movi55 $r1,#0x0
  40080e:	80 41       	mov55 $r2,$r1
  400810:	3e 08 4e e8 	addi.gp $r0,#0x4ee8
  400814:	49 ff ff dc 	jal 4007cc <ATACmd_LogAddr2Lba>
  400818:	f0 81       	swi37.sp $r0,[+#0x4]
  40081a:	f1 01       	lwi37.sp $r1,[+#0x4]
  40081c:	84 00       	movi55 $r0,#0x0
  40081e:	84 41       	movi55 $r2,#0x1
  400820:	49 ff ff 2c 	jal 400678 <ATACmd_CreateDmaTask>
  400824:	fc 81       	pop25 $r6,#8    ! {$r6, $fp, $gp, $lp}

00400826 <ATACmd_WriteLogDmaExt>:
  400826:	fc 01       	push25 $r6,#8    ! {$r6, $fp, $gp, $lp}
  400828:	84 21       	movi55 $r1,#0x1
  40082a:	84 40       	movi55 $r2,#0x0
  40082c:	3e 08 4e e8 	addi.gp $r0,#0x4ee8
  400830:	49 ff ff ce 	jal 4007cc <ATACmd_LogAddr2Lba>
  400834:	f0 81       	swi37.sp $r0,[+#0x4]
  400836:	84 00       	movi55 $r0,#0x0
  400838:	f1 01       	lwi37.sp $r1,[+#0x4]
  40083a:	80 40       	mov55 $r2,$r0
  40083c:	49 ff ff 1e 	jal 400678 <ATACmd_CreateDmaTask>
  400840:	fc 81       	pop25 $r6,#8    ! {$r6, $fp, $gp, $lp}

00400842 <Update_IdfyParam>:
  400842:	3c 00 21 d9 	lhi.gp $r0,[+#0x43b2]
  400846:	3c 10 21 d8 	lhi.gp $r1,[+#0x43b0]
  40084a:	40 00 40 08 	slli $r0,$r0,#0x10
  40084e:	88 01       	add45 $r0,$r1
  400850:	3c 0e 13 cf 	swi.gp $r0,[+#0x4f3c]
  400854:	84 21       	movi55 $r1,#0x1
  400856:	3e 10 4f 4a 	sbi.gp $r1,[+#0x4f4a]
  40085a:	3c 20 21 c0 	lhi.gp $r2,[+#0x4380]
  40085e:	54 21 0f ff 	andi $r2,$r2,#0xfff
  400862:	3c 10 21 c2 	lhi.gp $r1,[+#0x4384]
  400866:	58 21 32 00 	ori $r2,$r2,#0x3200
  40086a:	58 10 80 08 	ori $r1,$r1,#0x8
  40086e:	3c 18 21 c2 	shi.gp $r1,[+#0x4384]
  400872:	3c 30 21 c3 	lhi.gp $r3,[+#0x4386]
  400876:	84 37       	movi55 $r1,#-9
  400878:	fe 5e       	and33 $r1,$r3
  40087a:	3c 18 21 c3 	shi.gp $r1,[+#0x4386]
  40087e:	3c 28 21 c0 	shi.gp $r2,[+#0x4380]
  400882:	46 20 0f bf 	sethi $r2,#0xfbf
  400886:	50 21 0f ff 	addi $r2,$r2,#0xfff
  40088a:	e2 40       	slt45 $r2,$r0
  40088c:	e8 04       	beqzs8 400894 <Update_IdfyParam+0x52>
  40088e:	44 20 3f ff 	movi $r2,#0x3fff
  400892:	d5 03       	j8 400898 <Update_IdfyParam+0x56>
  400894:	40 20 40 09 	srli $r2,$r0,#0x10
  400898:	3c 28 21 75 	shi.gp $r2,[+#0x42ea]
  40089c:	84 41       	movi55 $r2,#0x1
  40089e:	3e 20 4f 47 	sbi.gp $r2,[+#0x4f47]
  4008a2:	fa 4f       	movpi45 $r2,#0x1f
  4008a4:	3c 28 21 bf 	shi.gp $r2,[+#0x437e]
  4008a8:	46 20 05 e1 	sethi $r2,#0x5e1
  4008ac:	fa 6f       	movpi45 $r3,#0x1f
  4008ae:	14 01 00 cf 	swi $r0,[$r2+#0x33c]
  4008b2:	14 31 00 d1 	swi $r3,[$r2+#0x344]
  4008b6:	2e 20 4f 4b 	lbi.gp $r2,[+#0x4f4b]
  4008ba:	5a 28 01 06 	bnec $r2,#0x1,4008c6 <Update_IdfyParam+0x84>
  4008be:	58 10 80 08 	ori $r1,$r1,#0x8
  4008c2:	3c 18 21 c3 	shi.gp $r1,[+#0x4386]
  4008c6:	3c 0e 13 d0 	swi.gp $r0,[+#0x4f40]
  4008ca:	2e 00 44 0a 	lbi.gp $r0,[+#0x440a]
  4008ce:	5a 08 01 04 	bnec $r0,#0x1,4008d6 <Update_IdfyParam+0x94>
  4008d2:	84 0e       	movi55 $r0,#0xe
  4008d4:	d5 03       	j8 4008da <Update_IdfyParam+0x98>
  4008d6:	c8 04       	bnez38 $r0,4008de <Update_IdfyParam+0x9c>
  4008d8:	84 0c       	movi55 $r0,#0xc
  4008da:	3e 00 44 1c 	sbi.gp $r0,[+#0x441c]
  4008de:	dd 9e       	ret5 $lp

004008e0 <UpdateCheckSum>:
  4008e0:	fc 00       	push25 $r6,#0    ! {$r6, $fp, $gp, $lp}
  4008e2:	8e 21       	subi45 $r1,#0x1
  4008e4:	99 81       	add333 $r6,$r0,$r1
  4008e6:	49 00 1b d0 	jal 404086 <GetSum>
  4008ea:	fe 02       	neg33 $r0,$r0
  4008ec:	ae 30       	sbi333 $r0,[$r6+#0x0]
  4008ee:	fc 80       	pop25 $r6,#0    ! {$r6, $fp, $gp, $lp}

004008f0 <ATACmd_CheckPowerMode>:
  4008f0:	fc 00       	push25 $r6,#0    ! {$r6, $fp, $gp, $lp}
  4008f2:	3c 0c 13 c4 	lwi.gp $r0,[+#0x4f10]
  4008f6:	5a 08 03 04 	bnec $r0,#0x3,4008fe <ATACmd_CheckPowerMode+0xe>
  4008fa:	84 00       	movi55 $r0,#0x0
  4008fc:	d5 04       	j8 400904 <ATACmd_CheckPowerMode+0x14>
  4008fe:	e6 02       	slti45 $r0,#0x2
  400900:	e8 04       	beqzs8 400908 <ATACmd_CheckPowerMode+0x18>
  400902:	84 1f       	movi55 $r0,#-1
  400904:	3e 00 4e f4 	sbi.gp $r0,[+#0x4ef4]
  400908:	84 0a       	movi55 $r0,#0xa
  40090a:	49 ff fd 0d 	jal 400324 <ATACmd_ReleaseCommand>
  40090e:	fc 80       	pop25 $r6,#0    ! {$r6, $fp, $gp, $lp}

00400910 <UpdateStanbyTimerCount>:
  400910:	84 01       	movi55 $r0,#0x1
  400912:	3e 00 53 54 	sbi.gp $r0,[+#0x5354]
  400916:	2e 00 4e f4 	lbi.gp $r0,[+#0x4ef4]
  40091a:	96 00       	zeb33 $r0,$r0
  40091c:	c8 08       	bnez38 $r0,40092c <UpdateStanbyTimerCount+0x1c>
  40091e:	3c 0e 14 d3 	swi.gp $r0,[+#0x534c]
  400922:	3e 00 53 54 	sbi.gp $r0,[+#0x5354]
  400926:	3c 0e 14 d4 	swi.gp $r0,[+#0x5350]
  40092a:	d5 0f       	j8 400948 <UpdateStanbyTimerCount+0x38>
  40092c:	2e 00 4e f4 	lbi.gp $r0,[+#0x4ef4]
  400930:	c0 0e       	beqz38 $r0,40094c <UpdateStanbyTimerCount+0x3c>
  400932:	2e 00 4e f4 	lbi.gp $r0,[+#0x4ef4]
  400936:	5c f0 00 f1 	slti $r15,$r0,#0xf1
  40093a:	e8 09       	beqzs8 40094c <UpdateStanbyTimerCount+0x3c>
  40093c:	2e 10 4e f4 	lbi.gp $r1,[+#0x4ef4]
  400940:	84 05       	movi55 $r0,#0x5
  400942:	fe 0c       	mul33 $r0,$r1
  400944:	3c 0e 14 d3 	swi.gp $r0,[+#0x534c]
  400948:	84 0b       	movi55 $r0,#0xb
  40094a:	d5 2f       	j8 4009a8 <UpdateStanbyTimerCount+0x98>
  40094c:	2e 00 4e f4 	lbi.gp $r0,[+#0x4ef4]
  400950:	5c f0 00 f1 	slti $r15,$r0,#0xf1
  400954:	e9 0d       	bnezs8 40096e <UpdateStanbyTimerCount+0x5e>
  400956:	2e 00 4e f4 	lbi.gp $r0,[+#0x4ef4]
  40095a:	5c f0 00 fc 	slti $r15,$r0,#0xfc
  40095e:	e8 08       	beqzs8 40096e <UpdateStanbyTimerCount+0x5e>
  400960:	44 10 07 08 	movi $r1,#0x708
  400964:	2e 00 4e f4 	lbi.gp $r0,[+#0x4ef4]
  400968:	50 00 7f 10 	addi $r0,$r0,#-240
  40096c:	d5 eb       	j8 400942 <UpdateStanbyTimerCount+0x32>
  40096e:	2e 00 4e f4 	lbi.gp $r0,[+#0x4ef4]
  400972:	5a 08 fc 05 	bnec $r0,#0xfc,40097c <UpdateStanbyTimerCount+0x6c>
  400976:	44 00 04 ec 	movi $r0,#0x4ec
  40097a:	d5 e5       	j8 400944 <UpdateStanbyTimerCount+0x34>
  40097c:	2e 00 4e f4 	lbi.gp $r0,[+#0x4ef4]
  400980:	5a 08 fd 05 	bnec $r0,#0xfd,40098a <UpdateStanbyTimerCount+0x7a>
  400984:	44 00 70 80 	movi $r0,#0x7080
  400988:	d5 de       	j8 400944 <UpdateStanbyTimerCount+0x34>
  40098a:	2e 00 4e f4 	lbi.gp $r0,[+#0x4ef4]
  40098e:	5a 08 ff 05 	bnec $r0,#0xff,400998 <UpdateStanbyTimerCount+0x88>
  400992:	44 00 04 fb 	movi $r0,#0x4fb
  400996:	d5 d7       	j8 400944 <UpdateStanbyTimerCount+0x34>
  400998:	84 00       	movi55 $r0,#0x0
  40099a:	3c 0e 14 d3 	swi.gp $r0,[+#0x534c]
  40099e:	3e 00 53 54 	sbi.gp $r0,[+#0x5354]
  4009a2:	3c 0e 14 d4 	swi.gp $r0,[+#0x5350]
  4009a6:	84 02       	movi55 $r0,#0x2
  4009a8:	44 10 03 e8 	movi $r1,#0x3e8
  4009ac:	3c 2c 14 d3 	lwi.gp $r2,[+#0x534c]
  4009b0:	fe 54       	mul33 $r1,$r2
  4009b2:	3c 1e 14 d3 	swi.gp $r1,[+#0x534c]
  4009b6:	dd 9e       	ret5 $lp

004009b8 <ATACmd_Idle>:
  4009b8:	fc 00       	push25 $r6,#0    ! {$r6, $fp, $gp, $lp}
  4009ba:	49 ff ff ab 	jal 400910 <UpdateStanbyTimerCount>
  4009be:	5a 08 0b 06 	bnec $r0,#0xb,4009ca <ATACmd_Idle+0x12>
  4009c2:	84 00       	movi55 $r0,#0x0
  4009c4:	3c 0e 14 f6 	swi.gp $r0,[+#0x53d8]
  4009c8:	84 0a       	movi55 $r0,#0xa
  4009ca:	49 ff fc ad 	jal 400324 <ATACmd_ReleaseCommand>
  4009ce:	fc 80       	pop25 $r6,#0    ! {$r6, $fp, $gp, $lp}

004009d0 <ATACmd_IdleImmediate>:
  4009d0:	fc 00       	push25 $r6,#0    ! {$r6, $fp, $gp, $lp}
  4009d2:	84 00       	movi55 $r0,#0x0
  4009d4:	3c 0e 14 f6 	swi.gp $r0,[+#0x53d8]
  4009d8:	84 0a       	movi55 $r0,#0xa
  4009da:	49 ff fc a5 	jal 400324 <ATACmd_ReleaseCommand>
  4009de:	fc 80       	pop25 $r6,#0    ! {$r6, $fp, $gp, $lp}

004009e0 <ATACmd_Sleep>:
  4009e0:	fc 00       	push25 $r6,#0    ! {$r6, $fp, $gp, $lp}
  4009e2:	46 00 05 e1 	sethi $r0,#0x5e1
  4009e6:	84 20       	movi55 $r1,#0x0
  4009e8:	14 10 00 cd 	swi $r1,[$r0+#0x334]
  4009ec:	84 02       	movi55 $r0,#0x2
  4009ee:	3c 0e 14 f6 	swi.gp $r0,[+#0x53d8]
  4009f2:	84 0a       	movi55 $r0,#0xa
  4009f4:	49 ff fc 98 	jal 400324 <ATACmd_ReleaseCommand>
  4009f8:	fc 80       	pop25 $r6,#0    ! {$r6, $fp, $gp, $lp}

004009fa <ATACmd_Standby>:
  4009fa:	fc 00       	push25 $r6,#0    ! {$r6, $fp, $gp, $lp}
  4009fc:	49 ff ff 8a 	jal 400910 <UpdateStanbyTimerCount>
  400a00:	5a 08 0b 05 	bnec $r0,#0xb,400a0a <ATACmd_Standby+0x10>
  400a04:	84 23       	movi55 $r1,#0x3
  400a06:	3c 1e 14 f6 	swi.gp $r1,[+#0x53d8]
  400a0a:	49 ff fc 8d 	jal 400324 <ATACmd_ReleaseCommand>
  400a0e:	fc 80       	pop25 $r6,#0    ! {$r6, $fp, $gp, $lp}

00400a10 <ATACmd_StandbyImmediate>:
  400a10:	fc 00       	push25 $r6,#0    ! {$r6, $fp, $gp, $lp}
  400a12:	84 03       	movi55 $r0,#0x3
  400a14:	3c 0e 14 f6 	swi.gp $r0,[+#0x53d8]
  400a18:	84 0a       	movi55 $r0,#0xa
  400a1a:	49 ff fc 85 	jal 400324 <ATACmd_ReleaseCommand>
  400a1e:	fc 80       	pop25 $r6,#0    ! {$r6, $fp, $gp, $lp}

00400a20 <ATACmd_SecurityFreezeLock>:
  400a20:	fc 00       	push25 $r6,#0    ! {$r6, $fp, $gp, $lp}
  400a22:	84 01       	movi55 $r0,#0x1
  400a24:	3e 00 4f 50 	sbi.gp $r0,[+#0x4f50]
  400a28:	3e 18 42 e8 	addi.gp $r1,#0x42e8
  400a2c:	02 00 80 80 	lhi $r0,[$r1+#0x100]
  400a30:	58 00 00 08 	ori $r0,$r0,#0x8
  400a34:	12 00 80 80 	shi $r0,[$r1+#0x100]
  400a38:	84 0e       	movi55 $r0,#0xe
  400a3a:	49 ff fc 75 	jal 400324 <ATACmd_ReleaseCommand>
  400a3e:	fc 80       	pop25 $r6,#0    ! {$r6, $fp, $gp, $lp}

00400a40 <DMAC_DMA1Init>:
  400a40:	46 00 05 e2 	sethi $r0,#0x5e2
  400a44:	00 10 01 01 	lbi $r1,[$r0+#0x101]
  400a48:	58 10 80 01 	ori $r1,$r1,#0x1
  400a4c:	10 10 01 01 	sbi $r1,[$r0+#0x101]
  400a50:	00 10 01 01 	lbi $r1,[$r0+#0x101]
  400a54:	54 10 80 fb 	andi $r1,$r1,#0xfb
  400a58:	10 10 01 01 	sbi $r1,[$r0+#0x101]
  400a5c:	00 10 01 01 	lbi $r1,[$r0+#0x101]
  400a60:	54 10 80 fd 	andi $r1,$r1,#0xfd
  400a64:	10 10 01 01 	sbi $r1,[$r0+#0x101]
  400a68:	02 10 00 81 	lhi $r1,[$r0+#0x102]
  400a6c:	92 2d       	srli45 $r1,#0xd
  400a6e:	40 10 b4 08 	slli $r1,$r1,#0xd
  400a72:	58 10 82 00 	ori $r1,$r1,#0x200
  400a76:	12 10 00 81 	shi $r1,[$r0+#0x102]
  400a7a:	84 20       	movi55 $r1,#0x0
  400a7c:	50 30 01 04 	addi $r3,$r0,#0x104
  400a80:	a8 59       	swi333 $r1,[$r3+#0x4]
  400a82:	a8 5a       	swi333 $r1,[$r3+#0x8]
  400a84:	b4 43       	lwi450 $r2,[$r3]
  400a86:	44 1e ff ff 	movi $r1,#-65537
  400a8a:	fe 56       	and33 $r1,$r2
  400a8c:	b6 23       	swi450 $r1,[$r3]
  400a8e:	b4 43       	lwi450 $r2,[$r3]
  400a90:	46 1f ef ff 	sethi $r1,#0xfefff
  400a94:	50 10 8f ff 	addi $r1,$r1,#0xfff
  400a98:	fe 56       	and33 $r1,$r2
  400a9a:	b6 23       	swi450 $r1,[$r3]
  400a9c:	b4 43       	lwi450 $r2,[$r3]
  400a9e:	46 1f df ff 	sethi $r1,#0xfdfff
  400aa2:	50 10 8f ff 	addi $r1,$r1,#0xfff
  400aa6:	fe 56       	and33 $r1,$r2
  400aa8:	b6 23       	swi450 $r1,[$r3]
  400aaa:	dd 9e       	ret5 $lp

00400aac <DMAC_DMA1WaitDone>:
  400aac:	46 20 05 e2 	sethi $r2,#0x5e2
  400ab0:	3c 1c 13 ca 	lwi.gp $r1,[+#0x4f28]
  400ab4:	04 01 00 41 	lwi $r0,[$r2+#0x104]
  400ab8:	96 06       	bmski33 $r0,#0x0
  400aba:	c8 0a       	bnez38 $r0,400ace <DMAC_DMA1WaitDone+0x22>
  400abc:	3c 0c 13 ca 	lwi.gp $r0,[+#0x4f28]
  400ac0:	8a 01       	sub45 $r0,$r1
  400ac2:	5c f0 0b b8 	slti $r15,$r0,#0xbb8
  400ac6:	e9 f7       	bnezs8 400ab4 <DMAC_DMA1WaitDone+0x8>
  400ac8:	3c 1c 13 ca 	lwi.gp $r1,[+#0x4f28]
  400acc:	d5 f4       	j8 400ab4 <DMAC_DMA1WaitDone+0x8>
  400ace:	dd 9e       	ret5 $lp

00400ad0 <WaitBuffStatusClr>:
  400ad0:	46 10 05 e2 	sethi $r1,#0x5e2
  400ad4:	84 00       	movi55 $r0,#0x0
  400ad6:	80 61       	mov55 $r3,$r1
  400ad8:	02 20 80 10 	lhi $r2,[$r1+#0x20]
  400adc:	e2 02       	slt45 $r0,$r2
  400ade:	e8 11       	beqzs8 400b00 <WaitBuffStatusClr+0x30>
  400ae0:	ac 0e       	shi333 $r0,[$r1+#0xc]
  400ae2:	b4 41       	lwi450 $r2,[$r1]
  400ae4:	58 21 00 01 	ori $r2,$r2,#0x1
  400ae8:	b6 41       	swi450 $r2,[$r1]
  400aea:	64 00 00 08 	dsb
  400aee:	b4 43       	lwi450 $r2,[$r3]
  400af0:	96 86       	bmski33 $r2,#0x0
  400af2:	ca fe       	bnez38 $r2,400aee <WaitBuffStatusClr+0x1e>
  400af4:	02 21 80 0a 	lhi $r2,[$r3+#0x14]
  400af8:	ca f4       	bnez38 $r2,400ae0 <WaitBuffStatusClr+0x10>
  400afa:	8c 10       	addi45 $r0,#0x10
  400afc:	96 01       	zeh33 $r0,$r0
  400afe:	d5 ed       	j8 400ad8 <WaitBuffStatusClr+0x8>
  400b00:	dd 9e       	ret5 $lp

00400b02 <DMAC_DMA1Start>:
  400b02:	fc 40       	push25 $r10,#0    ! {$r6~$r10, $fp, $gp, $lp}
  400b04:	46 80 05 e2 	sethi $r8,#0x5e2
  400b08:	80 c0       	mov55 $r6,$r0
  400b0a:	04 04 00 40 	lwi $r0,[$r8+#0x100]
  400b0e:	81 41       	mov55 $r10,$r1
  400b10:	92 03       	srli45 $r0,#0x3
  400b12:	96 06       	bmski33 $r0,#0x0
  400b14:	81 22       	mov55 $r9,$r2
  400b16:	80 e4       	mov55 $r7,$r4
  400b18:	c0 28       	beqz38 $r0,400b68 <DMAC_DMA1Start+0x66>
  400b1a:	49 ff ff db 	jal 400ad0 <WaitBuffStatusClr>
  400b1e:	50 84 02 00 	addi $r8,$r8,#0x200
  400b22:	04 04 00 05 	lwi $r0,[$r8+#0x14]
  400b26:	92 02       	srli45 $r0,#0x2
  400b28:	96 06       	bmski33 $r0,#0x0
  400b2a:	c0 fc       	beqz38 $r0,400b22 <DMAC_DMA1Start+0x20>
  400b2c:	46 20 05 e2 	sethi $r2,#0x5e2
  400b30:	50 21 04 00 	addi $r2,$r2,#0x400
  400b34:	a0 15       	lwi333 $r0,[$r2+#0x14]
  400b36:	46 10 05 e2 	sethi $r1,#0x5e2
  400b3a:	92 02       	srli45 $r0,#0x2
  400b3c:	96 06       	bmski33 $r0,#0x0
  400b3e:	c0 fb       	beqz38 $r0,400b34 <DMAC_DMA1Start+0x32>
  400b40:	50 20 86 00 	addi $r2,$r1,#0x600
  400b44:	a0 15       	lwi333 $r0,[$r2+#0x14]
  400b46:	92 02       	srli45 $r0,#0x2
  400b48:	96 06       	bmski33 $r0,#0x0
  400b4a:	c0 fd       	beqz38 $r0,400b44 <DMAC_DMA1Start+0x42>
  400b4c:	50 10 88 00 	addi $r1,$r1,#0x800
  400b50:	a0 cd       	lwi333 $r3,[$r1+#0x14]
  400b52:	46 20 05 e2 	sethi $r2,#0x5e2
  400b56:	92 62       	srli45 $r3,#0x2
  400b58:	96 c6       	bmski33 $r3,#0x0
  400b5a:	c3 fb       	beqz38 $r3,400b50 <DMAC_DMA1Start+0x4e>
  400b5c:	00 01 01 00 	lbi $r0,[$r2+#0x100]
  400b60:	54 00 00 f7 	andi $r0,$r0,#0xf7
  400b64:	10 01 01 00 	sbi $r0,[$r2+#0x100]
  400b68:	46 30 05 e2 	sethi $r3,#0x5e2
  400b6c:	80 23       	mov55 $r1,$r3
  400b6e:	14 a1 80 49 	swi $r10,[$r3+#0x124]
  400b72:	14 91 80 43 	swi $r9,[$r3+#0x10c]
  400b76:	14 71 80 42 	swi $r7,[$r3+#0x108]
  400b7a:	00 01 81 00 	lbi $r0,[$r3+#0x100]
  400b7e:	5a 68 01 05 	bnec $r6,#0x1,400b88 <DMAC_DMA1Start+0x86>
  400b82:	54 00 00 fd 	andi $r0,$r0,#0xfd
  400b86:	d5 03       	j8 400b8c <DMAC_DMA1Start+0x8a>
  400b88:	58 00 00 02 	ori $r0,$r0,#0x2
  400b8c:	10 00 81 00 	sbi $r0,[$r1+#0x100]
  400b90:	64 00 00 08 	dsb
  400b94:	00 00 81 00 	lbi $r0,[$r1+#0x100]
  400b98:	58 00 00 01 	ori $r0,$r0,#0x1
  400b9c:	10 00 81 00 	sbi $r0,[$r1+#0x100]
  400ba0:	fc c0       	pop25 $r10,#0    ! {$r6~$r10, $fp, $gp, $lp}

00400ba2 <StanbyEventDone>:
  400ba2:	fc 00       	push25 $r6,#0    ! {$r6, $fp, $gp, $lp}
  400ba4:	fa 12       	movpi45 $r0,#0x22
  400ba6:	ae 08       	sbi333 $r0,[$r1+#0x0]
  400ba8:	84 00       	movi55 $r0,#0x0
  400baa:	a8 0f       	swi333 $r0,[$r1+#0x1c]
  400bac:	a6 09       	lbi333 $r0,[$r1+#0x1]
  400bae:	5a 00 02 05 	beqc $r0,#0x2,400bb8 <StanbyEventDone+0x16>
  400bb2:	84 03       	movi55 $r0,#0x3
  400bb4:	3c 0e 13 c4 	swi.gp $r0,[+#0x4f10]
  400bb8:	3e 0f c8 70 	addi.gp $r0,#-14224
  400bbc:	49 00 18 33 	jal 403c22 <PRINT_TXT>
  400bc0:	fc 80       	pop25 $r6,#0    ! {$r6, $fp, $gp, $lp}

00400bc2 <DSATA_Init>:
  400bc2:	fc 00       	push25 $r6,#0    ! {$r6, $fp, $gp, $lp}
  400bc4:	46 10 05 e1 	sethi $r1,#0x5e1
  400bc8:	c8 53       	bnez38 $r0,400c6e <DSATA_Init+0xac>
  400bca:	46 60 05 e0 	sethi $r6,#0x5e0
  400bce:	84 02       	movi55 $r0,#0x2
  400bd0:	10 03 00 40 	sbi $r0,[$r6+#0x40]
  400bd4:	84 01       	movi55 $r0,#0x1
  400bd6:	10 03 00 34 	sbi $r0,[$r6+#0x34]
  400bda:	a0 89       	lwi333 $r2,[$r1+#0x4]
  400bdc:	84 1d       	movi55 $r0,#-3
  400bde:	fe 16       	and33 $r0,$r2
  400be0:	a8 09       	swi333 $r0,[$r1+#0x4]
  400be2:	a0 09       	lwi333 $r0,[$r1+#0x4]
  400be4:	58 00 00 01 	ori $r0,$r0,#0x1
  400be8:	a8 09       	swi333 $r0,[$r1+#0x4]
  400bea:	83 86       	mov55 $fp,$r6
  400bec:	b9 1e       	lwi37 $r1,[$fp+#0x78]
  400bee:	46 0f 7f ff 	sethi $r0,#0xf7fff
  400bf2:	50 00 0f ff 	addi $r0,$r0,#0xfff
  400bf6:	fe 0e       	and33 $r0,$r1
  400bf8:	b8 9e       	swi37 $r0,[$fp+#0x78]
  400bfa:	b9 1e       	lwi37 $r1,[$fp+#0x78]
  400bfc:	46 0b ff ff 	sethi $r0,#0xbffff
  400c00:	50 00 0f ff 	addi $r0,$r0,#0xfff
  400c04:	fe 0e       	and33 $r0,$r1
  400c06:	b8 9e       	swi37 $r0,[$fp+#0x78]
  400c08:	64 00 00 08 	dsb
  400c0c:	49 00 18 9b 	jal 403d42 <__enable_performance>
  400c10:	04 03 00 1e 	lwi $r0,[$r6+#0x78]
  400c14:	92 1e       	srli45 $r0,#0x1e
  400c16:	96 06       	bmski33 $r0,#0x0
  400c18:	c8 18       	bnez38 $r0,400c48 <DSATA_Init+0x86>
  400c1a:	49 00 18 a0 	jal 403d5a <__get_pfm_count>
  400c1e:	5c f0 00 64 	slti $r15,$r0,#0x64
  400c22:	e9 f7       	bnezs8 400c10 <DSATA_Init+0x4e>
  400c24:	49 00 18 9e 	jal 403d60 <__disbale_performance>
  400c28:	46 00 05 e1 	sethi $r0,#0x5e1
  400c2c:	44 10 00 5a 	movi $r1,#0x5a
  400c30:	83 80       	mov55 $fp,$r0
  400c32:	b9 dc       	swi37 $r1,[$fp+#0x170]
  400c34:	84 21       	movi55 $r1,#0x1
  400c36:	b9 f4       	swi37 $r1,[$fp+#0x1d0]
  400c38:	b9 f3       	swi37 $r1,[$fp+#0x1cc]
  400c3a:	84 2f       	movi55 $r1,#0xf
  400c3c:	b9 f5       	swi37 $r1,[$fp+#0x1d4]
  400c3e:	49 00 18 82 	jal 403d42 <__enable_performance>
  400c42:	46 60 05 e0 	sethi $r6,#0x5e0
  400c46:	d5 0c       	j8 400c5e <DSATA_Init+0x9c>
  400c48:	04 03 00 1e 	lwi $r0,[$r6+#0x78]
  400c4c:	92 1b       	srli45 $r0,#0x1b
  400c4e:	96 06       	bmski33 $r0,#0x0
  400c50:	c0 e5       	beqz38 $r0,400c1a <DSATA_Init+0x58>
  400c52:	d5 e9       	j8 400c24 <DSATA_Init+0x62>
  400c54:	49 00 18 83 	jal 403d5a <__get_pfm_count>
  400c58:	5c f0 00 64 	slti $r15,$r0,#0x64
  400c5c:	e8 04       	beqzs8 400c64 <DSATA_Init+0xa2>
  400c5e:	00 03 00 94 	lbi $r0,[$r6+#0x94]
  400c62:	c0 f9       	beqz38 $r0,400c54 <DSATA_Init+0x92>
  400c64:	49 00 18 7e 	jal 403d60 <__disbale_performance>
  400c68:	49 00 19 36 	jal 403ed4 <SystemClkRecovery>
  400c6c:	d5 0a       	j8 400c80 <DSATA_Init+0xbe>
  400c6e:	44 00 00 5a 	movi $r0,#0x5a
  400c72:	83 81       	mov55 $fp,$r1
  400c74:	b8 dc       	swi37 $r0,[$fp+#0x170]
  400c76:	84 01       	movi55 $r0,#0x1
  400c78:	b8 f4       	swi37 $r0,[$fp+#0x1d0]
  400c7a:	b8 f3       	swi37 $r0,[$fp+#0x1cc]
  400c7c:	84 0f       	movi55 $r0,#0xf
  400c7e:	b8 f5       	swi37 $r0,[$fp+#0x1d4]
  400c80:	46 10 05 e1 	sethi $r1,#0x5e1
  400c84:	44 00 17 00 	movi $r0,#0x1700
  400c88:	14 00 80 29 	swi $r0,[$r1+#0xa4]
  400c8c:	04 00 81 11 	lwi $r0,[$r1+#0x444]
  400c90:	84 81       	movi55 $r4,#0x1
  400c92:	84 a0       	movi55 $r5,#0x0
  400c94:	fe 27       	or33 $r0,$r4
  400c96:	14 00 81 11 	swi $r0,[$r1+#0x444]
  400c9a:	14 50 81 15 	swi $r5,[$r1+#0x454]
  400c9e:	14 40 81 14 	swi $r4,[$r1+#0x450]
  400ca2:	04 00 80 dc 	lwi $r0,[$r1+#0x370]
  400ca6:	fe 27       	or33 $r0,$r4
  400ca8:	14 00 80 dc 	swi $r0,[$r1+#0x370]
  400cac:	04 00 80 dc 	lwi $r0,[$r1+#0x370]
  400cb0:	58 00 00 80 	ori $r0,$r0,#0x80
  400cb4:	14 00 80 dc 	swi $r0,[$r1+#0x370]
  400cb8:	b4 41       	lwi450 $r2,[$r1]
  400cba:	84 1e       	movi55 $r0,#-2
  400cbc:	fe 86       	and33 $r2,$r0
  400cbe:	b6 41       	swi450 $r2,[$r1]
  400cc0:	3e 28 36 e8 	addi.gp $r2,#0x36e8
  400cc4:	14 20 80 40 	swi $r2,[$r1+#0x100]
  400cc8:	3e 28 4e e8 	addi.gp $r2,#0x4ee8
  400ccc:	14 20 80 42 	swi $r2,[$r1+#0x108]
  400cd0:	14 40 80 6c 	swi $r4,[$r1+#0x1b0]
  400cd4:	04 30 80 46 	lwi $r3,[$r1+#0x118]
  400cd8:	44 2f 7f ff 	movi $r2,#-32769
  400cdc:	fe 9e       	and33 $r2,$r3
  400cde:	14 20 80 46 	swi $r2,[$r1+#0x118]
  400ce2:	04 20 80 4b 	lwi $r2,[$r1+#0x12c]
  400ce6:	46 30 05 e2 	sethi $r3,#0x5e2
  400cea:	58 21 03 00 	ori $r2,$r2,#0x300
  400cee:	14 20 80 4b 	swi $r2,[$r1+#0x12c]
  400cf2:	84 5f       	movi55 $r2,#-1
  400cf4:	14 50 80 a4 	swi $r5,[$r1+#0x290]
  400cf8:	14 20 80 4c 	swi $r2,[$r1+#0x130]
  400cfc:	00 21 81 01 	lbi $r2,[$r3+#0x101]
  400d00:	fe a7       	or33 $r2,$r4
  400d02:	10 21 81 01 	sbi $r2,[$r3+#0x101]
  400d06:	46 20 05 e0 	sethi $r2,#0x5e0
  400d0a:	00 31 01 2c 	lbi $r3,[$r2+#0x12c]
  400d0e:	fe c6       	and33 $r3,$r0
  400d10:	10 31 01 2c 	sbi $r3,[$r2+#0x12c]
  400d14:	83 82       	mov55 $fp,$r2
  400d16:	bb 3c       	lwi37 $r3,[$fp+#0xf0]
  400d18:	58 31 80 04 	ori $r3,$r3,#0x4
  400d1c:	bb bc       	swi37 $r3,[$fp+#0xf0]
  400d1e:	be 3c       	lwi37 $r6,[$fp+#0xf0]
  400d20:	44 3d ff ff 	movi $r3,#-131073
  400d24:	fe f6       	and33 $r3,$r6
  400d26:	bb bc       	swi37 $r3,[$fp+#0xf0]
  400d28:	00 31 00 ec 	lbi $r3,[$r2+#0xec]
  400d2c:	58 31 80 04 	ori $r3,$r3,#0x4
  400d30:	10 31 00 ec 	sbi $r3,[$r2+#0xec]
  400d34:	00 31 00 f8 	lbi $r3,[$r2+#0xf8]
  400d38:	fe 1e       	and33 $r0,$r3
  400d3a:	10 01 00 f8 	sbi $r0,[$r2+#0xf8]
  400d3e:	12 41 00 87 	shi $r4,[$r2+#0x10e]
  400d42:	02 01 00 7e 	lhi $r0,[$r2+#0xfc]
  400d46:	92 0c       	srli45 $r0,#0xc
  400d48:	40 00 30 08 	slli $r0,$r0,#0xc
  400d4c:	58 00 0e a6 	ori $r0,$r0,#0xea6
  400d50:	12 01 00 7e 	shi $r0,[$r2+#0xfc]
  400d54:	02 01 00 80 	lhi $r0,[$r2+#0x100]
  400d58:	92 0c       	srli45 $r0,#0xc
  400d5a:	40 00 30 08 	slli $r0,$r0,#0xc
  400d5e:	58 00 0e a6 	ori $r0,$r0,#0xea6
  400d62:	12 01 00 80 	shi $r0,[$r2+#0x100]
  400d66:	02 31 00 52 	lhi $r3,[$r2+#0xa4]
  400d6a:	84 17       	movi55 $r0,#-9
  400d6c:	fe 1e       	and33 $r0,$r3
  400d6e:	12 01 00 52 	shi $r0,[$r2+#0xa4]
  400d72:	02 31 00 52 	lhi $r3,[$r2+#0xa4]
  400d76:	84 1b       	movi55 $r0,#-5
  400d78:	fe 1e       	and33 $r0,$r3
  400d7a:	12 01 00 52 	shi $r0,[$r2+#0xa4]
  400d7e:	3c 3c 13 cc 	lwi.gp $r3,[+#0x4f30]
  400d82:	fa 04       	movpi45 $r0,#0x14
  400d84:	fe c4       	mul33 $r3,$r0
  400d86:	14 30 80 50 	swi $r3,[$r1+#0x140]
  400d8a:	04 60 80 cb 	lwi $r6,[$r1+#0x32c]
  400d8e:	84 70       	movi55 $r3,#-16
  400d90:	fe f6       	and33 $r3,$r6
  400d92:	58 31 80 03 	ori $r3,$r3,#0x3
  400d96:	14 30 80 cb 	swi $r3,[$r1+#0x32c]
  400d9a:	04 30 80 ca 	lwi $r3,[$r1+#0x328]
  400d9e:	fe e7       	or33 $r3,$r4
  400da0:	14 30 80 ca 	swi $r3,[$r1+#0x328]
  400da4:	be 3d       	lwi37 $r6,[$fp+#0xf4]
  400da6:	44 3e ff ff 	movi $r3,#-65537
  400daa:	ff 9e       	and33 $r6,$r3
  400dac:	be bd       	swi37 $r6,[$fp+#0xf4]
  400dae:	12 41 00 7a 	shi $r4,[$r2+#0xf4]
  400db2:	be 3c       	lwi37 $r6,[$fp+#0xf0]
  400db4:	ff 9e       	and33 $r6,$r3
  400db6:	be bc       	swi37 $r6,[$fp+#0xf0]
  400db8:	04 60 80 4b 	lwi $r6,[$r1+#0x12c]
  400dbc:	44 2f fc ff 	movi $r2,#-769
  400dc0:	fe b6       	and33 $r2,$r6
  400dc2:	14 20 80 4b 	swi $r2,[$r1+#0x12c]
  400dc6:	3e 28 46 e8 	addi.gp $r2,#0x46e8
  400dca:	14 20 81 12 	swi $r2,[$r1+#0x448]
  400dce:	3e 50 53 78 	sbi.gp $r5,[+#0x5378]
  400dd2:	84 43       	movi55 $r2,#0x3
  400dd4:	14 20 80 db 	swi $r2,[$r1+#0x36c]
  400dd8:	14 50 80 d0 	swi $r5,[$r1+#0x340]
  400ddc:	14 40 80 cd 	swi $r4,[$r1+#0x334]
  400de0:	04 20 80 dc 	lwi $r2,[$r1+#0x370]
  400de4:	fe d6       	and33 $r3,$r2
  400de6:	14 30 80 dc 	swi $r3,[$r1+#0x370]
  400dea:	04 30 80 dc 	lwi $r3,[$r1+#0x370]
  400dee:	44 2f ff df 	movi $r2,#-33
  400df2:	fe 9e       	and33 $r2,$r3
  400df4:	14 20 80 dc 	swi $r2,[$r1+#0x370]
  400df8:	a0 89       	lwi333 $r2,[$r1+#0x4]
  400dfa:	58 21 00 02 	ori $r2,$r2,#0x2
  400dfe:	a8 89       	swi333 $r2,[$r1+#0x4]
  400e00:	44 2f ff 7f 	movi $r2,#-129
  400e04:	14 20 80 45 	swi $r2,[$r1+#0x114]
  400e08:	49 00 17 c9 	jal 403d9a <NVIC_EnableIRQ>
  400e0c:	84 0a       	movi55 $r0,#0xa
  400e0e:	49 00 17 c6 	jal 403d9a <NVIC_EnableIRQ>
  400e12:	fc 80       	pop25 $r6,#0    ! {$r6, $fp, $gp, $lp}

00400e14 <DSATA_ExbuffAndCheckPoit_Ctrl>:
  400e14:	c8 07       	bnez38 $r0,400e22 <DSATA_ExbuffAndCheckPoit_Ctrl+0xe>
  400e16:	46 00 05 e1 	sethi $r0,#0x5e1
  400e1a:	04 10 00 e4 	lwi $r1,[$r0+#0x390]
  400e1e:	14 10 00 e8 	swi $r1,[$r0+#0x3a0]
  400e22:	dd 9e       	ret5 $lp

00400e24 <DSATA_ModuleInit>:
  400e24:	fc 20       	push25 $r8,#0    ! {$r6~$r8, $fp, $gp, $lp}
  400e26:	46 00 05 e0 	sethi $r0,#0x5e0
  400e2a:	b4 c0       	lwi450 $r6,[$r0]
  400e2c:	97 8e       	bmski33 $r6,#0x1
  400e2e:	ce 2f       	bnez38 $r6,400e8c <DSATA_ModuleInit+0x68>
  400e30:	b4 20       	lwi450 $r1,[$r0]
  400e32:	46 70 05 e5 	sethi $r7,#0x5e5
  400e36:	58 10 80 02 	ori $r1,$r1,#0x2
  400e3a:	b6 20       	swi450 $r1,[$r0]
  400e3c:	3c 6e 13 ca 	swi.gp $r6,[+#0x4f28]
  400e40:	84 22       	movi55 $r1,#0x2
  400e42:	10 10 00 40 	sbi $r1,[$r0+#0x40]
  400e46:	84 21       	movi55 $r1,#0x1
  400e48:	10 10 00 34 	sbi $r1,[$r0+#0x34]
  400e4c:	51 c3 83 40 	addi $fp,$r7,#0x340
  400e50:	b4 1c       	lwi450 $r0,[$fp]
  400e52:	58 00 00 0f 	ori $r0,$r0,#0xf
  400e56:	b6 1c       	swi450 $r0,[$fp]
  400e58:	46 00 07 27 	sethi $r0,#0x727
  400e5c:	50 00 00 e0 	addi $r0,$r0,#0xe0
  400e60:	49 00 18 df 	jal 40401e <Delay>
  400e64:	b4 3c       	lwi450 $r1,[$fp]
  400e66:	84 10       	movi55 $r0,#-16
  400e68:	fe 0e       	and33 $r0,$r1
  400e6a:	b6 1c       	swi450 $r0,[$fp]
  400e6c:	44 00 03 e8 	movi $r0,#0x3e8
  400e70:	49 00 18 d7 	jal 40401e <Delay>
  400e74:	49 00 18 30 	jal 403ed4 <SystemClkRecovery>
  400e78:	80 06       	mov55 $r0,$r6
  400e7a:	49 ff fe a4 	jal 400bc2 <DSATA_Init>
  400e7e:	49 00 13 cc 	jal 403616 <TQM_Init>
  400e82:	49 00 15 44 	jal 40390a <TPM_Init>
  400e86:	49 ff fd dd 	jal 400a40 <DMAC_DMA1Init>
  400e8a:	fc a0       	pop25 $r8,#0    ! {$r6~$r8, $fp, $gp, $lp}
  400e8c:	84 00       	movi55 $r0,#0x0
  400e8e:	3c 0e 13 de 	swi.gp $r0,[+#0x4f78]
  400e92:	3e 00 57 75 	sbi.gp $r0,[+#0x5775]
  400e96:	3c 0e 14 d2 	swi.gp $r0,[+#0x5348]
  400e9a:	49 00 13 be 	jal 403616 <TQM_Init>
  400e9e:	49 00 15 36 	jal 40390a <TPM_Init>
  400ea2:	3c 0c 13 d8 	lwi.gp $r0,[+#0x4f60]
  400ea6:	2e 10 4f 08 	lbi.gp $r1,[+#0x4f08]
  400eaa:	49 00 0b 23 	jal 4024f0 <SATA_ChangeState>
  400eae:	84 04       	movi55 $r0,#0x4
  400eb0:	49 00 17 75 	jal 403d9a <NVIC_EnableIRQ>
  400eb4:	fa 04       	movpi45 $r0,#0x14
  400eb6:	49 00 17 72 	jal 403d9a <NVIC_EnableIRQ>
  400eba:	84 0a       	movi55 $r0,#0xa
  400ebc:	49 00 17 6f 	jal 403d9a <NVIC_EnableIRQ>
  400ec0:	fc a0       	pop25 $r8,#0    ! {$r6~$r8, $fp, $gp, $lp}

00400ec2 <DSATA_SysTickProcess>:
  400ec2:	fc 00       	push25 $r6,#0    ! {$r6, $fp, $gp, $lp}
  400ec4:	3c 0c 13 ca 	lwi.gp $r0,[+#0x4f28]
  400ec8:	8c 0a       	addi45 $r0,#0xa
  400eca:	3c 0e 13 ca 	swi.gp $r0,[+#0x4f28]
  400ece:	3c 0c 13 e4 	lwi.gp $r0,[+#0x4f90]
  400ed2:	c0 0f       	beqz38 $r0,400ef0 <DSATA_SysTickProcess+0x2e>
  400ed4:	3c 5c 13 df 	lwi.gp $r5,[+#0x4f7c]
  400ed8:	46 01 23 45 	sethi $r0,#0x12345
  400edc:	50 00 06 78 	addi $r0,$r0,#0x678
  400ee0:	d8 08       	bnes38 $r0,400ef0 <DSATA_SysTickProcess+0x2e>
  400ee2:	49 00 17 29 	jal 403d34 <GIE_DISABLE>
  400ee6:	3c 0c 13 e4 	lwi.gp $r0,[+#0x4f90]
  400eea:	dd 20       	jral5 $r0
  400eec:	49 00 17 1f 	jal 403d2a <GIE_ENABLE>
  400ef0:	2e 00 53 54 	lbi.gp $r0,[+#0x5354]
  400ef4:	c0 28       	beqz38 $r0,400f44 <DSATA_SysTickProcess+0x82>
  400ef6:	3c 0c 13 c4 	lwi.gp $r0,[+#0x4f10]
  400efa:	e6 02       	slti45 $r0,#0x2
  400efc:	e8 24       	beqzs8 400f44 <DSATA_SysTickProcess+0x82>
  400efe:	3c 0c 14 d4 	lwi.gp $r0,[+#0x5350]
  400f02:	3c 1c 14 d3 	lwi.gp $r1,[+#0x534c]
  400f06:	e2 01       	slt45 $r0,$r1
  400f08:	e9 1b       	bnezs8 400f3e <DSATA_SysTickProcess+0x7c>
  400f0a:	2e 00 53 00 	lbi.gp $r0,[+#0x5300]
  400f0e:	5a 08 22 12 	bnec $r0,#0x22,400f32 <DSATA_SysTickProcess+0x70>
  400f12:	3c 0c 14 c7 	lwi.gp $r0,[+#0x531c]
  400f16:	c8 0e       	bnez38 $r0,400f32 <DSATA_SysTickProcess+0x70>
  400f18:	fa 11       	movpi45 $r0,#0x21
  400f1a:	3e 00 53 00 	sbi.gp $r0,[+#0x5300]
  400f1e:	84 0c       	movi55 $r0,#0xc
  400f20:	3e 00 53 01 	sbi.gp $r0,[+#0x5301]
  400f24:	3e 0f 8a 8a 	addi.gp $r0,#-30070
  400f28:	3c 0e 14 c7 	swi.gp $r0,[+#0x531c]
  400f2c:	3e 0f c8 7c 	addi.gp $r0,#-14212
  400f30:	d5 03       	j8 400f36 <DSATA_SysTickProcess+0x74>
  400f32:	3e 0f c8 88 	addi.gp $r0,#-14200
  400f36:	49 00 16 76 	jal 403c22 <PRINT_TXT>
  400f3a:	84 00       	movi55 $r0,#0x0
  400f3c:	d5 02       	j8 400f40 <DSATA_SysTickProcess+0x7e>
  400f3e:	8c 0a       	addi45 $r0,#0xa
  400f40:	3c 0e 14 d4 	swi.gp $r0,[+#0x5350]
  400f44:	fc 80       	pop25 $r6,#0    ! {$r6, $fp, $gp, $lp}

00400f46 <DSATA_G3_TaskRouter>:
  400f46:	3c 5c 13 df 	lwi.gp $r5,[+#0x4f7c]
  400f4a:	46 01 23 45 	sethi $r0,#0x12345
  400f4e:	50 00 06 78 	addi $r0,$r0,#0x678
  400f52:	d8 18       	bnes38 $r0,400f82 <DSATA_G3_TaskRouter+0x3c>
  400f54:	fc 01       	push25 $r6,#8    ! {$r6, $fp, $gp, $lp}
  400f56:	49 00 17 10 	jal 403d76 <__get_PRIMASK>
  400f5a:	f0 81       	swi37.sp $r0,[+#0x4]
  400f5c:	84 01       	movi55 $r0,#0x1
  400f5e:	49 00 17 12 	jal 403d82 <__set_PRIMASK>
  400f62:	3c 0c 13 ec 	lwi.gp $r0,[+#0x4fb0]
  400f66:	c0 04       	beqz38 $r0,400f6e <DSATA_G3_TaskRouter+0x28>
  400f68:	3c 0c 13 ec 	lwi.gp $r0,[+#0x4fb0]
  400f6c:	dd 20       	jral5 $r0
  400f6e:	3c 0c 13 ed 	lwi.gp $r0,[+#0x4fb4]
  400f72:	c0 04       	beqz38 $r0,400f7a <DSATA_G3_TaskRouter+0x34>
  400f74:	3c 0c 13 ed 	lwi.gp $r0,[+#0x4fb4]
  400f78:	dd 20       	jral5 $r0
  400f7a:	f0 01       	lwi37.sp $r0,[+#0x4]
  400f7c:	49 00 17 03 	jal 403d82 <__set_PRIMASK>
  400f80:	fc 81       	pop25 $r6,#8    ! {$r6, $fp, $gp, $lp}
  400f82:	dd 9e       	ret5 $lp

00400f84 <DSATA_ModuleProcess>:
  400f84:	fc 00       	push25 $r6,#0    ! {$r6, $fp, $gp, $lp}
  400f86:	3c 0c 13 db 	lwi.gp $r0,[+#0x4f6c]
  400f8a:	c0 02       	beqz38 $r0,400f8e <DSATA_ModuleProcess+0xa>
  400f8c:	dd 20       	jral5 $r0
  400f8e:	2e 00 53 a2 	lbi.gp $r0,[+#0x53a2]
  400f92:	c0 05       	beqz38 $r0,400f9c <DSATA_ModuleProcess+0x18>
  400f94:	2e 00 53 a3 	lbi.gp $r0,[+#0x53a3]
  400f98:	49 00 11 78 	jal 403288 <Scsi_IdleCmdHandle>
  400f9c:	49 00 15 d0 	jal 403b3c <TPM_StateMachine>
  400fa0:	49 ff ff d3 	jal 400f46 <DSATA_G3_TaskRouter>
  400fa4:	fc 80       	pop25 $r6,#0    ! {$r6, $fp, $gp, $lp}

00400fa6 <DSATA_UpdateSystemClockInfo>:
  400fa6:	3e 18 4f 08 	addi.gp $r1,#0x4f08
  400faa:	44 20 03 e8 	movi $r2,#0x3e8
  400fae:	50 30 80 24 	addi $r3,$r1,#0x24
  400fb2:	b6 03       	swi450 $r0,[$r3]
  400fb4:	40 00 08 17 	divr $r0,$r0,$r0,$r2
  400fb8:	a8 19       	swi333 $r0,[$r3+#0x4]
  400fba:	40 00 08 17 	divr $r0,$r0,$r0,$r2
  400fbe:	a8 1a       	swi333 $r0,[$r3+#0x8]
  400fc0:	dd 9e       	ret5 $lp

00400fc2 <DSATA_RegisteInterfaceInfo>:
  400fc2:	fc 00       	push25 $r6,#0    ! {$r6, $fp, $gp, $lp}
  400fc4:	84 c0       	movi55 $r6,#0x0
  400fc6:	3c 6e 13 e7 	swi.gp $r6,[+#0x4f9c]
  400fca:	a0 43       	lwi333 $r1,[$r0+#0xc]
  400fcc:	3c 1e 13 e2 	swi.gp $r1,[+#0x4f88]
  400fd0:	a0 04       	lwi333 $r0,[$r0+#0x10]
  400fd2:	3c 0e 13 e3 	swi.gp $r0,[+#0x4f8c]
  400fd6:	84 1f       	movi55 $r0,#-1
  400fd8:	3e 00 4f 44 	sbi.gp $r0,[+#0x4f44]
  400fdc:	84 21       	movi55 $r1,#0x1
  400fde:	3e 60 4f 5c 	sbi.gp $r6,[+#0x4f5c]
  400fe2:	3c 1e 13 c4 	swi.gp $r1,[+#0x4f10]
  400fe6:	3c 6e 14 d4 	swi.gp $r6,[+#0x5350]
  400fea:	3e 60 53 54 	sbi.gp $r6,[+#0x5354]
  400fee:	84 05       	movi55 $r0,#0x5
  400ff0:	3e 00 4f 58 	sbi.gp $r0,[+#0x4f58]
  400ff4:	3e 60 4f 59 	sbi.gp $r6,[+#0x4f59]
  400ff8:	3e 60 53 60 	sbi.gp $r6,[+#0x5360]
  400ffc:	3e 60 4f 64 	sbi.gp $r6,[+#0x4f64]
  401000:	3e 10 4f 0d 	sbi.gp $r1,[+#0x4f0d]
  401004:	fa 24       	movpi45 $r1,#0x14
  401006:	3e 10 4f 0e 	sbi.gp $r1,[+#0x4f0e]
  40100a:	3e 00 4f 0f 	sbi.gp $r0,[+#0x4f0f]
  40100e:	3e 60 4f 18 	sbi.gp $r6,[+#0x4f18]
  401012:	49 00 16 ab 	jal 403d68 <__get_sda_base>
  401016:	3c 0e 14 da 	swi.gp $r0,[+#0x5368]
  40101a:	3c 6e 14 db 	swi.gp $r6,[+#0x536c]
  40101e:	3e 60 4f 1a 	sbi.gp $r6,[+#0x4f1a]
  401022:	3e 60 53 61 	sbi.gp $r6,[+#0x5361]
  401026:	3e 60 53 62 	sbi.gp $r6,[+#0x5362]
  40102a:	3e 60 53 63 	sbi.gp $r6,[+#0x5363]
  40102e:	84 1f       	movi55 $r0,#-1
  401030:	3c 08 29 b2 	shi.gp $r0,[+#0x5364]
  401034:	3e 60 4f 5a 	sbi.gp $r6,[+#0x4f5a]
  401038:	3c 6e 14 d2 	swi.gp $r6,[+#0x5348]
  40103c:	fa 12       	movpi45 $r0,#0x22
  40103e:	3e 00 53 00 	sbi.gp $r0,[+#0x5300]
  401042:	3c 6e 14 c7 	swi.gp $r6,[+#0x531c]
  401046:	3e 60 4f 4a 	sbi.gp $r6,[+#0x4f4a]
  40104a:	fa 05       	movpi45 $r0,#0x15
  40104c:	3e 00 53 20 	sbi.gp $r0,[+#0x5320]
  401050:	84 0a       	movi55 $r0,#0xa
  401052:	3e 00 53 21 	sbi.gp $r0,[+#0x5321]
  401056:	3c 6e 14 cf 	swi.gp $r6,[+#0x533c]
  40105a:	46 00 05 e0 	sethi $r0,#0x5e0
  40105e:	b4 00       	lwi450 $r0,[$r0]
  401060:	96 0e       	bmski33 $r0,#0x1
  401062:	c8 0e       	bnez38 $r0,40107e <DSATA_RegisteInterfaceInfo+0xbc>
  401064:	3c 0e 13 db 	swi.gp $r0,[+#0x4f6c]
  401068:	3c 0e 13 dc 	swi.gp $r0,[+#0x4f70]
  40106c:	3c 0e 13 dd 	swi.gp $r0,[+#0x4f74]
  401070:	3c 0e 13 c2 	swi.gp $r0,[+#0x4f08]
  401074:	3c 0e 13 c5 	swi.gp $r0,[+#0x4f14]
  401078:	84 0f       	movi55 $r0,#0xf
  40107a:	3c 0e 13 d8 	swi.gp $r0,[+#0x4f60]
  40107e:	fc 80       	pop25 $r6,#0    ! {$r6, $fp, $gp, $lp}

00401080 <DSATA_StartupEnable>:
  401080:	46 00 05 e1 	sethi $r0,#0x5e1
  401084:	84 7f       	movi55 $r3,#-1
  401086:	84 40       	movi55 $r2,#0x0
  401088:	14 30 00 4c 	swi $r3,[$r0+#0x130]
  40108c:	14 20 00 46 	swi $r2,[$r0+#0x118]
  401090:	04 10 00 46 	lwi $r1,[$r0+#0x118]
  401094:	58 10 80 02 	ori $r1,$r1,#0x2
  401098:	14 10 00 46 	swi $r1,[$r0+#0x118]
  40109c:	04 10 00 46 	lwi $r1,[$r0+#0x118]
  4010a0:	58 10 80 01 	ori $r1,$r1,#0x1
  4010a4:	14 10 00 46 	swi $r1,[$r0+#0x118]
  4010a8:	04 10 00 46 	lwi $r1,[$r0+#0x118]
  4010ac:	58 10 80 10 	ori $r1,$r1,#0x10
  4010b0:	14 10 00 46 	swi $r1,[$r0+#0x118]
  4010b4:	46 17 ef ff 	sethi $r1,#0x7efff
  4010b8:	50 10 8f 5d 	addi $r1,$r1,#0xf5d
  4010bc:	14 30 00 44 	swi $r3,[$r0+#0x110]
  4010c0:	14 10 00 45 	swi $r1,[$r0+#0x114]
  4010c4:	14 20 00 a4 	swi $r2,[$r0+#0x290]
  4010c8:	dd 9e       	ret5 $lp

004010ca <DSATA_LinkCheck>:
  4010ca:	46 10 05 e1 	sethi $r1,#0x5e1
  4010ce:	04 00 80 4a 	lwi $r0,[$r1+#0x128]
  4010d2:	92 08       	srli45 $r0,#0x8
  4010d4:	96 17       	fexti33 $r0,#0x2
  4010d6:	5a 08 01 0e 	bnec $r0,#0x1,4010f2 <DSATA_LinkCheck+0x28>
  4010da:	04 00 80 4a 	lwi $r0,[$r1+#0x128]
  4010de:	92 04       	srli45 $r0,#0x4
  4010e0:	96 0f       	fexti33 $r0,#0x1
  4010e2:	c0 09       	beqz38 $r0,4010f4 <DSATA_LinkCheck+0x2a>
  4010e4:	04 00 80 4a 	lwi $r0,[$r1+#0x128]
  4010e8:	96 17       	fexti33 $r0,#0x2
  4010ea:	8e 03       	subi45 $r0,#0x3
  4010ec:	5c 00 00 01 	slti $r0,$r0,#0x1
  4010f0:	dd 9e       	ret5 $lp
  4010f2:	84 00       	movi55 $r0,#0x0
  4010f4:	dd 9e       	ret5 $lp

004010f6 <DSATA_ClearFsmBuff>:
  4010f6:	3e 08 4e e8 	addi.gp $r0,#0x4ee8
  4010fa:	84 20       	movi55 $r1,#0x0
  4010fc:	b6 20       	swi450 $r1,[$r0]
  4010fe:	a8 41       	swi333 $r1,[$r0+#0x4]
  401100:	a8 42       	swi333 $r1,[$r0+#0x8]
  401102:	a8 43       	swi333 $r1,[$r0+#0xc]
  401104:	a8 44       	swi333 $r1,[$r0+#0x10]
  401106:	a8 45       	swi333 $r1,[$r0+#0x14]
  401108:	dd 9e       	ret5 $lp

0040110a <DSATA_BuildD2HFis>:
  40110a:	3e 38 4e e8 	addi.gp $r3,#0x4ee8
  40110e:	44 40 00 34 	movi $r4,#0x34
  401112:	af 18       	sbi333 $r4,[$r3+#0x0]
  401114:	96 86       	bmski33 $r2,#0x0
  401116:	95 16       	slli333 $r4,$r2,#0x6
  401118:	a6 99       	lbi333 $r2,[$r3+#0x1]
  40111a:	54 21 00 bf 	andi $r2,$r2,#0xbf
  40111e:	fe a7       	or33 $r2,$r4
  401120:	ae 99       	sbi333 $r2,[$r3+#0x1]
  401122:	a6 99       	lbi333 $r2,[$r3+#0x1]
  401124:	54 21 00 cf 	andi $r2,$r2,#0xcf
  401128:	ae 99       	sbi333 $r2,[$r3+#0x1]
  40112a:	a6 99       	lbi333 $r2,[$r3+#0x1]
  40112c:	96 b7       	fexti33 $r2,#0x6
  40112e:	ae 99       	sbi333 $r2,[$r3+#0x1]
  401130:	ae 1a       	sbi333 $r0,[$r3+#0x2]
  401132:	ae 5b       	sbi333 $r1,[$r3+#0x3]
  401134:	dd 9e       	ret5 $lp

00401136 <DSATA_BulidSDBFis>:
  401136:	fc 20       	push25 $r8,#0    ! {$r6~$r8, $fp, $gp, $lp}
  401138:	3e 58 4e e8 	addi.gp $r5,#0x4ee8
  40113c:	44 6f ff a1 	movi $r6,#-95
  401140:	10 62 80 18 	sbi $r6,[$r5+#0x18]
  401144:	96 c6       	bmski33 $r3,#0x0
  401146:	95 9e       	slli333 $r6,$r3,#0x6
  401148:	00 32 80 19 	lbi $r3,[$r5+#0x19]
  40114c:	50 72 80 19 	addi $r7,$r5,#0x19
  401150:	54 31 80 bf 	andi $r3,$r3,#0xbf
  401154:	fe f7       	or33 $r3,$r6
  401156:	10 32 80 19 	sbi $r3,[$r5+#0x19]
  40115a:	84 67       	movi55 $r3,#0x7
  40115c:	fe 1e       	and33 $r0,$r3
  40115e:	95 84       	slli333 $r6,$r0,#0x4
  401160:	a6 39       	lbi333 $r0,[$r7+#0x1]
  401162:	fe 5e       	and33 $r1,$r3
  401164:	54 00 00 8f 	andi $r0,$r0,#0x8f
  401168:	fe 37       	or33 $r0,$r6
  40116a:	ae 39       	sbi333 $r0,[$r7+#0x1]
  40116c:	a6 f9       	lbi333 $r3,[$r7+#0x1]
  40116e:	54 31 80 f8 	andi $r3,$r3,#0xf8
  401172:	fe 5f       	or33 $r1,$r3
  401174:	ae 79       	sbi333 $r1,[$r7+#0x1]
  401176:	10 22 80 1b 	sbi $r2,[$r5+#0x1b]
  40117a:	a9 2f       	swi333 $r4,[$r5+#0x1c]
  40117c:	fc a0       	pop25 $r8,#0    ! {$r6~$r8, $fp, $gp, $lp}

0040117e <DSATA_BulidPioSetUpFis>:
  40117e:	46 30 05 e1 	sethi $r3,#0x5e1
  401182:	04 21 80 4e 	lwi $r2,[$r3+#0x138]
  401186:	96 86       	bmski33 $r2,#0x0
  401188:	ca 31       	bnez38 $r2,4011ea <DSATA_BulidPioSetUpFis+0x6c>
  40118a:	40 10 a4 08 	slli $r1,$r1,#0x9
  40118e:	3c 2e 13 ba 	swi.gp $r2,[+#0x4ee8]
  401192:	44 20 00 5f 	movi $r2,#0x5f
  401196:	3e 20 4e e8 	sbi.gp $r2,[+#0x4ee8]
  40119a:	54 20 00 01 	andi $r2,$r0,#0x1
  40119e:	94 d5       	slli333 $r3,$r2,#0x5
  4011a0:	96 49       	zeh33 $r1,$r1
  4011a2:	2e 20 4e e9 	lbi.gp $r2,[+#0x4ee9]
  4011a6:	54 21 00 df 	andi $r2,$r2,#0xdf
  4011aa:	fe 9f       	or33 $r2,$r3
  4011ac:	3e 20 4e e9 	sbi.gp $r2,[+#0x4ee9]
  4011b0:	44 20 00 58 	movi $r2,#0x58
  4011b4:	3e 20 4e ea 	sbi.gp $r2,[+#0x4eea]
  4011b8:	3c 18 27 7c 	shi.gp $r1,[+#0x4ef8]
  4011bc:	46 20 04 0d 	sethi $r2,#0x40d
  4011c0:	44 1f ff d0 	movi $r1,#-48
  4011c4:	3e 10 4e f7 	sbi.gp $r1,[+#0x4ef7]
  4011c8:	5a 08 01 28 	bnec $r0,#0x1,401218 <DSATA_BulidPioSetUpFis+0x9a>
  4011cc:	2e 00 4e e9 	lbi.gp $r0,[+#0x4ee9]
  4011d0:	58 00 00 40 	ori $r0,$r0,#0x40
  4011d4:	3e 00 4e e9 	sbi.gp $r0,[+#0x4ee9]
  4011d8:	3c 0c 0d ba 	lwi.gp $r0,[+#0x36e8]
  4011dc:	92 0f       	srli45 $r0,#0xf
  4011de:	5a 08 01 1d 	bnec $r0,#0x1,401218 <DSATA_BulidPioSetUpFis+0x9a>
  4011e2:	44 00 00 50 	movi $r0,#0x50
  4011e6:	80 22       	mov55 $r1,$r2
  4011e8:	d5 16       	j8 401214 <DSATA_BulidPioSetUpFis+0x96>
  4011ea:	2e 20 4e e9 	lbi.gp $r2,[+#0x4ee9]
  4011ee:	58 21 00 40 	ori $r2,$r2,#0x40
  4011f2:	3e 20 4e e9 	sbi.gp $r2,[+#0x4ee9]
  4011f6:	04 21 80 60 	lwi $r2,[$r3+#0x180]
  4011fa:	5a 28 01 0f 	bnec $r2,#0x1,401218 <DSATA_BulidPioSetUpFis+0x9a>
  4011fe:	40 10 a4 08 	slli $r1,$r1,#0x9
  401202:	96 49       	zeh33 $r1,$r1
  401204:	3c 18 27 7c 	shi.gp $r1,[+#0x4ef8]
  401208:	5a 08 01 08 	bnec $r0,#0x1,401218 <DSATA_BulidPioSetUpFis+0x9a>
  40120c:	44 00 00 50 	movi $r0,#0x50
  401210:	46 10 04 0d 	sethi $r1,#0x40d
  401214:	3e 00 4e f7 	sbi.gp $r0,[+#0x4ef7]
  401218:	dd 9e       	ret5 $lp

0040121a <DSATA_BuildPrd>:
  40121a:	a4 85       	lhi333 $r2,[$r0+#0xa]
  40121c:	3e 38 44 e8 	addi.gp $r3,#0x44e8
  401220:	96 af       	fexti33 $r2,#0x5
  401222:	94 94       	slli333 $r2,$r2,#0x4
  401224:	88 43       	add45 $r2,$r3
  401226:	8c 48       	addi45 $r2,#0x8
  401228:	46 44 00 00 	sethi $r4,#0x40000
  40122c:	a9 11       	swi333 $r4,[$r2+#0x4]
  40122e:	a4 85       	lhi333 $r2,[$r0+#0xa]
  401230:	50 51 80 08 	addi $r5,$r3,#0x8
  401234:	96 af       	fexti33 $r2,#0x5
  401236:	94 94       	slli333 $r2,$r2,#0x4
  401238:	88 45       	add45 $r2,$r5
  40123a:	40 10 fc 08 	slli $r1,$r1,#0x1f
  40123e:	a1 11       	lwi333 $r4,[$r2+#0x4]
  401240:	95 21       	slli333 $r4,$r4,#0x1
  401242:	92 81       	srli45 $r4,#0x1
  401244:	ff 0f       	or33 $r4,$r1
  401246:	a9 11       	swi333 $r4,[$r2+#0x4]
  401248:	a4 45       	lhi333 $r1,[$r0+#0xa]
  40124a:	a0 84       	lwi333 $r2,[$r0+#0x10]
  40124c:	96 6f       	fexti33 $r1,#0x5
  40124e:	94 4c       	slli333 $r1,$r1,#0x4
  401250:	88 61       	add45 $r3,$r1
  401252:	b6 43       	swi450 $r2,[$r3]
  401254:	a0 83       	lwi333 $r2,[$r0+#0xc]
  401256:	98 29       	add333 $r0,$r5,$r1
  401258:	40 21 40 08 	slli $r2,$r2,#0x10
  40125c:	50 11 7f 80 	addi $r1,$r2,#-128
  401260:	40 20 9c 09 	srli $r2,$r1,#0x7
  401264:	a0 41       	lwi333 $r1,[$r0+#0x4]
  401266:	92 39       	srli45 $r1,#0x19
  401268:	40 10 e4 08 	slli $r1,$r1,#0x19
  40126c:	fe 57       	or33 $r1,$r2
  40126e:	a8 41       	swi333 $r1,[$r0+#0x4]
  401270:	dd 9e       	ret5 $lp

00401272 <DSATA_SetCmdHead>:
  401272:	fc 00       	push25 $r6,#0    ! {$r6, $fp, $gp, $lp}
  401274:	3e 58 36 e8 	addi.gp $r5,#0x36e8
  401278:	94 05       	slli333 $r0,$r0,#0x5
  40127a:	99 a8       	add333 $r6,$r5,$r0
  40127c:	b6 26       	swi450 $r1,[$r6]
  40127e:	80 25       	mov55 $r1,$r5
  401280:	4c 31 40 08 	bne $r3,$r2,401290 <DSATA_SetCmdHead+0x1e>
  401284:	b4 46       	lwi450 $r2,[$r6]
  401286:	44 30 80 00 	movi $r3,#0x8000
  40128a:	54 21 7f ff 	andi $r2,$r2,#0x7fff
  40128e:	d5 08       	j8 40129e <DSATA_SetCmdHead+0x2c>
  401290:	5a 38 01 0a 	bnec $r3,#0x1,4012a4 <DSATA_SetCmdHead+0x32>
  401294:	b4 66       	lwi450 $r3,[$r6]
  401296:	40 21 3c 08 	slli $r2,$r2,#0xf
  40129a:	54 31 ff ff 	andi $r3,$r3,#0x7fff
  40129e:	fe 9f       	or33 $r2,$r3
  4012a0:	b6 46       	swi450 $r2,[$r6]
  4012a2:	d5 0c       	j8 4012ba <DSATA_SetCmdHead+0x48>
  4012a4:	8e 41       	subi45 $r2,#0x1
  4012a6:	88 43       	add45 $r2,$r3
  4012a8:	40 31 0c 77 	divr $r3,$r3,$r2,$r3
  4012ac:	40 51 bc 08 	slli $r5,$r3,#0xf
  4012b0:	b4 66       	lwi450 $r3,[$r6]
  4012b2:	54 31 ff ff 	andi $r3,$r3,#0x7fff
  4012b6:	fe ef       	or33 $r3,$r5
  4012b8:	b6 66       	swi450 $r3,[$r6]
  4012ba:	88 01       	add45 $r0,$r1
  4012bc:	a9 01       	swi333 $r4,[$r0+#0x4]
  4012be:	fc 80       	pop25 $r6,#0    ! {$r6, $fp, $gp, $lp}

004012c0 <HW20_ISR>:
  4012c0:	fc 00       	push25 $r6,#0    ! {$r6, $fp, $gp, $lp}
  4012c2:	46 00 05 e0 	sethi $r0,#0x5e0
  4012c6:	02 60 00 52 	lhi $r6,[$r0+#0xa4]
  4012ca:	02 20 00 52 	lhi $r2,[$r0+#0xa4]
  4012ce:	97 b1       	zeh33 $r6,$r6
  4012d0:	54 13 01 0c 	andi $r1,$r6,#0x10c
  4012d4:	fe cb       	not33 $r3,$r1
  4012d6:	fe 9e       	and33 $r2,$r3
  4012d8:	92 28       	srli45 $r1,#0x8
  4012da:	12 20 00 52 	shi $r2,[$r0+#0xa4]
  4012de:	c1 14       	beqz38 $r1,401306 <HW20_ISR+0x46>
  4012e0:	02 20 00 52 	lhi $r2,[$r0+#0xa4]
  4012e4:	44 1f fe ff 	movi $r1,#-257
  4012e8:	fe 8e       	and33 $r2,$r1
  4012ea:	12 20 00 52 	shi $r2,[$r0+#0xa4]
  4012ee:	02 20 00 50 	lhi $r2,[$r0+#0xa0]
  4012f2:	fe 56       	and33 $r1,$r2
  4012f4:	12 10 00 50 	shi $r1,[$r0+#0xa0]
  4012f8:	84 01       	movi55 $r0,#0x1
  4012fa:	49 ff fc 64 	jal 400bc2 <DSATA_Init>
  4012fe:	3e 0f c8 98 	addi.gp $r0,#-14184
  401302:	49 00 14 90 	jal 403c22 <PRINT_TXT>
  401306:	44 00 00 32 	movi $r0,#0x32
  40130a:	49 00 15 ce 	jal 403ea6 <delay_ms>
  40130e:	3e 0f c8 a8 	addi.gp $r0,#-14168
  401312:	80 26       	mov55 $r1,$r6
  401314:	49 00 14 d7 	jal 403cc2 <PRINT_HEX>
  401318:	fc 80       	pop25 $r6,#0    ! {$r6, $fp, $gp, $lp}

0040131a <DSATA_ExceptionHandler>:
  40131a:	fc 40       	push25 $r10,#0    ! {$r6~$r10, $fp, $gp, $lp}
  40131c:	80 e0       	mov55 $r7,$r0
  40131e:	46 00 05 e6 	sethi $r0,#0x5e6
  401322:	04 10 00 14 	lwi $r1,[$r0+#0x50]
  401326:	c9 2a       	bnez38 $r1,40137a <DSATA_ExceptionHandler+0x60>
  401328:	04 00 00 1e 	lwi $r0,[$r0+#0x78]
  40132c:	c8 27       	bnez38 $r0,40137a <DSATA_ExceptionHandler+0x60>
  40132e:	46 10 05 e2 	sethi $r1,#0x5e2
  401332:	04 00 80 41 	lwi $r0,[$r1+#0x104]
  401336:	96 06       	bmski33 $r0,#0x0
  401338:	5a 08 01 21 	bnec $r0,#0x1,40137a <DSATA_ExceptionHandler+0x60>
  40133c:	04 10 80 47 	lwi $r1,[$r1+#0x11c]
  401340:	92 29       	srli45 $r1,#0x9
  401342:	96 46       	bmski33 $r1,#0x0
  401344:	5a 18 01 1b 	bnec $r1,#0x1,40137a <DSATA_ExceptionHandler+0x60>
  401348:	46 00 05 e1 	sethi $r0,#0x5e1
  40134c:	04 10 00 4e 	lwi $r1,[$r0+#0x138]
  401350:	c9 15       	bnez38 $r1,40137a <DSATA_ExceptionHandler+0x60>
  401352:	04 90 00 61 	lwi $r9,[$r0+#0x184]
  401356:	4e 93 00 12 	bnez $r9,40137a <DSATA_ExceptionHandler+0x60>
  40135a:	2e 60 4f 64 	lbi.gp $r6,[+#0x4f64]
  40135e:	97 b0       	zeb33 $r6,$r6
  401360:	4e 62 01 9c 	beqz $r6,401698 <DSATA_ExceptionHandler+0x37e>
  401364:	3e 0f c8 b0 	addi.gp $r0,#-14160
  401368:	2e 10 4f 49 	lbi.gp $r1,[+#0x4f49]
  40136c:	49 00 14 ab 	jal 403cc2 <PRINT_HEX>
  401370:	80 c9       	mov55 $r6,$r9
  401372:	49 00 12 77 	jal 403860 <Save_Uart_Buff_To_Log>
  401376:	48 00 01 91 	j 401698 <DSATA_ExceptionHandler+0x37e>
  40137a:	46 00 05 e1 	sethi $r0,#0x5e1
  40137e:	84 21       	movi55 $r1,#0x1
  401380:	14 10 00 a4 	swi $r1,[$r0+#0x290]
  401384:	2e 60 4f 5e 	lbi.gp $r6,[+#0x4f5e]
  401388:	c6 07       	beqz38 $r6,401396 <DSATA_ExceptionHandler+0x7c>
  40138a:	84 20       	movi55 $r1,#0x0
  40138c:	14 10 00 d0 	swi $r1,[$r0+#0x340]
  401390:	14 10 00 cd 	swi $r1,[$r0+#0x334]
  401394:	d5 13       	j8 4013ba <DSATA_ExceptionHandler+0xa0>
  401396:	46 00 0c 00 	sethi $r0,#0xc00
  40139a:	3c 5c 14 f4 	lwi.gp $r5,[+#0x53d0]
  40139e:	ff 46       	and33 $r5,$r0
  4013a0:	d8 0d       	bnes38 $r0,4013ba <DSATA_ExceptionHandler+0xa0>
  4013a2:	3e 0f c8 b8 	addi.gp $r0,#-14152
  4013a6:	2e 10 4f 49 	lbi.gp $r1,[+#0x4f49]
  4013aa:	49 00 14 8c 	jal 403cc2 <PRINT_HEX>
  4013ae:	49 00 12 59 	jal 403860 <Save_Uart_Buff_To_Log>
  4013b2:	49 00 0b 93 	jal 402ad8 <SATA_ClearCmd>
  4013b6:	48 00 01 71 	j 401698 <DSATA_ExceptionHandler+0x37e>
  4013ba:	2e 10 57 d2 	lbi.gp $r1,[+#0x57d2]
  4013be:	3e 0f c8 c0 	addi.gp $r0,#-14144
  4013c2:	49 00 14 80 	jal 403cc2 <PRINT_HEX>
  4013c6:	2e 10 57 d3 	lbi.gp $r1,[+#0x57d3]
  4013ca:	3e 0f c8 c8 	addi.gp $r0,#-14136
  4013ce:	49 00 14 7a 	jal 403cc2 <PRINT_HEX>
  4013d2:	2e 10 57 77 	lbi.gp $r1,[+#0x5777]
  4013d6:	3e 0f c8 d0 	addi.gp $r0,#-14128
  4013da:	49 00 14 74 	jal 403cc2 <PRINT_HEX>
  4013de:	2e 10 57 78 	lbi.gp $r1,[+#0x5778]
  4013e2:	3e 0f c8 d8 	addi.gp $r0,#-14120
  4013e6:	49 00 14 6e 	jal 403cc2 <PRINT_HEX>
  4013ea:	3c 1c 15 e9 	lwi.gp $r1,[+#0x57a4]
  4013ee:	3e 0f c8 e0 	addi.gp $r0,#-14112
  4013f2:	49 00 14 68 	jal 403cc2 <PRINT_HEX>
  4013f6:	3c 1c 15 ea 	lwi.gp $r1,[+#0x57a8]
  4013fa:	3e 0f c8 e8 	addi.gp $r0,#-14104
  4013fe:	49 00 14 62 	jal 403cc2 <PRINT_HEX>
  401402:	5a 70 ff 0f 	beqc $r7,#0xff,401420 <DSATA_ExceptionHandler+0x106>
  401406:	46 00 05 e1 	sethi $r0,#0x5e1
  40140a:	84 3e       	movi55 $r1,#-2
  40140c:	83 80       	mov55 $fp,$r0
  40140e:	ba 46       	lwi37 $r2,[$fp+#0x118]
  401410:	fe 56       	and33 $r1,$r2
  401412:	b9 c6       	swi37 $r1,[$fp+#0x118]
  401414:	64 00 00 08 	dsb
  401418:	b9 46       	lwi37 $r1,[$fp+#0x118]
  40141a:	58 10 80 01 	ori $r1,$r1,#0x1
  40141e:	b9 c6       	swi37 $r1,[$fp+#0x118]
  401420:	46 00 05 e1 	sethi $r0,#0x5e1
  401424:	04 10 00 e3 	lwi $r1,[$r0+#0x38c]
  401428:	96 46       	bmski33 $r1,#0x0
  40142a:	c9 15       	bnez38 $r1,401454 <DSATA_ExceptionHandler+0x13a>
  40142c:	04 10 00 e3 	lwi $r1,[$r0+#0x38c]
  401430:	58 10 80 01 	ori $r1,$r1,#0x1
  401434:	14 10 00 e3 	swi $r1,[$r0+#0x38c]
  401438:	3e 0f c8 f0 	addi.gp $r0,#-14096
  40143c:	49 00 13 f3 	jal 403c22 <PRINT_TXT>
  401440:	2e 07 fe ec 	lbi.gp $r0,[+#-276]
  401444:	8c 01       	addi45 $r0,#0x1
  401446:	96 00       	zeb33 $r0,$r0
  401448:	3e 07 fe ec 	sbi.gp $r0,[+#-276]
  40144c:	3c 0c 13 ca 	lwi.gp $r0,[+#0x4f28]
  401450:	3c 0f ff ba 	swi.gp $r0,[+#-280]
  401454:	3e 78 53 c8 	addi.gp $r7,#0x53c8
  401458:	2e 00 57 75 	lbi.gp $r0,[+#0x5775]
  40145c:	c8 1e       	bnez38 $r0,401498 <DSATA_ExceptionHandler+0x17e>
  40145e:	2e 00 53 c9 	lbi.gp $r0,[+#0x53c9]
  401462:	5a 08 01 1b 	bnec $r0,#0x1,401498 <DSATA_ExceptionHandler+0x17e>
  401466:	46 60 05 e6 	sethi $r6,#0x5e6
  40146a:	3c 9c 13 ca 	lwi.gp $r9,[+#0x4f28]
  40146e:	04 03 00 1e 	lwi $r0,[$r6+#0x78]
  401472:	96 06       	bmski33 $r0,#0x0
  401474:	4e 03 00 58 	bnez $r0,401524 <DSATA_ExceptionHandler+0x20a>
  401478:	3c 0c 13 ca 	lwi.gp $r0,[+#0x4f28]
  40147c:	8a 09       	sub45 $r0,$r9
  40147e:	5c f0 0b b8 	slti $r15,$r0,#0xbb8
  401482:	e9 06       	bnezs8 40148e <DSATA_ExceptionHandler+0x174>
  401484:	3e 0f c8 f8 	addi.gp $r0,#-14088
  401488:	49 00 13 cd 	jal 403c22 <PRINT_TXT>
  40148c:	d5 00       	j8 40148c <DSATA_ExceptionHandler+0x172>
  40148e:	49 ff fd 5c 	jal 400f46 <DSATA_G3_TaskRouter>
  401492:	49 00 0f de 	jal 40344e <TQM_CheckDiTaskDone>
  401496:	d5 ec       	j8 40146e <DSATA_ExceptionHandler+0x154>
  401498:	2e 00 57 75 	lbi.gp $r0,[+#0x5775]
  40149c:	c8 1a       	bnez38 $r0,4014d0 <DSATA_ExceptionHandler+0x1b6>
  40149e:	46 00 05 e1 	sethi $r0,#0x5e1
  4014a2:	04 00 00 61 	lwi $r0,[$r0+#0x184]
  4014a6:	c8 15       	bnez38 $r0,4014d0 <DSATA_ExceptionHandler+0x1b6>
  4014a8:	46 00 05 e2 	sethi $r0,#0x5e2
  4014ac:	04 00 00 41 	lwi $r0,[$r0+#0x104]
  4014b0:	96 06       	bmski33 $r0,#0x0
  4014b2:	5a 08 01 0f 	bnec $r0,#0x1,4014d0 <DSATA_ExceptionHandler+0x1b6>
  4014b6:	46 50 0c 00 	sethi $r5,#0xc00
  4014ba:	3c 0c 14 f4 	lwi.gp $r0,[+#0x53d0]
  4014be:	ff 46       	and33 $r5,$r0
  4014c0:	46 00 04 00 	sethi $r0,#0x400
  4014c4:	d8 06       	bnes38 $r0,4014d0 <DSATA_ExceptionHandler+0x1b6>
  4014c6:	3e 0f c9 04 	addi.gp $r0,#-14076
  4014ca:	49 00 13 ac 	jal 403c22 <PRINT_TXT>
  4014ce:	d5 1e       	j8 40150a <DSATA_ExceptionHandler+0x1f0>
  4014d0:	46 60 05 e2 	sethi $r6,#0x5e2
  4014d4:	3c 9c 13 ca 	lwi.gp $r9,[+#0x4f28]
  4014d8:	04 03 00 41 	lwi $r0,[$r6+#0x104]
  4014dc:	96 06       	bmski33 $r0,#0x0
  4014de:	5a 08 01 16 	bnec $r0,#0x1,40150a <DSATA_ExceptionHandler+0x1f0>
  4014e2:	3c 0c 13 ca 	lwi.gp $r0,[+#0x4f28]
  4014e6:	8a 09       	sub45 $r0,$r9
  4014e8:	5c f0 0b b8 	slti $r15,$r0,#0xbb8
  4014ec:	e9 06       	bnezs8 4014f8 <DSATA_ExceptionHandler+0x1de>
  4014ee:	3e 0f c9 10 	addi.gp $r0,#-14064
  4014f2:	49 00 13 98 	jal 403c22 <PRINT_TXT>
  4014f6:	d5 00       	j8 4014f6 <DSATA_ExceptionHandler+0x1dc>
  4014f8:	2e 00 57 e2 	lbi.gp $r0,[+#0x57e2]
  4014fc:	5a 00 01 07 	beqc $r0,#0x1,40150a <DSATA_ExceptionHandler+0x1f0>
  401500:	49 ff fd 23 	jal 400f46 <DSATA_G3_TaskRouter>
  401504:	49 00 0f a5 	jal 40344e <TQM_CheckDiTaskDone>
  401508:	d5 e8       	j8 4014d8 <DSATA_ExceptionHandler+0x1be>
  40150a:	46 60 05 e2 	sethi $r6,#0x5e2
  40150e:	3e 0f c9 1c 	addi.gp $r0,#-14052
  401512:	83 86       	mov55 $fp,$r6
  401514:	b9 42       	lwi37 $r1,[$fp+#0x108]
  401516:	49 00 13 d6 	jal 403cc2 <PRINT_HEX>
  40151a:	b9 43       	lwi37 $r1,[$fp+#0x10c]
  40151c:	3e 0f c9 28 	addi.gp $r0,#-14040
  401520:	49 00 13 d1 	jal 403cc2 <PRINT_HEX>
  401524:	46 60 05 e6 	sethi $r6,#0x5e6
  401528:	49 00 11 9c 	jal 403860 <Save_Uart_Buff_To_Log>
  40152c:	83 86       	mov55 $fp,$r6
  40152e:	b9 14       	lwi37 $r1,[$fp+#0x50]
  401530:	3e 0f c9 34 	addi.gp $r0,#-14028
  401534:	49 00 13 c7 	jal 403cc2 <PRINT_HEX>
  401538:	b9 1e       	lwi37 $r1,[$fp+#0x78]
  40153a:	3e 0f c9 3c 	addi.gp $r0,#-14020
  40153e:	49 00 13 c2 	jal 403cc2 <PRINT_HEX>
  401542:	2e 60 4f 5e 	lbi.gp $r6,[+#0x4f5e]
  401546:	c6 21       	beqz38 $r6,401588 <DSATA_ExceptionHandler+0x26e>
  401548:	46 00 05 e1 	sethi $r0,#0x5e1
  40154c:	04 10 00 a7 	lwi $r1,[$r0+#0x29c]
  401550:	50 10 80 84 	addi $r1,$r1,#0x84
  401554:	38 10 06 02 	lw $r1,[$r0+($r1<<#0x2)]
  401558:	5a 10 ff 0a 	beqc $r1,#0xff,40156c <DSATA_ExceptionHandler+0x252>
  40155c:	04 10 00 a7 	lwi $r1,[$r0+#0x29c]
  401560:	50 10 80 84 	addi $r1,$r1,#0x84
  401564:	38 60 06 02 	lw $r6,[$r0+($r1<<#0x2)]
  401568:	97 a7       	fexti33 $r6,#0x4
  40156a:	d5 0a       	j8 40157e <DSATA_ExceptionHandler+0x264>
  40156c:	2e 00 57 78 	lbi.gp $r0,[+#0x5778]
  401570:	2e 10 4f 19 	lbi.gp $r1,[+#0x4f19]
  401574:	8a 01       	sub45 $r0,$r1
  401576:	96 27       	fexti33 $r0,#0x4
  401578:	88 07       	add45 $r0,$r7
  40157a:	00 60 03 bc 	lbi $r6,[$r0+#0x3bc]
  40157e:	3e 0f c9 44 	addi.gp $r0,#-14012
  401582:	80 26       	mov55 $r1,$r6
  401584:	49 00 13 9f 	jal 403cc2 <PRINT_HEX>
  401588:	46 00 05 e1 	sethi $r0,#0x5e1
  40158c:	85 20       	movi55 $r9,#0x0
  40158e:	14 90 00 83 	swi $r9,[$r0+#0x20c]
  401592:	14 90 00 a7 	swi $r9,[$r0+#0x29c]
  401596:	14 90 00 a5 	swi $r9,[$r0+#0x294]
  40159a:	fa 0c       	movpi45 $r0,#0x1c
  40159c:	42 73 00 73 	maddr32 $r7,$r6,$r0
  4015a0:	3e 0f c9 4c 	addi.gp $r0,#-14004
  4015a4:	a0 79       	lwi333 $r1,[$r7+#0x4]
  4015a6:	49 00 13 8e 	jal 403cc2 <PRINT_HEX>
  4015aa:	3e 0f c9 54 	addi.gp $r0,#-13996
  4015ae:	a0 7b       	lwi333 $r1,[$r7+#0xc]
  4015b0:	49 00 13 55 	jal 403c5a <PRINT_DEC>
  4015b4:	a0 7a       	lwi333 $r1,[$r7+#0x8]
  4015b6:	3e 0f c9 5c 	addi.gp $r0,#-13988
  4015ba:	92 36       	srli45 $r1,#0x16
  4015bc:	96 4f       	fexti33 $r1,#0x1
  4015be:	49 00 13 4e 	jal 403c5a <PRINT_DEC>
  4015c2:	3c 0c 13 ea 	lwi.gp $r0,[+#0x4fa8]
  4015c6:	c0 0a       	beqz38 $r0,4015da <DSATA_ExceptionHandler+0x2c0>
  4015c8:	49 00 13 b6 	jal 403d34 <GIE_DISABLE>
  4015cc:	80 29       	mov55 $r1,$r9
  4015ce:	3c 2c 13 ea 	lwi.gp $r2,[+#0x4fa8]
  4015d2:	80 06       	mov55 $r0,$r6
  4015d4:	dd 22       	jral5 $r2
  4015d6:	49 00 13 aa 	jal 403d2a <GIE_ENABLE>
  4015da:	46 00 05 e2 	sethi $r0,#0x5e2
  4015de:	46 10 05 e1 	sethi $r1,#0x5e1
  4015e2:	04 00 00 40 	lwi $r0,[$r0+#0x100]
  4015e6:	92 01       	srli45 $r0,#0x1
  4015e8:	96 06       	bmski33 $r0,#0x0
  4015ea:	c0 09       	beqz38 $r0,4015fc <DSATA_ExceptionHandler+0x2e2>
  4015ec:	46 0f ee ff 	sethi $r0,#0xfeeff
  4015f0:	50 00 0e ef 	addi $r0,$r0,#0xeef
  4015f4:	14 00 80 81 	swi $r0,[$r1+#0x204]
  4015f8:	14 00 80 80 	swi $r0,[$r1+#0x200]
  4015fc:	84 01       	movi55 $r0,#0x1
  4015fe:	14 00 80 6b 	swi $r0,[$r1+#0x1ac]
  401602:	64 00 00 08 	dsb
  401606:	46 00 05 e6 	sethi $r0,#0x5e6
  40160a:	84 3f       	movi55 $r1,#-1
  40160c:	83 80       	mov55 $fp,$r0
  40160e:	b9 9c       	swi37 $r1,[$fp+#0x70]
  401610:	b9 92       	swi37 $r1,[$fp+#0x48]
  401612:	46 60 05 e1 	sethi $r6,#0x5e1
  401616:	3c ac 13 ca 	lwi.gp $r10,[+#0x4f28]
  40161a:	04 93 00 6b 	lwi $r9,[$r6+#0x1ac]
  40161e:	46 70 05 e1 	sethi $r7,#0x5e1
  401622:	4e 92 00 22 	beqz $r9,401666 <DSATA_ExceptionHandler+0x34c>
  401626:	2e 00 57 e2 	lbi.gp $r0,[+#0x57e2]
  40162a:	5a 08 01 09 	bnec $r0,#0x1,40163c <DSATA_ExceptionHandler+0x322>
  40162e:	84 00       	movi55 $r0,#0x0
  401630:	3e 00 57 e2 	sbi.gp $r0,[+#0x57e2]
  401634:	3e 0f c9 64 	addi.gp $r0,#-13980
  401638:	49 00 12 f5 	jal 403c22 <PRINT_TXT>
  40163c:	3c 0c 13 ca 	lwi.gp $r0,[+#0x4f28]
  401640:	8a 0a       	sub45 $r0,$r10
  401642:	5c f0 1f 40 	slti $r15,$r0,#0x1f40
  401646:	e9 0b       	bnezs8 40165c <DSATA_ExceptionHandler+0x342>
  401648:	3e 0f c9 6c 	addi.gp $r0,#-13972
  40164c:	49 00 12 eb 	jal 403c22 <PRINT_TXT>
  401650:	46 00 05 e1 	sethi $r0,#0x5e1
  401654:	84 20       	movi55 $r1,#0x0
  401656:	14 10 00 6b 	swi $r1,[$r0+#0x1ac]
  40165a:	d5 00       	j8 40165a <DSATA_ExceptionHandler+0x340>
  40165c:	49 ff fc 75 	jal 400f46 <DSATA_G3_TaskRouter>
  401660:	49 00 0e f7 	jal 40344e <TQM_CheckDiTaskDone>
  401664:	d5 db       	j8 40161a <DSATA_ExceptionHandler+0x300>
  401666:	49 00 0a 39 	jal 402ad8 <SATA_ClearCmd>
  40166a:	84 c1       	movi55 $r6,#0x1
  40166c:	3e 90 53 78 	sbi.gp $r9,[+#0x5378]
  401670:	84 03       	movi55 $r0,#0x3
  401672:	51 c3 81 bc 	addi $fp,$r7,#0x1bc
  401676:	b8 ec       	swi37 $r0,[$fp+#0x1b0]
  401678:	be 81       	swi37 $r6,[$fp+#0x4]
  40167a:	b8 5f       	lwi37 $r0,[$fp+#0x17c]
  40167c:	b8 df       	swi37 $r0,[$fp+#0x17c]
  40167e:	84 07       	movi55 $r0,#0x7
  401680:	14 93 80 6f 	swi $r9,[$r7+#0x1bc]
  401684:	b8 87       	swi37 $r0,[$fp+#0x1c]
  401686:	14 93 80 a4 	swi $r9,[$r7+#0x290]
  40168a:	b8 02       	lwi37 $r0,[$fp+#0x8]
  40168c:	fe 37       	or33 $r0,$r6
  40168e:	b8 82       	swi37 $r0,[$fp+#0x8]
  401690:	46 00 05 e0 	sethi $r0,#0x5e0
  401694:	14 90 00 03 	swi $r9,[$r0+#0xc]
  401698:	80 06       	mov55 $r0,$r6
  40169a:	fc c0       	pop25 $r10,#0    ! {$r6~$r10, $fp, $gp, $lp}

0040169c <comreset>:
  40169c:	fc 40       	push25 $r10,#0    ! {$r6~$r10, $fp, $gp, $lp}
  40169e:	80 c0       	mov55 $r6,$r0
  4016a0:	46 00 05 e1 	sethi $r0,#0x5e1
  4016a4:	84 21       	movi55 $r1,#0x1
  4016a6:	14 10 00 72 	swi $r1,[$r0+#0x1c8]
  4016aa:	b4 26       	lwi450 $r1,[$r6]
  4016ac:	54 00 81 00 	andi $r0,$r1,#0x100
  4016b0:	c0 04       	beqz38 $r0,4016b8 <comreset+0x1c>
  4016b2:	3e 0f c9 78 	addi.gp $r0,#-13960
  4016b6:	d5 07       	j8 4016c4 <comreset+0x28>
  4016b8:	46 04 00 00 	sethi $r0,#0x40000
  4016bc:	fe 0e       	and33 $r0,$r1
  4016be:	c0 05       	beqz38 $r0,4016c8 <comreset+0x2c>
  4016c0:	3e 0f c9 84 	addi.gp $r0,#-13948
  4016c4:	49 00 12 af 	jal 403c22 <PRINT_TXT>
  4016c8:	b4 46       	lwi450 $r2,[$r6]
  4016ca:	46 1f bf ff 	sethi $r1,#0xfbfff
  4016ce:	50 10 8f ff 	addi $r1,$r1,#0xfff
  4016d2:	fe 8e       	and33 $r2,$r1
  4016d4:	46 1f df ff 	sethi $r1,#0xfdfff
  4016d8:	50 10 8f fe 	addi $r1,$r1,#0xffe
  4016dc:	46 70 05 e1 	sethi $r7,#0x5e1
  4016e0:	fe 56       	and33 $r1,$r2
  4016e2:	b6 26       	swi450 $r1,[$r6]
  4016e4:	84 07       	movi55 $r0,#0x7
  4016e6:	84 c0       	movi55 $r6,#0x0
  4016e8:	85 21       	movi55 $r9,#0x1
  4016ea:	51 c3 81 b4 	addi $fp,$r7,#0x1b4
  4016ee:	b8 89       	swi37 $r0,[$fp+#0x24]
  4016f0:	14 93 80 71 	swi $r9,[$r7+#0x1c4]
  4016f4:	44 00 00 ff 	movi $r0,#0xff
  4016f8:	b6 dc       	swi450 $r6,[$fp]
  4016fa:	49 ff fe 10 	jal 40131a <DSATA_ExceptionHandler>
  4016fe:	3e 60 53 78 	sbi.gp $r6,[+#0x5378]
  401702:	84 03       	movi55 $r0,#0x3
  401704:	b8 ee       	swi37 $r0,[$fp+#0x1b8]
  401706:	be e3       	swi37 $r6,[$fp+#0x18c]
  401708:	80 06       	mov55 $r0,$r6
  40170a:	14 93 80 cd 	swi $r9,[$r7+#0x334]
  40170e:	49 00 06 42 	jal 402392 <SATA_DevCtx_Init>
  401712:	3c 00 21 c3 	lhi.gp $r0,[+#0x4386]
  401716:	58 00 00 40 	ori $r0,$r0,#0x40
  40171a:	3c 08 21 c3 	shi.gp $r0,[+#0x4386]
  40171e:	80 06       	mov55 $r0,$r6
  401720:	80 26       	mov55 $r1,$r6
  401722:	49 00 06 e7 	jal 4024f0 <SATA_ChangeState>
  401726:	3c 6e 13 d8 	swi.gp $r6,[+#0x4f60]
  40172a:	fc c0       	pop25 $r10,#0    ! {$r6~$r10, $fp, $gp, $lp}

0040172c <linkchange>:
  40172c:	fc 40       	push25 $r10,#0    ! {$r6~$r10, $fp, $gp, $lp}
  40172e:	46 70 05 e1 	sethi $r7,#0x5e1
  401732:	04 63 80 4a 	lwi $r6,[$r7+#0x128]
  401736:	3c 5c 13 c5 	lwi.gp $r5,[+#0x4f14]
  40173a:	92 c8       	srli45 $r6,#0x8
  40173c:	97 97       	fexti33 $r6,#0x2
  40173e:	4c 53 00 84 	beq $r5,$r6,401846 <linkchange+0x11a>
  401742:	81 20       	mov55 $r9,$r0
  401744:	ce 11       	bnez38 $r6,401766 <linkchange+0x3a>
  401746:	b4 00       	lwi450 $r0,[$r0]
  401748:	54 00 01 00 	andi $r0,$r0,#0x100
  40174c:	c8 51       	bnez38 $r0,4017ee <linkchange+0xc2>
  40174e:	3e 0f c9 8c 	addi.gp $r0,#-13940
  401752:	49 00 12 68 	jal 403c22 <PRINT_TXT>
  401756:	44 00 00 ff 	movi $r0,#0xff
  40175a:	49 ff fd e0 	jal 40131a <DSATA_ExceptionHandler>
  40175e:	84 0f       	movi55 $r0,#0xf
  401760:	3c 0e 13 d8 	swi.gp $r0,[+#0x4f60]
  401764:	d5 45       	j8 4017ee <linkchange+0xc2>
  401766:	5a 68 01 39 	bnec $r6,#0x1,4017d8 <linkchange+0xac>
  40176a:	83 87       	mov55 $fp,$r7
  40176c:	b9 4a       	lwi37 $r1,[$fp+#0x128]
  40176e:	3e 0f c9 94 	addi.gp $r0,#-13932
  401772:	92 24       	srli45 $r1,#0x4
  401774:	96 4f       	fexti33 $r1,#0x1
  401776:	49 00 12 72 	jal 403c5a <PRINT_DEC>
  40177a:	b8 4a       	lwi37 $r0,[$fp+#0x128]
  40177c:	96 17       	fexti33 $r0,#0x2
  40177e:	5a 00 04 38 	beqc $r0,#0x4,4017ee <linkchange+0xc2>
  401782:	b4 09       	lwi450 $r0,[$r9]
  401784:	54 00 0c 00 	andi $r0,$r0,#0xc00
  401788:	c8 33       	bnez38 $r0,4017ee <linkchange+0xc2>
  40178a:	2e 00 4f 4b 	lbi.gp $r0,[+#0x4f4b]
  40178e:	5a 08 01 30 	bnec $r0,#0x1,4017ee <linkchange+0xc2>
  401792:	46 00 05 e0 	sethi $r0,#0x5e0
  401796:	04 10 00 3d 	lwi $r1,[$r0+#0xf4]
  40179a:	3c 2c 13 c5 	lwi.gp $r2,[+#0x4f14]
  40179e:	92 30       	srli45 $r1,#0x10
  4017a0:	96 46       	bmski33 $r1,#0x0
  4017a2:	5a 18 01 34 	bnec $r1,#0x1,40180a <linkchange+0xde>
  4017a6:	5a 28 02 32 	bnec $r2,#0x2,40180a <linkchange+0xde>
  4017aa:	83 80       	mov55 $fp,$r0
  4017ac:	ba 3d       	lwi37 $r2,[$fp+#0xf4]
  4017ae:	44 1e ff ff 	movi $r1,#-65537
  4017b2:	fe 56       	and33 $r1,$r2
  4017b4:	b9 bd       	swi37 $r1,[$fp+#0xf4]
  4017b6:	00 10 00 ec 	lbi $r1,[$r0+#0xec]
  4017ba:	58 10 80 04 	ori $r1,$r1,#0x4
  4017be:	10 10 00 ec 	sbi $r1,[$r0+#0xec]
  4017c2:	50 13 81 2c 	addi $r1,$r7,#0x12c
  4017c6:	b4 01       	lwi450 $r0,[$r1]
  4017c8:	58 00 20 00 	ori $r0,$r0,#0x2000
  4017cc:	b6 01       	swi450 $r0,[$r1]
  4017ce:	b4 01       	lwi450 $r0,[$r1]
  4017d0:	58 00 10 00 	ori $r0,$r0,#0x1000
  4017d4:	b6 01       	swi450 $r0,[$r1]
  4017d6:	d5 0c       	j8 4017ee <linkchange+0xc2>
  4017d8:	5a 60 02 07 	beqc $r6,#0x2,4017e6 <linkchange+0xba>
  4017dc:	5a 68 06 09 	bnec $r6,#0x6,4017ee <linkchange+0xc2>
  4017e0:	3e 0f c9 9c 	addi.gp $r0,#-13924
  4017e4:	d5 03       	j8 4017ea <linkchange+0xbe>
  4017e6:	3e 0f c9 a4 	addi.gp $r0,#-13916
  4017ea:	49 00 12 1c 	jal 403c22 <PRINT_TXT>
  4017ee:	3c 0c 13 e5 	lwi.gp $r0,[+#0x4f94]
  4017f2:	c0 09       	beqz38 $r0,401804 <linkchange+0xd8>
  4017f4:	49 00 12 a0 	jal 403d34 <GIE_DISABLE>
  4017f8:	3c 1c 13 e5 	lwi.gp $r1,[+#0x4f94]
  4017fc:	80 06       	mov55 $r0,$r6
  4017fe:	dd 21       	jral5 $r1
  401800:	49 00 12 95 	jal 403d2a <GIE_ENABLE>
  401804:	3c 6e 13 c5 	swi.gp $r6,[+#0x4f14]
  401808:	fc c0       	pop25 $r10,#0    ! {$r6~$r10, $fp, $gp, $lp}
  40180a:	5a 28 06 f2 	bnec $r2,#0x6,4017ee <linkchange+0xc2>
  40180e:	46 10 05 e0 	sethi $r1,#0x5e0
  401812:	44 01 00 00 	movi $r0,#0x10000
  401816:	83 81       	mov55 $fp,$r1
  401818:	ba 3d       	lwi37 $r2,[$fp+#0xf4]
  40181a:	fe 17       	or33 $r0,$r2
  40181c:	b8 bd       	swi37 $r0,[$fp+#0xf4]
  40181e:	46 00 05 e1 	sethi $r0,#0x5e1
  401822:	44 2f df ff 	movi $r2,#-8193
  401826:	83 80       	mov55 $fp,$r0
  401828:	bb 4b       	lwi37 $r3,[$fp+#0x12c]
  40182a:	fe 9e       	and33 $r2,$r3
  40182c:	ba cb       	swi37 $r2,[$fp+#0x12c]
  40182e:	b8 46       	lwi37 $r0,[$fp+#0x118]
  401830:	92 17       	srli45 $r0,#0x17
  401832:	96 06       	bmski33 $r0,#0x0
  401834:	5a 08 01 dd 	bnec $r0,#0x1,4017ee <linkchange+0xc2>
  401838:	83 81       	mov55 $fp,$r1
  40183a:	ba 3d       	lwi37 $r2,[$fp+#0xf4]
  40183c:	44 0e ff ff 	movi $r0,#-65537
  401840:	fe 16       	and33 $r0,$r2
  401842:	b8 bd       	swi37 $r0,[$fp+#0xf4]
  401844:	d5 d5       	j8 4017ee <linkchange+0xc2>
  401846:	fc c0       	pop25 $r10,#0    ! {$r6~$r10, $fp, $gp, $lp}

00401848 <DSATA_CmdReorderRestart>:
  401848:	fc 40       	push25 $r10,#0    ! {$r6~$r10, $fp, $gp, $lp}
  40184a:	81 20       	mov55 $r9,$r0
  40184c:	81 41       	mov55 $r10,$r1
  40184e:	49 00 12 73 	jal 403d34 <GIE_DISABLE>
  401852:	46 00 05 e6 	sethi $r0,#0x5e6
  401856:	04 70 00 1e 	lwi $r7,[$r0+#0x78]
  40185a:	46 00 05 e1 	sethi $r0,#0x5e1
  40185e:	04 20 00 a7 	lwi $r2,[$r0+#0x29c]
  401862:	04 10 00 a5 	lwi $r1,[$r0+#0x294]
  401866:	e2 41       	slt45 $r2,$r1
  401868:	4e f3 00 7f 	bnez $r15,401966 <DSATA_CmdReorderRestart+0x11e>
  40186c:	3e 38 53 c8 	addi.gp $r3,#0x53c8
  401870:	3c 5c 15 df 	lwi.gp $r5,[+#0x577c]
  401874:	3c 1c 15 e0 	lwi.gp $r1,[+#0x5780]
  401878:	4c 50 80 77 	beq $r5,$r1,401966 <DSATA_CmdReorderRestart+0x11e>
  40187c:	2e 10 4f 0d 	lbi.gp $r1,[+#0x4f0d]
  401880:	84 a0       	movi55 $r5,#0x0
  401882:	3c 1c 15 df 	lwi.gp $r1,[+#0x577c]
  401886:	3c 6c 15 e0 	lwi.gp $r6,[+#0x5780]
  40188a:	81 05       	mov55 $r8,$r5
  40188c:	9b 8e       	sub333 $r6,$r1,$r6
  40188e:	84 21       	movi55 $r1,#0x1
  401890:	51 c0 02 0c 	addi $fp,$r0,#0x20c
  401894:	b6 bc       	swi450 $r5,[$fp]
  401896:	97 b0       	zeb33 $r6,$r6
  401898:	bd a2       	swi37 $r5,[$fp+#0x88]
  40189a:	b6 3c       	swi450 $r1,[$fp]
  40189c:	d6 18       	beqs38 $r6,4018cc <DSATA_CmdReorderRestart+0x84>
  40189e:	2e 20 57 78 	lbi.gp $r2,[+#0x5778]
  4018a2:	96 90       	zeb33 $r2,$r2
  4018a4:	9d 11       	addi333 $r4,$r2,#0x1
  4018a6:	96 a7       	fexti33 $r2,#0x4
  4018a8:	88 43       	add45 $r2,$r3
  4018aa:	97 20       	zeb33 $r4,$r4
  4018ac:	3e 40 57 78 	sbi.gp $r4,[+#0x5778]
  4018b0:	00 41 03 bc 	lbi $r4,[$r2+#0x3bc]
  4018b4:	94 aa       	slli333 $r2,$r5,#0x2
  4018b6:	88 40       	add45 $r2,$r0
  4018b8:	8c a1       	addi45 $r5,#0x1
  4018ba:	14 41 00 84 	swi $r4,[$r2+#0x210]
  4018be:	04 21 00 84 	lwi $r2,[$r2+#0x210]
  4018c2:	40 20 88 0c 	sll $r2,$r1,$r2
  4018c6:	40 84 08 04 	or $r8,$r8,$r2
  4018ca:	d5 e9       	j8 40189c <DSATA_CmdReorderRestart+0x54>
  4018cc:	47 c0 05 e1 	sethi $fp,#0x5e1
  4018d0:	14 6e 00 a5 	swi $r6,[$fp+#0x294]
  4018d4:	3e 60 4f 19 	sbi.gp $r6,[+#0x4f19]
  4018d8:	4e a2 00 07 	beqz $r10,4018e6 <DSATA_CmdReorderRestart+0x9e>
  4018dc:	b8 6f       	lwi37 $r0,[$fp+#0x1bc]
  4018de:	46 10 05 e1 	sethi $r1,#0x5e1
  4018e2:	c0 11       	beqz38 $r0,401904 <DSATA_CmdReorderRestart+0xbc>
  4018e4:	d5 16       	j8 401910 <DSATA_CmdReorderRestart+0xc8>
  4018e6:	04 0e 00 84 	lwi $r0,[$fp+#0x210]
  4018ea:	e6 0b       	slti45 $r0,#0xb
  4018ec:	e8 f8       	beqzs8 4018dc <DSATA_CmdReorderRestart+0x94>
  4018ee:	b8 44       	lwi37 $r0,[$fp+#0x110]
  4018f0:	96 06       	bmski33 $r0,#0x0
  4018f2:	c8 f5       	bnez38 $r0,4018dc <DSATA_CmdReorderRestart+0x94>
  4018f4:	49 00 12 27 	jal 403d42 <__enable_performance>
  4018f8:	49 00 12 31 	jal 403d5a <__get_pfm_count>
  4018fc:	5c f0 00 c8 	slti $r15,$r0,#0xc8
  401900:	e9 fc       	bnezs8 4018f8 <DSATA_CmdReorderRestart+0xb0>
  401902:	d5 ed       	j8 4018dc <DSATA_CmdReorderRestart+0x94>
  401904:	04 50 80 46 	lwi $r5,[$r1+#0x118]
  401908:	84 41       	movi55 $r2,#0x1
  40190a:	92 a4       	srli45 $r5,#0x4
  40190c:	97 46       	bmski33 $r5,#0x0
  40190e:	da 0f       	bnes38 $r2,40192c <DSATA_CmdReorderRestart+0xe4>
  401910:	2e 00 57 78 	lbi.gp $r0,[+#0x5778]
  401914:	96 27       	fexti33 $r0,#0x4
  401916:	3e 00 57 78 	sbi.gp $r0,[+#0x5778]
  40191a:	3c 0c 15 df 	lwi.gp $r0,[+#0x577c]
  40191e:	3c 0e 15 e0 	swi.gp $r0,[+#0x5780]
  401922:	3e 0f c9 ac 	addi.gp $r0,#-13908
  401926:	49 00 11 7e 	jal 403c22 <PRINT_TXT>
  40192a:	d5 22       	j8 40196e <DSATA_CmdReorderRestart+0x126>
  40192c:	83 81       	mov55 $fp,$r1
  40192e:	ba ea       	swi37 $r2,[$fp+#0x1a8]
  401930:	b8 44       	lwi37 $r0,[$fp+#0x110]
  401932:	96 06       	bmski33 $r0,#0x0
  401934:	c0 09       	beqz38 $r0,401946 <DSATA_CmdReorderRestart+0xfe>
  401936:	4e a3 00 08 	bnez $r10,401946 <DSATA_CmdReorderRestart+0xfe>
  40193a:	14 20 80 44 	swi $r2,[$r1+#0x110]
  40193e:	b4 09       	lwi450 $r0,[$r9]
  401940:	58 00 00 01 	ori $r0,$r0,#0x1
  401944:	b6 09       	swi450 $r0,[$r9]
  401946:	2e 00 57 78 	lbi.gp $r0,[+#0x5778]
  40194a:	96 27       	fexti33 $r0,#0x4
  40194c:	3e 00 57 78 	sbi.gp $r0,[+#0x5778]
  401950:	3c 0c 15 e0 	lwi.gp $r0,[+#0x5780]
  401954:	88 c0       	add45 $r6,$r0
  401956:	3c 6e 15 e0 	swi.gp $r6,[+#0x5780]
  40195a:	46 00 05 e6 	sethi $r0,#0x5e6
  40195e:	14 80 00 12 	swi $r8,[$r0+#0x48]
  401962:	14 80 00 1a 	swi $r8,[$r0+#0x68]
  401966:	c7 04       	beqz38 $r7,40196e <DSATA_CmdReorderRestart+0x126>
  401968:	80 07       	mov55 $r0,$r7
  40196a:	49 00 0d 3c 	jal 4033e2 <TQM_RemoveMulTask>
  40196e:	49 00 11 de 	jal 403d2a <GIE_ENABLE>
  401972:	fc c0       	pop25 $r10,#0    ! {$r6~$r10, $fp, $gp, $lp}

00401974 <DSATA_Update_rPCMDR>:
  401974:	46 40 05 e1 	sethi $r4,#0x5e1
  401978:	44 2f df ed 	movi $r2,#-8211
  40197c:	04 32 00 46 	lwi $r3,[$r4+#0x118]
  401980:	40 10 80 0c 	sll $r1,$r1,$r0
  401984:	fe 9e       	and33 $r2,$r3
  401986:	84 61       	movi55 $r3,#0x1
  401988:	40 31 80 0c 	sll $r3,$r3,$r0
  40198c:	fe db       	not33 $r3,$r3
  40198e:	fe 9e       	and33 $r2,$r3
  401990:	fe 8f       	or33 $r2,$r1
  401992:	14 22 00 46 	swi $r2,[$r4+#0x118]
  401996:	dd 9e       	ret5 $lp

00401998 <DSATA_TrigeSendFis>:
  401998:	fc 00       	push25 $r6,#0    ! {$r6, $fp, $gp, $lp}
  40199a:	84 21       	movi55 $r1,#0x1
  40199c:	80 c0       	mov55 $r6,$r0
  40199e:	84 0d       	movi55 $r0,#0xd
  4019a0:	49 ff ff ea 	jal 401974 <DSATA_Update_rPCMDR>
  4019a4:	5a 68 05 05 	bnec $r6,#0x5,4019ae <DSATA_TrigeSendFis+0x16>
  4019a8:	46 10 05 e1 	sethi $r1,#0x5e1
  4019ac:	d5 3a       	j8 401a20 <DSATA_TrigeSendFis+0x88>
  4019ae:	5a 60 07 22 	beqc $r6,#0x7,4019f2 <DSATA_TrigeSendFis+0x5a>
  4019b2:	5a 68 01 40 	bnec $r6,#0x1,401a32 <DSATA_TrigeSendFis+0x9a>
  4019b6:	80 26       	mov55 $r1,$r6
  4019b8:	fa 00       	movpi45 $r0,#0x10
  4019ba:	46 60 13 12 	sethi $r6,#0x1312
  4019be:	49 ff ff db 	jal 401974 <DSATA_Update_rPCMDR>
  4019c2:	50 63 0c ff 	addi $r6,$r6,#0xcff
  4019c6:	49 00 11 be 	jal 403d42 <__enable_performance>
  4019ca:	46 00 05 e1 	sethi $r0,#0x5e1
  4019ce:	04 00 00 46 	lwi $r0,[$r0+#0x118]
  4019d2:	92 10       	srli45 $r0,#0x10
  4019d4:	96 06       	bmski33 $r0,#0x0
  4019d6:	c0 0d       	beqz38 $r0,4019f0 <DSATA_TrigeSendFis+0x58>
  4019d8:	49 00 11 c1 	jal 403d5a <__get_pfm_count>
  4019dc:	e2 c0       	slt45 $r6,$r0
  4019de:	e8 f6       	beqzs8 4019ca <DSATA_TrigeSendFis+0x32>
  4019e0:	3e 0f c9 c0 	addi.gp $r0,#-13888
  4019e4:	49 00 11 1f 	jal 403c22 <PRINT_TXT>
  4019e8:	84 01       	movi55 $r0,#0x1
  4019ea:	49 00 12 5e 	jal 403ea6 <delay_ms>
  4019ee:	fc 80       	pop25 $r6,#0    ! {$r6, $fp, $gp, $lp}
  4019f0:	fc 80       	pop25 $r6,#0    ! {$r6, $fp, $gp, $lp}
  4019f2:	46 60 be bc 	sethi $r6,#0xbebc
  4019f6:	49 00 11 a6 	jal 403d42 <__enable_performance>
  4019fa:	50 63 01 ff 	addi $r6,$r6,#0x1ff
  4019fe:	46 00 05 e1 	sethi $r0,#0x5e1
  401a02:	04 00 00 46 	lwi $r0,[$r0+#0x118]
  401a06:	92 11       	srli45 $r0,#0x11
  401a08:	96 06       	bmski33 $r0,#0x0
  401a0a:	c0 09       	beqz38 $r0,401a1c <DSATA_TrigeSendFis+0x84>
  401a0c:	49 00 11 a7 	jal 403d5a <__get_pfm_count>
  401a10:	e2 c0       	slt45 $r6,$r0
  401a12:	e8 f6       	beqzs8 4019fe <DSATA_TrigeSendFis+0x66>
  401a14:	3e 0f c9 c8 	addi.gp $r0,#-13880
  401a18:	49 00 11 05 	jal 403c22 <PRINT_TXT>
  401a1c:	fa 01       	movpi45 $r0,#0x11
  401a1e:	d5 07       	j8 401a2c <DSATA_TrigeSendFis+0x94>
  401a20:	04 00 80 46 	lwi $r0,[$r1+#0x118]
  401a24:	92 12       	srli45 $r0,#0x12
  401a26:	96 06       	bmski33 $r0,#0x0
  401a28:	c8 fc       	bnez38 $r0,401a20 <DSATA_TrigeSendFis+0x88>
  401a2a:	fa 02       	movpi45 $r0,#0x12
  401a2c:	84 21       	movi55 $r1,#0x1
  401a2e:	49 ff ff a3 	jal 401974 <DSATA_Update_rPCMDR>
  401a32:	fc 80       	pop25 $r6,#0    ! {$r6, $fp, $gp, $lp}

00401a34 <DSATA_SendD2HFis>:
  401a34:	fc 00       	push25 $r6,#0    ! {$r6, $fp, $gp, $lp}
  401a36:	49 ff fb 6a 	jal 40110a <DSATA_BuildD2HFis>
  401a3a:	84 01       	movi55 $r0,#0x1
  401a3c:	49 ff ff ae 	jal 401998 <DSATA_TrigeSendFis>
  401a40:	fc 80       	pop25 $r6,#0    ! {$r6, $fp, $gp, $lp}

00401a42 <DSATA_TransferStart>:
  401a42:	46 20 05 e1 	sethi $r2,#0x5e1
  401a46:	04 11 00 4e 	lwi $r1,[$r2+#0x138]
  401a4a:	c9 06       	bnez38 $r1,401a56 <DSATA_TransferStart+0x14>
  401a4c:	84 21       	movi55 $r1,#0x1
  401a4e:	40 00 80 0c 	sll $r0,$r1,$r0
  401a52:	14 01 00 4e 	swi $r0,[$r2+#0x138]
  401a56:	dd 9e       	ret5 $lp

00401a58 <DSATA_GetCurrentCmdSlot>:
  401a58:	46 00 05 e1 	sethi $r0,#0x5e1
  401a5c:	04 00 00 46 	lwi $r0,[$r0+#0x118]
  401a60:	92 08       	srli45 $r0,#0x8
  401a62:	96 27       	fexti33 $r0,#0x4
  401a64:	dd 9e       	ret5 $lp

00401a66 <DSATA_GetPrdRemainItems>:
  401a66:	46 00 05 e1 	sethi $r0,#0x5e1
  401a6a:	04 00 00 60 	lwi $r0,[$r0+#0x180]
  401a6e:	dd 9e       	ret5 $lp

00401a70 <DSATA_IsAutoSendEnabled>:
  401a70:	46 00 05 e1 	sethi $r0,#0x5e1
  401a74:	04 00 00 46 	lwi $r0,[$r0+#0x118]
  401a78:	92 0f       	srli45 $r0,#0xf
  401a7a:	96 06       	bmski33 $r0,#0x0
  401a7c:	dd 9e       	ret5 $lp

00401a7e <DSATA_EnableAutoSend>:
  401a7e:	fc 00       	push25 $r6,#0    ! {$r6, $fp, $gp, $lp}
  401a80:	46 00 05 e1 	sethi $r0,#0x5e1
  401a84:	84 22       	movi55 $r1,#0x2
  401a86:	14 10 00 44 	swi $r1,[$r0+#0x110]
  401a8a:	84 0f       	movi55 $r0,#0xf
  401a8c:	84 21       	movi55 $r1,#0x1
  401a8e:	49 ff ff 73 	jal 401974 <DSATA_Update_rPCMDR>
  401a92:	fc 80       	pop25 $r6,#0    ! {$r6, $fp, $gp, $lp}

00401a94 <DSATA_DisableAutoSend>:
  401a94:	fc 00       	push25 $r6,#0    ! {$r6, $fp, $gp, $lp}
  401a96:	84 0f       	movi55 $r0,#0xf
  401a98:	84 20       	movi55 $r1,#0x0
  401a9a:	49 ff ff 6d 	jal 401974 <DSATA_Update_rPCMDR>
  401a9e:	46 10 05 e1 	sethi $r1,#0x5e1
  401aa2:	84 1d       	movi55 $r0,#-3
  401aa4:	83 81       	mov55 $fp,$r1
  401aa6:	ba 45       	lwi37 $r2,[$fp+#0x114]
  401aa8:	fe 16       	and33 $r0,$r2
  401aaa:	b8 c5       	swi37 $r0,[$fp+#0x114]
  401aac:	fc 80       	pop25 $r6,#0    ! {$r6, $fp, $gp, $lp}

00401aae <DSATA_EnableRxFis>:
  401aae:	fc 00       	push25 $r6,#0    ! {$r6, $fp, $gp, $lp}
  401ab0:	84 04       	movi55 $r0,#0x4
  401ab2:	84 21       	movi55 $r1,#0x1
  401ab4:	49 ff ff 60 	jal 401974 <DSATA_Update_rPCMDR>
  401ab8:	fc 80       	pop25 $r6,#0    ! {$r6, $fp, $gp, $lp}

00401aba <HW4_ISR>:
  401aba:	fc 01       	push25 $r6,#8    ! {$r6, $fp, $gp, $lp}
  401abc:	46 60 05 e1 	sethi $r6,#0x5e1
  401ac0:	49 00 12 0a 	jal 403ed4 <SystemClkRecovery>
  401ac4:	83 86       	mov55 $fp,$r6
  401ac6:	b9 4b       	lwi37 $r1,[$fp+#0x12c]
  401ac8:	44 0f ef ff 	movi $r0,#-4097
  401acc:	fe 0e       	and33 $r0,$r1
  401ace:	b8 cb       	swi37 $r0,[$fp+#0x12c]
  401ad0:	fa 07       	movpi45 $r0,#0x17
  401ad2:	49 00 11 6f 	jal 403db0 <NVIC_DisableIRQ>
  401ad6:	b8 44       	lwi37 $r0,[$fp+#0x110]
  401ad8:	b9 45       	lwi37 $r1,[$fp+#0x114]
  401ada:	fe 0e       	and33 $r0,$r1
  401adc:	f0 81       	swi37.sp $r0,[+#0x4]
  401ade:	b8 45       	lwi37 $r0,[$fp+#0x114]
  401ae0:	fe 03       	not33 $r0,$r0
  401ae2:	b8 c4       	swi37 $r0,[$fp+#0x110]
  401ae4:	f1 01       	lwi37.sp $r1,[+#0x4]
  401ae6:	46 00 40 00 	sethi $r0,#0x4000
  401aea:	fe 0e       	and33 $r0,$r1
  401aec:	c0 06       	beqz38 $r0,401af8 <HW4_ISR+0x3e>
  401aee:	46 00 05 e0 	sethi $r0,#0x5e0
  401af2:	44 10 00 cc 	movi $r1,#0xcc
  401af6:	a8 43       	swi333 $r1,[$r0+#0xc]
  401af8:	fa 07       	movpi45 $r0,#0x17
  401afa:	49 00 11 50 	jal 403d9a <NVIC_EnableIRQ>
  401afe:	64 00 00 08 	dsb
  401b02:	46 20 05 e1 	sethi $r2,#0x5e1
  401b06:	2e 10 4f 5e 	lbi.gp $r1,[+#0x4f5e]
  401b0a:	f0 01       	lwi37.sp $r0,[+#0x4]
  401b0c:	5a 18 01 12 	bnec $r1,#0x1,401b30 <HW4_ISR+0x76>
  401b10:	04 11 00 6f 	lwi $r1,[$r2+#0x1bc]
  401b14:	c9 07       	bnez38 $r1,401b22 <HW4_ISR+0x68>
  401b16:	04 11 00 46 	lwi $r1,[$r2+#0x118]
  401b1a:	92 24       	srli45 $r1,#0x4
  401b1c:	96 46       	bmski33 $r1,#0x0
  401b1e:	5a 18 01 09 	bnec $r1,#0x1,401b30 <HW4_ISR+0x76>
  401b22:	84 3e       	movi55 $r1,#-2
  401b24:	fe 0e       	and33 $r0,$r1
  401b26:	46 10 05 e1 	sethi $r1,#0x5e1
  401b2a:	14 00 80 44 	swi $r0,[$r1+#0x110]
  401b2e:	d5 03       	j8 401b34 <HW4_ISR+0x7a>
  401b30:	14 01 00 44 	swi $r0,[$r2+#0x110]
  401b34:	3c 0c 13 d8 	lwi.gp $r0,[+#0x4f60]
  401b38:	c0 0f       	beqz38 $r0,401b56 <HW4_ISR+0x9c>
  401b3a:	f1 01       	lwi37.sp $r1,[+#0x4]
  401b3c:	54 00 81 00 	andi $r0,$r1,#0x100
  401b40:	c8 08       	bnez38 $r0,401b50 <HW4_ISR+0x96>
  401b42:	46 04 00 00 	sethi $r0,#0x40000
  401b46:	fe 0e       	and33 $r0,$r1
  401b48:	c0 07       	beqz38 $r0,401b56 <HW4_ISR+0x9c>
  401b4a:	3c 0c 13 c5 	lwi.gp $r0,[+#0x4f14]
  401b4e:	c8 04       	bnez38 $r0,401b56 <HW4_ISR+0x9c>
  401b50:	b0 01       	addri36.sp $r0,#0x4
  401b52:	49 ff fd a5 	jal 40169c <comreset>
  401b56:	f0 01       	lwi37.sp $r0,[+#0x4]
  401b58:	54 00 02 00 	andi $r0,$r0,#0x200
  401b5c:	c0 09       	beqz38 $r0,401b6e <HW4_ISR+0xb4>
  401b5e:	b0 01       	addri36.sp $r0,#0x4
  401b60:	49 ff fd e6 	jal 40172c <linkchange>
  401b64:	f1 01       	lwi37.sp $r1,[+#0x4]
  401b66:	44 0f fd ff 	movi $r0,#-513
  401b6a:	fe 0e       	and33 $r0,$r1
  401b6c:	f0 81       	swi37.sp $r0,[+#0x4]
  401b6e:	f1 01       	lwi37.sp $r1,[+#0x4]
  401b70:	46 02 00 00 	sethi $r0,#0x20000
  401b74:	fe 0e       	and33 $r0,$r1
  401b76:	c0 0c       	beqz38 $r0,401b8e <HW4_ISR+0xd4>
  401b78:	b0 01       	addri36.sp $r0,#0x4
  401b7a:	84 20       	movi55 $r1,#0x0
  401b7c:	49 ff fe 66 	jal 401848 <DSATA_CmdReorderRestart>
  401b80:	f1 01       	lwi37.sp $r1,[+#0x4]
  401b82:	46 0d ff ff 	sethi $r0,#0xdffff
  401b86:	50 00 0f ff 	addi $r0,$r0,#0xfff
  401b8a:	fe 0e       	and33 $r0,$r1
  401b8c:	f0 81       	swi37.sp $r0,[+#0x4]
  401b8e:	3c 0c 13 dc 	lwi.gp $r0,[+#0x4f70]
  401b92:	c8 06       	bnez38 $r0,401b9e <HW4_ISR+0xe4>
  401b94:	f2 01       	lwi37.sp $r2,[+#0x4]
  401b96:	54 01 00 40 	andi $r0,$r2,#0x40
  401b9a:	c8 10       	bnez38 $r0,401bba <HW4_ISR+0x100>
  401b9c:	d5 35       	j8 401c06 <HW4_ISR+0x14c>
  401b9e:	3c 1c 13 dc 	lwi.gp $r1,[+#0x4f70]
  401ba2:	3c 6c 13 d8 	lwi.gp $r6,[+#0x4f60]
  401ba6:	b0 01       	addri36.sp $r0,#0x4
  401ba8:	dd 21       	jral5 $r1
  401baa:	64 00 00 08 	dsb
  401bae:	3c 0c 13 d8 	lwi.gp $r0,[+#0x4f60]
  401bb2:	4c 60 3f f1 	beq $r6,$r0,401b94 <HW4_ISR+0xda>
  401bb6:	f0 01       	lwi37.sp $r0,[+#0x4]
  401bb8:	d5 ed       	j8 401b92 <HW4_ISR+0xd8>
  401bba:	46 00 05 e1 	sethi $r0,#0x5e1
  401bbe:	04 10 00 4b 	lwi $r1,[$r0+#0x12c]
  401bc2:	92 2d       	srli45 $r1,#0xd
  401bc4:	96 46       	bmski33 $r1,#0x0
  401bc6:	c9 08       	bnez38 $r1,401bd6 <HW4_ISR+0x11c>
  401bc8:	3e 10 4f 4b 	sbi.gp $r1,[+#0x4f4b]
  401bcc:	04 30 00 4b 	lwi $r3,[$r0+#0x12c]
  401bd0:	44 1f ef ff 	movi $r1,#-4097
  401bd4:	d5 16       	j8 401c00 <HW4_ISR+0x146>
  401bd6:	04 10 00 4b 	lwi $r1,[$r0+#0x12c]
  401bda:	92 2d       	srli45 $r1,#0xd
  401bdc:	96 46       	bmski33 $r1,#0x0
  401bde:	5a 18 01 14 	bnec $r1,#0x1,401c06 <HW4_ISR+0x14c>
  401be2:	84 20       	movi55 $r1,#0x0
  401be4:	3e 10 4f 0c 	sbi.gp $r1,[+#0x4f0c]
  401be8:	46 30 05 e0 	sethi $r3,#0x5e0
  401bec:	44 1e ff ff 	movi $r1,#-65537
  401bf0:	83 83       	mov55 $fp,$r3
  401bf2:	bc 3d       	lwi37 $r4,[$fp+#0xf4]
  401bf4:	fe 66       	and33 $r1,$r4
  401bf6:	b9 bd       	swi37 $r1,[$fp+#0xf4]
  401bf8:	04 30 00 4b 	lwi $r3,[$r0+#0x12c]
  401bfc:	44 1f df ff 	movi $r1,#-8193
  401c00:	fe 5e       	and33 $r1,$r3
  401c02:	14 10 00 4b 	swi $r1,[$r0+#0x12c]
  401c06:	54 21 04 00 	andi $r2,$r2,#0x400
  401c0a:	c2 0d       	beqz38 $r2,401c24 <HW4_ISR+0x16a>
  401c0c:	46 10 05 e0 	sethi $r1,#0x5e0
  401c10:	44 0e ff ff 	movi $r0,#-65537
  401c14:	83 81       	mov55 $fp,$r1
  401c16:	ba 3d       	lwi37 $r2,[$fp+#0xf4]
  401c18:	fe 16       	and33 $r0,$r2
  401c1a:	b8 bd       	swi37 $r0,[$fp+#0xf4]
  401c1c:	3e 0f c9 d0 	addi.gp $r0,#-13872
  401c20:	49 00 10 01 	jal 403c22 <PRINT_TXT>
  401c24:	f0 01       	lwi37.sp $r0,[+#0x4]
  401c26:	54 00 08 00 	andi $r0,$r0,#0x800
  401c2a:	c0 05       	beqz38 $r0,401c34 <HW4_ISR+0x17a>
  401c2c:	3e 0f c9 d8 	addi.gp $r0,#-13864
  401c30:	49 00 0f f9 	jal 403c22 <PRINT_TXT>
  401c34:	f1 01       	lwi37.sp $r1,[+#0x4]
  401c36:	46 00 40 00 	sethi $r0,#0x4000
  401c3a:	fe 0e       	and33 $r0,$r1
  401c3c:	c0 07       	beqz38 $r0,401c4a <HW4_ISR+0x190>
  401c3e:	3e 0f c9 e0 	addi.gp $r0,#-13856
  401c42:	49 00 0f f0 	jal 403c22 <PRINT_TXT>
  401c46:	49 00 04 c6 	jal 4025d2 <SATA_Fatal_Error_Handler>
  401c4a:	f1 01       	lwi37.sp $r1,[+#0x4]
  401c4c:	46 00 20 00 	sethi $r0,#0x2000
  401c50:	fe 0e       	and33 $r0,$r1
  401c52:	c0 07       	beqz38 $r0,401c60 <HW4_ISR+0x1a6>
  401c54:	3e 0f c9 e4 	addi.gp $r0,#-13852
  401c58:	49 00 0f e5 	jal 403c22 <PRINT_TXT>
  401c5c:	49 00 04 68 	jal 40252c <SATA_Non_Fatal_Error_Handler>
  401c60:	f0 01       	lwi37.sp $r0,[+#0x4]
  401c62:	96 06       	bmski33 $r0,#0x0
  401c64:	c0 10       	beqz38 $r0,401c84 <HW4_ISR+0x1ca>
  401c66:	49 00 05 72 	jal 40274a <SATA_SReset_Handler>
  401c6a:	c8 0d       	bnez38 $r0,401c84 <HW4_ISR+0x1ca>
  401c6c:	3e 0f c9 ec 	addi.gp $r0,#-13844
  401c70:	49 00 0f d9 	jal 403c22 <PRINT_TXT>
  401c74:	49 ff ff 1d 	jal 401aae <DSATA_EnableRxFis>
  401c78:	44 00 00 51 	movi $r0,#0x51
  401c7c:	84 24       	movi55 $r1,#0x4
  401c7e:	84 41       	movi55 $r2,#0x1
  401c80:	49 ff fe da 	jal 401a34 <DSATA_SendD2HFis>
  401c84:	f1 01       	lwi37.sp $r1,[+#0x4]
  401c86:	54 00 80 04 	andi $r0,$r1,#0x4
  401c8a:	c0 09       	beqz38 $r0,401c9c <HW4_ISR+0x1e2>
  401c8c:	84 1b       	movi55 $r0,#-5
  401c8e:	fe 0e       	and33 $r0,$r1
  401c90:	f0 81       	swi37.sp $r0,[+#0x4]
  401c92:	2e 00 4f 64 	lbi.gp $r0,[+#0x4f64]
  401c96:	c0 03       	beqz38 $r0,401c9c <HW4_ISR+0x1e2>
  401c98:	49 00 04 9d 	jal 4025d2 <SATA_Fatal_Error_Handler>
  401c9c:	f0 01       	lwi37.sp $r0,[+#0x4]
  401c9e:	96 1e       	bmski33 $r0,#0x3
  401ca0:	c0 05       	beqz38 $r0,401caa <HW4_ISR+0x1f0>
  401ca2:	84 0d       	movi55 $r0,#0xd
  401ca4:	84 21       	movi55 $r1,#0x1
  401ca6:	49 ff fe 67 	jal 401974 <DSATA_Update_rPCMDR>
  401caa:	f2 01       	lwi37.sp $r2,[+#0x4]
  401cac:	54 01 00 10 	andi $r0,$r2,#0x10
  401cb0:	c0 08       	beqz38 $r0,401cc0 <HW4_ISR+0x206>
  401cb2:	46 00 05 e1 	sethi $r0,#0x5e1
  401cb6:	83 80       	mov55 $fp,$r0
  401cb8:	b9 46       	lwi37 $r1,[$fp+#0x118]
  401cba:	58 10 c0 00 	ori $r1,$r1,#0x4000
  401cbe:	b9 c6       	swi37 $r1,[$fp+#0x118]
  401cc0:	46 01 00 00 	sethi $r0,#0x10000
  401cc4:	fe 16       	and33 $r0,$r2
  401cc6:	c0 0a       	beqz38 $r0,401cda <HW4_ISR+0x220>
  401cc8:	46 10 05 e1 	sethi $r1,#0x5e1
  401ccc:	83 81       	mov55 $fp,$r1
  401cce:	b8 46       	lwi37 $r0,[$fp+#0x118]
  401cd0:	58 00 40 00 	ori $r0,$r0,#0x4000
  401cd4:	b8 c6       	swi37 $r0,[$fp+#0x118]
  401cd6:	49 00 04 7e 	jal 4025d2 <SATA_Fatal_Error_Handler>
  401cda:	fc 81       	pop25 $r6,#8    ! {$r6, $fp, $gp, $lp}

00401cdc <SATA_DI_StateMachine>:
  401cdc:	fc 00       	push25 $r6,#0    ! {$r6, $fp, $gp, $lp}
  401cde:	3c 0c 13 c2 	lwi.gp $r0,[+#0x4f08]
  401ce2:	c8 56       	bnez38 $r0,401d8e <SATA_DI_StateMachine+0xb2>
  401ce4:	49 00 10 28 	jal 403d34 <GIE_DISABLE>
  401ce8:	2e 00 4f 4b 	lbi.gp $r0,[+#0x4f4b]
  401cec:	5a 08 01 4c 	bnec $r0,#0x1,401d84 <SATA_DI_StateMachine+0xa8>
  401cf0:	2e 00 4f 64 	lbi.gp $r0,[+#0x4f64]
  401cf4:	c8 48       	bnez38 $r0,401d84 <SATA_DI_StateMachine+0xa8>
  401cf6:	2e 00 53 00 	lbi.gp $r0,[+#0x5300]
  401cfa:	5a 08 22 45 	bnec $r0,#0x22,401d84 <SATA_DI_StateMachine+0xa8>
  401cfe:	2e 00 53 20 	lbi.gp $r0,[+#0x5320]
  401d02:	5a 08 22 41 	bnec $r0,#0x22,401d84 <SATA_DI_StateMachine+0xa8>
  401d06:	2e 00 4f 46 	lbi.gp $r0,[+#0x4f46]
  401d0a:	c8 3d       	bnez38 $r0,401d84 <SATA_DI_StateMachine+0xa8>
  401d0c:	46 00 05 e1 	sethi $r0,#0x5e1
  401d10:	04 10 00 d0 	lwi $r1,[$r0+#0x340]
  401d14:	c9 38       	bnez38 $r1,401d84 <SATA_DI_StateMachine+0xa8>
  401d16:	04 10 00 ce 	lwi $r1,[$r0+#0x338]
  401d1a:	c9 35       	bnez38 $r1,401d84 <SATA_DI_StateMachine+0xa8>
  401d1c:	3c 1c 13 c5 	lwi.gp $r1,[+#0x4f14]
  401d20:	5a 18 01 35 	bnec $r1,#0x1,401d8a <SATA_DI_StateMachine+0xae>
  401d24:	04 00 00 4b 	lwi $r0,[$r0+#0x12c]
  401d28:	92 0c       	srli45 $r0,#0xc
  401d2a:	96 06       	bmski33 $r0,#0x0
  401d2c:	c8 2f       	bnez38 $r0,401d8a <SATA_DI_StateMachine+0xae>
  401d2e:	3c 03 ff 77 	lhi.gp $r0,[+#-274]
  401d32:	e6 03       	slti45 $r0,#0x3
  401d34:	e9 26       	bnezs8 401d80 <SATA_DI_StateMachine+0xa4>
  401d36:	84 00       	movi55 $r0,#0x0
  401d38:	3c 0b ff 77 	shi.gp $r0,[+#-274]
  401d3c:	46 00 05 e1 	sethi $r0,#0x5e1
  401d40:	44 1f df ff 	movi $r1,#-8193
  401d44:	50 30 01 18 	addi $r3,$r0,#0x118
  401d48:	a0 9d       	lwi333 $r2,[$r3+#0x14]
  401d4a:	fe 56       	and33 $r1,$r2
  401d4c:	a8 5d       	swi333 $r1,[$r3+#0x14]
  401d4e:	b4 23       	lwi450 $r1,[$r3]
  401d50:	46 20 05 e0 	sethi $r2,#0x5e0
  401d54:	92 37       	srli45 $r1,#0x17
  401d56:	96 46       	bmski33 $r1,#0x0
  401d58:	04 31 00 3d 	lwi $r3,[$r2+#0xf4]
  401d5c:	5a 18 01 06 	bnec $r1,#0x1,401d68 <SATA_DI_StateMachine+0x8c>
  401d60:	44 1e ff ff 	movi $r1,#-65537
  401d64:	fe 5e       	and33 $r1,$r3
  401d66:	d5 04       	j8 401d6e <SATA_DI_StateMachine+0x92>
  401d68:	44 11 00 00 	movi $r1,#0x10000
  401d6c:	fe 5f       	or33 $r1,$r3
  401d6e:	14 11 00 3d 	swi $r1,[$r2+#0xf4]
  401d72:	04 10 00 4b 	lwi $r1,[$r0+#0x12c]
  401d76:	58 10 90 00 	ori $r1,$r1,#0x1000
  401d7a:	14 10 00 4b 	swi $r1,[$r0+#0x12c]
  401d7e:	d5 06       	j8 401d8a <SATA_DI_StateMachine+0xae>
  401d80:	8c 01       	addi45 $r0,#0x1
  401d82:	d5 02       	j8 401d86 <SATA_DI_StateMachine+0xaa>
  401d84:	84 00       	movi55 $r0,#0x0
  401d86:	3c 0b ff 77 	shi.gp $r0,[+#-274]
  401d8a:	49 00 0f d0 	jal 403d2a <GIE_ENABLE>
  401d8e:	fc 80       	pop25 $r6,#0    ! {$r6, $fp, $gp, $lp}

00401d90 <SATA_DI_IntEventHandler>:
  401d90:	fc 40       	push25 $r10,#0    ! {$r6~$r10, $fp, $gp, $lp}
  401d92:	b4 20       	lwi450 $r1,[$r0]
  401d94:	85 21       	movi55 $r9,#0x1
  401d96:	80 e0       	mov55 $r7,$r0
  401d98:	40 00 a4 02 	and $r0,$r1,$r9
  401d9c:	4e 02 00 5b 	beqz $r0,401e52 <SATA_DI_IntEventHandler+0xc2>
  401da0:	84 1e       	movi55 $r0,#-2
  401da2:	fe 0e       	and33 $r0,$r1
  401da4:	b6 07       	swi450 $r0,[$r7]
  401da6:	49 00 04 d2 	jal 40274a <SATA_SReset_Handler>
  401daa:	81 00       	mov55 $r8,$r0
  401dac:	4e 03 00 53 	bnez $r0,401e52 <SATA_DI_IntEventHandler+0xc2>
  401db0:	2e 00 4e ea 	lbi.gp $r0,[+#0x4eea]
  401db4:	49 ff f1 78 	jal 4000a4 <ATACmd_ParseCmd>
  401db8:	80 c0       	mov55 $r6,$r0
  401dba:	3c 0c 13 c4 	lwi.gp $r0,[+#0x4f10]
  401dbe:	5a 08 02 04 	bnec $r0,#0x2,401dc6 <SATA_DI_IntEventHandler+0x36>
  401dc2:	48 00 00 48 	j 401e52 <SATA_DI_IntEventHandler+0xc2>
  401dc6:	c6 39       	beqz38 $r6,401e38 <SATA_DI_IntEventHandler+0xa8>
  401dc8:	a6 30       	lbi333 $r0,[$r6+#0x0]
  401dca:	3e 00 4f 49 	sbi.gp $r0,[+#0x4f49]
  401dce:	00 a3 00 01 	lbi $r10,[$r6+#0x1]
  401dd2:	5a a8 0d 0c 	bnec $r10,#0xd,401dea <SATA_DI_IntEventHandler+0x5a>
  401dd6:	80 0a       	mov55 $r0,$r10
  401dd8:	3e 18 4e e8 	addi.gp $r1,#0x4ee8
  401ddc:	49 00 04 7e 	jal 4026d8 <SATA_SaveH2DFis>
  401de0:	80 0a       	mov55 $r0,$r10
  401de2:	80 29       	mov55 $r1,$r9
  401de4:	49 00 03 86 	jal 4024f0 <SATA_ChangeState>
  401de8:	d5 25       	j8 401e32 <SATA_DI_IntEventHandler+0xa2>
  401dea:	2e 00 4f 5e 	lbi.gp $r0,[+#0x4f5e]
  401dee:	5a 08 01 07 	bnec $r0,#0x1,401dfc <SATA_DI_IntEventHandler+0x6c>
  401df2:	84 0d       	movi55 $r0,#0xd
  401df4:	84 2c       	movi55 $r1,#0xc
  401df6:	49 00 03 7d 	jal 4024f0 <SATA_ChangeState>
  401dfa:	d5 2c       	j8 401e52 <SATA_DI_IntEventHandler+0xc2>
  401dfc:	80 0a       	mov55 $r0,$r10
  401dfe:	80 28       	mov55 $r1,$r8
  401e00:	49 00 03 78 	jal 4024f0 <SATA_ChangeState>
  401e04:	2e 00 4f 64 	lbi.gp $r0,[+#0x4f64]
  401e08:	c0 10       	beqz38 $r0,401e28 <SATA_DI_IntEventHandler+0x98>
  401e0a:	44 00 00 51 	movi $r0,#0x51
  401e0e:	84 24       	movi55 $r1,#0x4
  401e10:	80 49       	mov55 $r2,$r9
  401e12:	49 00 03 cd 	jal 4025ac <SATA_SendStatus>
  401e16:	49 00 06 61 	jal 402ad8 <SATA_ClearCmd>
  401e1a:	3e 0f ca b8 	addi.gp $r0,#-13640
  401e1e:	49 00 0f 02 	jal 403c22 <PRINT_TXT>
  401e22:	3e 90 4f 18 	sbi.gp $r9,[+#0x4f18]
  401e26:	d5 16       	j8 401e52 <SATA_DI_IntEventHandler+0xc2>
  401e28:	a6 31       	lbi333 $r0,[$r6+#0x1]
  401e2a:	3e 18 4e e8 	addi.gp $r1,#0x4ee8
  401e2e:	49 00 04 55 	jal 4026d8 <SATA_SaveH2DFis>
  401e32:	a0 31       	lwi333 $r0,[$r6+#0x4]
  401e34:	dd 20       	jral5 $r0
  401e36:	d5 0e       	j8 401e52 <SATA_DI_IntEventHandler+0xc2>
  401e38:	2e 60 4f 5e 	lbi.gp $r6,[+#0x4f5e]
  401e3c:	ce 0b       	bnez38 $r6,401e52 <SATA_DI_IntEventHandler+0xc2>
  401e3e:	49 ff fe 38 	jal 401aae <DSATA_EnableRxFis>
  401e42:	44 00 00 50 	movi $r0,#0x50
  401e46:	80 26       	mov55 $r1,$r6
  401e48:	80 49       	mov55 $r2,$r9
  401e4a:	49 ff fd f5 	jal 401a34 <DSATA_SendD2HFis>
  401e4e:	3c 6e 13 c2 	swi.gp $r6,[+#0x4f08]
  401e52:	b4 27       	lwi450 $r1,[$r7]
  401e54:	54 00 80 04 	andi $r0,$r1,#0x4
  401e58:	c0 07       	beqz38 $r0,401e66 <SATA_DI_IntEventHandler+0xd6>
  401e5a:	84 1b       	movi55 $r0,#-5
  401e5c:	fe 0e       	and33 $r0,$r1
  401e5e:	b6 07       	swi450 $r0,[$r7]
  401e60:	84 00       	movi55 $r0,#0x0
  401e62:	3c 0e 13 c2 	swi.gp $r0,[+#0x4f08]
  401e66:	fc c0       	pop25 $r10,#0    ! {$r6~$r10, $fp, $gp, $lp}

00401e68 <SATA_DDMAI_DataTransferReq>:
  401e68:	fc 40       	push25 $r10,#0    ! {$r6~$r10, $fp, $gp, $lp}
  401e6a:	80 c0       	mov55 $r6,$r0
  401e6c:	80 e1       	mov55 $r7,$r1
  401e6e:	3c 2e 13 de 	swi.gp $r2,[+#0x4f78]
  401e72:	5a 68 02 10 	bnec $r6,#0x2,401e92 <SATA_DDMAI_DataTransferReq+0x2a>
  401e76:	a6 48       	lbi333 $r1,[$r1+#0x0]
  401e78:	e6 2a       	slti45 $r1,#0xa
  401e7a:	e8 4d       	beqzs8 401f14 <SATA_DDMAI_DataTransferReq+0xac>
  401e7c:	84 41       	movi55 $r2,#0x1
  401e7e:	40 11 04 0c 	sll $r1,$r2,$r1
  401e82:	58 10 80 04 	ori $r1,$r1,#0x4
  401e86:	44 00 00 51 	movi $r0,#0x51
  401e8a:	96 48       	zeb33 $r1,$r1
  401e8c:	49 00 03 90 	jal 4025ac <SATA_SendStatus>
  401e90:	fc c0       	pop25 $r10,#0    ! {$r6~$r10, $fp, $gp, $lp}
  401e92:	46 90 05 e1 	sethi $r9,#0x5e1
  401e96:	49 ff fd f4 	jal 401a7e <DSATA_EnableAutoSend>
  401e9a:	83 89       	mov55 $fp,$r9
  401e9c:	b8 45       	lwi37 $r0,[$fp+#0x114]
  401e9e:	84 20       	movi55 $r1,#0x0
  401ea0:	58 00 00 02 	ori $r0,$r0,#0x2
  401ea4:	b8 c5       	swi37 $r0,[$fp+#0x114]
  401ea6:	84 41       	movi55 $r2,#0x1
  401ea8:	44 00 00 50 	movi $r0,#0x50
  401eac:	49 ff f9 2f 	jal 40110a <DSATA_BuildD2HFis>
  401eb0:	ce 22       	bnez38 $r6,401ef4 <SATA_DDMAI_DataTransferReq+0x8c>
  401eb2:	80 07       	mov55 $r0,$r7
  401eb4:	80 26       	mov55 $r1,$r6
  401eb6:	49 ff f9 b2 	jal 40121a <DSATA_BuildPrd>
  401eba:	2e 00 4f 49 	lbi.gp $r0,[+#0x4f49]
  401ebe:	54 10 00 fd 	andi $r1,$r0,#0xfd
  401ec2:	5a 10 c8 06 	beqc $r1,#0xc8,401ece <SATA_DDMAI_DataTransferReq+0x66>
  401ec6:	54 00 00 ef 	andi $r0,$r0,#0xef
  401eca:	5a 08 25 0e 	bnec $r0,#0x25,401ee6 <SATA_DDMAI_DataTransferReq+0x7e>
  401ece:	2e 00 53 a0 	lbi.gp $r0,[+#0x53a0]
  401ed2:	5a 08 01 0d 	bnec $r0,#0x1,401eec <SATA_DDMAI_DataTransferReq+0x84>
  401ed6:	a1 79       	lwi333 $r5,[$r7+#0x4]
  401ed8:	44 00 55 aa 	movi $r0,#0x55aa
  401edc:	d8 08       	bnes38 $r0,401eec <SATA_DDMAI_DataTransferReq+0x84>
  401ede:	84 00       	movi55 $r0,#0x0
  401ee0:	49 ff fd b1 	jal 401a42 <DSATA_TransferStart>
  401ee4:	d5 04       	j8 401eec <SATA_DDMAI_DataTransferReq+0x84>
  401ee6:	a6 39       	lbi333 $r0,[$r7+#0x1]
  401ee8:	5a 08 01 fb 	bnec $r0,#0x1,401ede <SATA_DDMAI_DataTransferReq+0x76>
  401eec:	84 01       	movi55 $r0,#0x1
  401eee:	3c 0e 13 c2 	swi.gp $r0,[+#0x4f08]
  401ef2:	fc c0       	pop25 $r10,#0    ! {$r6~$r10, $fp, $gp, $lp}
  401ef4:	5a 68 01 10 	bnec $r6,#0x1,401f14 <SATA_DDMAI_DataTransferReq+0xac>
  401ef8:	83 89       	mov55 $fp,$r9
  401efa:	b8 76       	lwi37 $r0,[$fp+#0x1d8]
  401efc:	84 20       	movi55 $r1,#0x0
  401efe:	58 00 00 08 	ori $r0,$r0,#0x8
  401f02:	b8 f6       	swi37 $r0,[$fp+#0x1d8]
  401f04:	80 07       	mov55 $r0,$r7
  401f06:	49 ff f9 8a 	jal 40121a <DSATA_BuildPrd>
  401f0a:	84 00       	movi55 $r0,#0x0
  401f0c:	49 ff fd 9b 	jal 401a42 <DSATA_TransferStart>
  401f10:	3c 6e 13 c2 	swi.gp $r6,[+#0x4f08]
  401f14:	fc c0       	pop25 $r10,#0    ! {$r6~$r10, $fp, $gp, $lp}

00401f16 <SATA_DDMAI_StateMachine>:
  401f16:	dd 9e       	ret5 $lp

00401f18 <SATA_DDMAI_IntEventHandler>:
  401f18:	b4 40       	lwi450 $r2,[$r0]
  401f1a:	54 11 00 02 	andi $r1,$r2,#0x2
  401f1e:	c1 0b       	beqz38 $r1,401f34 <SATA_DDMAI_IntEventHandler+0x1c>
  401f20:	fc 00       	push25 $r6,#0    ! {$r6, $fp, $gp, $lp}
  401f22:	84 3d       	movi55 $r1,#-3
  401f24:	fe 56       	and33 $r1,$r2
  401f26:	b6 20       	swi450 $r1,[$r0]
  401f28:	84 00       	movi55 $r0,#0x0
  401f2a:	49 00 0a 3c 	jal 4033a2 <TQM_RemoveTask>
  401f2e:	49 00 03 c7 	jal 4026bc <SATA_FTXDS_Handler>
  401f32:	fc 80       	pop25 $r6,#0    ! {$r6, $fp, $gp, $lp}
  401f34:	dd 9e       	ret5 $lp

00401f36 <SATA_DDMAO_DataTransferReq>:
  401f36:	fc 40       	push25 $r10,#0    ! {$r6~$r10, $fp, $gp, $lp}
  401f38:	80 e0       	mov55 $r7,$r0
  401f3a:	80 c1       	mov55 $r6,$r1
  401f3c:	3c 2e 13 de 	swi.gp $r2,[+#0x4f78]
  401f40:	5a 78 02 14 	bnec $r7,#0x2,401f68 <SATA_DDMAO_DataTransferReq+0x32>
  401f44:	a6 48       	lbi333 $r1,[$r1+#0x0]
  401f46:	84 41       	movi55 $r2,#0x1
  401f48:	e6 2a       	slti45 $r1,#0xa
  401f4a:	e8 09       	beqzs8 401f5c <SATA_DDMAO_DataTransferReq+0x26>
  401f4c:	40 11 04 0c 	sll $r1,$r2,$r1
  401f50:	58 10 80 04 	ori $r1,$r1,#0x4
  401f54:	44 00 00 51 	movi $r0,#0x51
  401f58:	96 48       	zeb33 $r1,$r1
  401f5a:	d5 04       	j8 401f62 <SATA_DDMAO_DataTransferReq+0x2c>
  401f5c:	44 00 00 50 	movi $r0,#0x50
  401f60:	84 20       	movi55 $r1,#0x0
  401f62:	49 00 03 25 	jal 4025ac <SATA_SendStatus>
  401f66:	fc c0       	pop25 $r10,#0    ! {$r6~$r10, $fp, $gp, $lp}
  401f68:	cf 35       	bnez38 $r7,401fd2 <SATA_DDMAO_DataTransferReq+0x9c>
  401f6a:	46 90 05 e1 	sethi $r9,#0x5e1
  401f6e:	49 ff fd 88 	jal 401a7e <DSATA_EnableAutoSend>
  401f72:	83 89       	mov55 $fp,$r9
  401f74:	b8 45       	lwi37 $r0,[$fp+#0x114]
  401f76:	80 27       	mov55 $r1,$r7
  401f78:	58 00 00 02 	ori $r0,$r0,#0x2
  401f7c:	b8 c5       	swi37 $r0,[$fp+#0x114]
  401f7e:	80 06       	mov55 $r0,$r6
  401f80:	49 ff f9 4d 	jal 40121a <DSATA_BuildPrd>
  401f84:	a6 31       	lbi333 $r0,[$r6+#0x1]
  401f86:	5a 08 01 09 	bnec $r0,#0x1,401f98 <SATA_DDMAO_DataTransferReq+0x62>
  401f8a:	49 ff fd 85 	jal 401a94 <DSATA_DisableAutoSend>
  401f8e:	83 89       	mov55 $fp,$r9
  401f90:	b9 45       	lwi37 $r1,[$fp+#0x114]
  401f92:	84 1d       	movi55 $r0,#-3
  401f94:	fe 0e       	and33 $r0,$r1
  401f96:	b8 c5       	swi37 $r0,[$fp+#0x114]
  401f98:	44 00 00 50 	movi $r0,#0x50
  401f9c:	84 20       	movi55 $r1,#0x0
  401f9e:	84 41       	movi55 $r2,#0x1
  401fa0:	49 ff f8 b5 	jal 40110a <DSATA_BuildD2HFis>
  401fa4:	2e 00 4f 49 	lbi.gp $r0,[+#0x4f49]
  401fa8:	54 10 00 fd 	andi $r1,$r0,#0xfd
  401fac:	5a 10 c8 06 	beqc $r1,#0xc8,401fb8 <SATA_DDMAO_DataTransferReq+0x82>
  401fb0:	54 00 00 ef 	andi $r0,$r0,#0xef
  401fb4:	5a 08 25 0b 	bnec $r0,#0x25,401fca <SATA_DDMAO_DataTransferReq+0x94>
  401fb8:	2e 00 53 a0 	lbi.gp $r0,[+#0x53a0]
  401fbc:	5a 08 01 1a 	bnec $r0,#0x1,401ff0 <SATA_DDMAO_DataTransferReq+0xba>
  401fc0:	a1 71       	lwi333 $r5,[$r6+#0x4]
  401fc2:	44 00 55 aa 	movi $r0,#0x55aa
  401fc6:	d8 15       	bnes38 $r0,401ff0 <SATA_DDMAO_DataTransferReq+0xba>
  401fc8:	d5 11       	j8 401fea <SATA_DDMAO_DataTransferReq+0xb4>
  401fca:	a6 31       	lbi333 $r0,[$r6+#0x1]
  401fcc:	5a 08 01 0f 	bnec $r0,#0x1,401fea <SATA_DDMAO_DataTransferReq+0xb4>
  401fd0:	d5 10       	j8 401ff0 <SATA_DDMAO_DataTransferReq+0xba>
  401fd2:	5a 78 01 12 	bnec $r7,#0x1,401ff6 <SATA_DDMAO_DataTransferReq+0xc0>
  401fd6:	46 10 05 e1 	sethi $r1,#0x5e1
  401fda:	83 81       	mov55 $fp,$r1
  401fdc:	b8 76       	lwi37 $r0,[$fp+#0x1d8]
  401fde:	58 00 00 08 	ori $r0,$r0,#0x8
  401fe2:	b8 f6       	swi37 $r0,[$fp+#0x1d8]
  401fe4:	fd 03       	movd44 $r0,$r6
  401fe6:	49 ff f9 1a 	jal 40121a <DSATA_BuildPrd>
  401fea:	84 00       	movi55 $r0,#0x0
  401fec:	49 ff fd 2b 	jal 401a42 <DSATA_TransferStart>
  401ff0:	84 02       	movi55 $r0,#0x2
  401ff2:	3c 0e 13 c2 	swi.gp $r0,[+#0x4f08]
  401ff6:	fc c0       	pop25 $r10,#0    ! {$r6~$r10, $fp, $gp, $lp}

00401ff8 <SATA_DDMAO_StateMachine>:
  401ff8:	dd 9e       	ret5 $lp

00401ffa <SATA_DDMAO_IntEventHandler>:
  401ffa:	fc 00       	push25 $r6,#0    ! {$r6, $fp, $gp, $lp}
  401ffc:	b4 20       	lwi450 $r1,[$r0]
  401ffe:	80 c0       	mov55 $r6,$r0
  402000:	54 00 80 08 	andi $r0,$r1,#0x8
  402004:	c0 0d       	beqz38 $r0,40201e <SATA_DDMAO_IntEventHandler+0x24>
  402006:	84 17       	movi55 $r0,#-9
  402008:	fe 0e       	and33 $r0,$r1
  40200a:	b6 06       	swi450 $r0,[$r6]
  40200c:	49 ff fd 32 	jal 401a70 <DSATA_IsAutoSendEnabled>
  402010:	c8 07       	bnez38 $r0,40201e <SATA_DDMAO_IntEventHandler+0x24>
  402012:	49 00 02 9c 	jal 40254a <SATA_PrdDoneEventHandler>
  402016:	84 0d       	movi55 $r0,#0xd
  402018:	84 21       	movi55 $r1,#0x1
  40201a:	49 ff fc ad 	jal 401974 <DSATA_Update_rPCMDR>
  40201e:	b4 26       	lwi450 $r1,[$r6]
  402020:	54 00 80 02 	andi $r0,$r1,#0x2
  402024:	c0 09       	beqz38 $r0,402036 <SATA_DDMAO_IntEventHandler+0x3c>
  402026:	84 1d       	movi55 $r0,#-3
  402028:	fe 0e       	and33 $r0,$r1
  40202a:	b6 06       	swi450 $r0,[$r6]
  40202c:	84 00       	movi55 $r0,#0x0
  40202e:	49 00 02 8e 	jal 40254a <SATA_PrdDoneEventHandler>
  402032:	49 00 03 45 	jal 4026bc <SATA_FTXDS_Handler>
  402036:	fc 80       	pop25 $r6,#0    ! {$r6, $fp, $gp, $lp}

00402038 <BrokenHost_ClearBusy>:
  402038:	fc 00       	push25 $r6,#0    ! {$r6, $fp, $gp, $lp}
  40203a:	80 c0       	mov55 $r6,$r0
  40203c:	84 00       	movi55 $r0,#0x0
  40203e:	49 ff f9 6e 	jal 40131a <DSATA_ExceptionHandler>
  402042:	84 24       	movi55 $r1,#0x4
  402044:	5a 68 04 03 	bnec $r6,#0x4,40204a <BrokenHost_ClearBusy+0x12>
  402048:	fa 20       	movpi45 $r1,#0x10
  40204a:	84 41       	movi55 $r2,#0x1
  40204c:	44 00 00 51 	movi $r0,#0x51
  402050:	49 ff f8 5d 	jal 40110a <DSATA_BuildD2HFis>
  402054:	fa 00       	movpi45 $r0,#0x10
  402056:	84 21       	movi55 $r1,#0x1
  402058:	49 ff fc 8e 	jal 401974 <DSATA_Update_rPCMDR>
  40205c:	49 ff fd 29 	jal 401aae <DSATA_EnableRxFis>
  402060:	84 0d       	movi55 $r0,#0xd
  402062:	3c 0e 13 c2 	swi.gp $r0,[+#0x4f08]
  402066:	fc 80       	pop25 $r6,#0    ! {$r6, $fp, $gp, $lp}

00402068 <AddCommandToQueue>:
  402068:	fc 00       	push25 $r6,#0    ! {$r6, $fp, $gp, $lp}
  40206a:	84 c1       	movi55 $r6,#0x1
  40206c:	e6 0a       	slti45 $r0,#0xa
  40206e:	3e 60 4f 5e 	sbi.gp $r6,[+#0x4f5e]
  402072:	e8 04       	beqzs8 40207a <AddCommandToQueue+0x12>
  402074:	49 ff ff e2 	jal 402038 <BrokenHost_ClearBusy>
  402078:	fc 80       	pop25 $r6,#0    ! {$r6, $fp, $gp, $lp}
  40207a:	49 ff fd 0d 	jal 401a94 <DSATA_DisableAutoSend>
  40207e:	84 20       	movi55 $r1,#0x0
  402080:	80 41       	mov55 $r2,$r1
  402082:	44 00 00 40 	movi $r0,#0x40
  402086:	49 ff f8 42 	jal 40110a <DSATA_BuildD2HFis>
  40208a:	fa 00       	movpi45 $r0,#0x10
  40208c:	84 21       	movi55 $r1,#0x1
  40208e:	49 ff fc 73 	jal 401974 <DSATA_Update_rPCMDR>
  402092:	49 ff fd 0e 	jal 401aae <DSATA_EnableRxFis>
  402096:	49 ff fc f4 	jal 401a7e <DSATA_EnableAutoSend>
  40209a:	46 10 05 e1 	sethi $r1,#0x5e1
  40209e:	84 1d       	movi55 $r0,#-3
  4020a0:	83 81       	mov55 $fp,$r1
  4020a2:	ba 45       	lwi37 $r2,[$fp+#0x114]
  4020a4:	fe 16       	and33 $r0,$r2
  4020a6:	b8 c5       	swi37 $r0,[$fp+#0x114]
  4020a8:	3e 60 57 75 	sbi.gp $r6,[+#0x5775]
  4020ac:	fc 80       	pop25 $r6,#0    ! {$r6, $fp, $gp, $lp}

004020ae <fpdmaq_error>:
  4020ae:	fc 00       	push25 $r6,#0    ! {$r6, $fp, $gp, $lp}
  4020b0:	3e 68 4f 08 	addi.gp $r6,#0x4f08
  4020b4:	84 21       	movi55 $r1,#0x1
  4020b6:	84 00       	movi55 $r0,#0x0
  4020b8:	80 80       	mov55 $r4,$r0
  4020ba:	00 23 03 fb 	lbi $r2,[$r6+#0x3fb]
  4020be:	80 61       	mov55 $r3,$r1
  4020c0:	49 ff f8 3b 	jal 401136 <DSATA_BulidSDBFis>
  4020c4:	84 07       	movi55 $r0,#0x7
  4020c6:	49 ff fc 69 	jal 401998 <DSATA_TrigeSendFis>
  4020ca:	49 ff fc f2 	jal 401aae <DSATA_EnableRxFis>
  4020ce:	84 0d       	movi55 $r0,#0xd
  4020d0:	b6 06       	swi450 $r0,[$r6]
  4020d2:	fc 80       	pop25 $r6,#0    ! {$r6, $fp, $gp, $lp}

004020d4 <SendQueue_CleanACK>:
  4020d4:	fc 00       	push25 $r6,#0    ! {$r6, $fp, $gp, $lp}
  4020d6:	49 ff fc df 	jal 401a94 <DSATA_DisableAutoSend>
  4020da:	84 20       	movi55 $r1,#0x0
  4020dc:	80 41       	mov55 $r2,$r1
  4020de:	80 61       	mov55 $r3,$r1
  4020e0:	84 9f       	movi55 $r4,#-1
  4020e2:	84 04       	movi55 $r0,#0x4
  4020e4:	49 ff f8 29 	jal 401136 <DSATA_BulidSDBFis>
  4020e8:	84 07       	movi55 $r0,#0x7
  4020ea:	49 ff fc 57 	jal 401998 <DSATA_TrigeSendFis>
  4020ee:	49 ff fc e0 	jal 401aae <DSATA_EnableRxFis>
  4020f2:	fc 80       	pop25 $r6,#0    ! {$r6, $fp, $gp, $lp}

004020f4 <SATA_DFPDMAQ_DataTransferReq>:
  4020f4:	fc 00       	push25 $r6,#0    ! {$r6, $fp, $gp, $lp}
  4020f6:	80 40       	mov55 $r2,$r0
  4020f8:	80 01       	mov55 $r0,$r1
  4020fa:	5a 28 02 08 	bnec $r2,#0x2,40210a <SATA_DFPDMAQ_DataTransferReq+0x16>
  4020fe:	a6 08       	lbi333 $r0,[$r1+#0x0]
  402100:	e6 0a       	slti45 $r0,#0xa
  402102:	e8 08       	beqzs8 402112 <SATA_DFPDMAQ_DataTransferReq+0x1e>
  402104:	49 ff ff 9a 	jal 402038 <BrokenHost_ClearBusy>
  402108:	fc 80       	pop25 $r6,#0    ! {$r6, $fp, $gp, $lp}
  40210a:	ca 04       	bnez38 $r2,402112 <SATA_DFPDMAQ_DataTransferReq+0x1e>
  40210c:	80 22       	mov55 $r1,$r2
  40210e:	49 ff f8 86 	jal 40121a <DSATA_BuildPrd>
  402112:	fc 80       	pop25 $r6,#0    ! {$r6, $fp, $gp, $lp}

00402114 <SATA_DFPDMAQ_StateMachine>:
  402114:	fc 00       	push25 $r6,#0    ! {$r6, $fp, $gp, $lp}
  402116:	3c 0c 13 c2 	lwi.gp $r0,[+#0x4f08]
  40211a:	5a 00 0b 05 	beqc $r0,#0xb,402124 <SATA_DFPDMAQ_StateMachine+0x10>
  40211e:	5a 00 0c 06 	beqc $r0,#0xc,40212a <SATA_DFPDMAQ_StateMachine+0x16>
  402122:	fc 80       	pop25 $r6,#0    ! {$r6, $fp, $gp, $lp}
  402124:	49 ff ff c5 	jal 4020ae <fpdmaq_error>
  402128:	fc 80       	pop25 $r6,#0    ! {$r6, $fp, $gp, $lp}
  40212a:	84 02       	movi55 $r0,#0x2
  40212c:	49 ff ff 86 	jal 402038 <BrokenHost_ClearBusy>
  402130:	fc 80       	pop25 $r6,#0    ! {$r6, $fp, $gp, $lp}

00402132 <SATA_DFPDMAQ_IntEventHandler>:
  402132:	fc 40       	push25 $r10,#0    ! {$r6~$r10, $fp, $gp, $lp}
  402134:	80 c0       	mov55 $r6,$r0
  402136:	b4 00       	lwi450 $r0,[$r0]
  402138:	46 10 40 00 	sethi $r1,#0x4000
  40213c:	fe 46       	and33 $r1,$r0
  40213e:	c1 0e       	beqz38 $r1,40215a <SATA_DFPDMAQ_IntEventHandler+0x28>
  402140:	46 1f bf ff 	sethi $r1,#0xfbfff
  402144:	50 10 8f fe 	addi $r1,$r1,#0xffe
  402148:	fe 0e       	and33 $r0,$r1
  40214a:	b6 06       	swi450 $r0,[$r6]
  40214c:	3e 0f ca c4 	addi.gp $r0,#-13628
  402150:	49 00 0d 69 	jal 403c22 <PRINT_TXT>
  402154:	49 00 02 3f 	jal 4025d2 <SATA_Fatal_Error_Handler>
  402158:	fc c0       	pop25 $r10,#0    ! {$r6~$r10, $fp, $gp, $lp}
  40215a:	96 06       	bmski33 $r0,#0x0
  40215c:	c8 08       	bnez38 $r0,40216c <SATA_DFPDMAQ_IntEventHandler+0x3a>
  40215e:	46 00 05 e1 	sethi $r0,#0x5e1
  402162:	04 00 00 44 	lwi $r0,[$r0+#0x110]
  402166:	96 06       	bmski33 $r0,#0x0
  402168:	4e 02 00 ce 	beqz $r0,402304 <SATA_DFPDMAQ_IntEventHandler+0x1d2>
  40216c:	b4 26       	lwi450 $r1,[$r6]
  40216e:	84 1e       	movi55 $r0,#-2
  402170:	fe 0e       	and33 $r0,$r1
  402172:	b6 06       	swi450 $r0,[$r6]
  402174:	49 00 02 eb 	jal 40274a <SATA_SReset_Handler>
  402178:	81 20       	mov55 $r9,$r0
  40217a:	4e 03 00 c5 	bnez $r0,402304 <SATA_DFPDMAQ_IntEventHandler+0x1d2>
  40217e:	2e 00 4e ea 	lbi.gp $r0,[+#0x4eea]
  402182:	49 ff ef 91 	jal 4000a4 <ATACmd_ParseCmd>
  402186:	80 e0       	mov55 $r7,$r0
  402188:	3c 0c 13 c2 	lwi.gp $r0,[+#0x4f08]
  40218c:	4e 72 00 72 	beqz $r7,402270 <SATA_DFPDMAQ_IntEventHandler+0x13e>
  402190:	5a 00 0d 04 	beqc $r0,#0xd,402198 <SATA_DFPDMAQ_IntEventHandler+0x66>
  402194:	48 00 00 4d 	j 40222e <SATA_DFPDMAQ_IntEventHandler+0xfc>
  402198:	2e 00 4e ea 	lbi.gp $r0,[+#0x4eea]
  40219c:	5a 08 2f 1e 	bnec $r0,#0x2f,4021d8 <SATA_DFPDMAQ_IntEventHandler+0xa6>
  4021a0:	2e 00 4e ec 	lbi.gp $r0,[+#0x4eec]
  4021a4:	5a 08 10 1a 	bnec $r0,#0x10,4021d8 <SATA_DFPDMAQ_IntEventHandler+0xa6>
  4021a8:	3e 18 4e e8 	addi.gp $r1,#0x4ee8
  4021ac:	a6 39       	lbi333 $r0,[$r7+#0x1]
  4021ae:	49 00 02 95 	jal 4026d8 <SATA_SaveH2DFis>
  4021b2:	49 ff ff 91 	jal 4020d4 <SendQueue_CleanACK>
  4021b6:	80 29       	mov55 $r1,$r9
  4021b8:	84 06       	movi55 $r0,#0x6
  4021ba:	49 00 01 9b 	jal 4024f0 <SATA_ChangeState>
  4021be:	a0 39       	lwi333 $r0,[$r7+#0x4]
  4021c0:	dd 20       	jral5 $r0
  4021c2:	46 00 05 e1 	sethi $r0,#0x5e1
  4021c6:	84 21       	movi55 $r1,#0x1
  4021c8:	14 10 00 cd 	swi $r1,[$r0+#0x334]
  4021cc:	3e 90 4f 5e 	sbi.gp $r9,[+#0x4f5e]
  4021d0:	3e 0f ca cc 	addi.gp $r0,#-13620
  4021d4:	48 00 00 86 	j 4022e0 <SATA_DFPDMAQ_IntEventHandler+0x1ae>
  4021d8:	2e 00 4e ea 	lbi.gp $r0,[+#0x4eea]
  4021dc:	5a 08 47 1f 	bnec $r0,#0x47,40221a <SATA_DFPDMAQ_IntEventHandler+0xe8>
  4021e0:	2e 00 4e ec 	lbi.gp $r0,[+#0x4eec]
  4021e4:	5a 08 10 1b 	bnec $r0,#0x10,40221a <SATA_DFPDMAQ_IntEventHandler+0xe8>
  4021e8:	3e 18 4e e8 	addi.gp $r1,#0x4ee8
  4021ec:	a6 39       	lbi333 $r0,[$r7+#0x1]
  4021ee:	49 00 02 75 	jal 4026d8 <SATA_SaveH2DFis>
  4021f2:	49 ff ff 71 	jal 4020d4 <SendQueue_CleanACK>
  4021f6:	84 20       	movi55 $r1,#0x0
  4021f8:	84 08       	movi55 $r0,#0x8
  4021fa:	49 00 01 7b 	jal 4024f0 <SATA_ChangeState>
  4021fe:	a0 39       	lwi333 $r0,[$r7+#0x4]
  402200:	dd 20       	jral5 $r0
  402202:	46 00 05 e1 	sethi $r0,#0x5e1
  402206:	84 21       	movi55 $r1,#0x1
  402208:	14 10 00 cd 	swi $r1,[$r0+#0x334]
  40220c:	84 00       	movi55 $r0,#0x0
  40220e:	3e 00 4f 5e 	sbi.gp $r0,[+#0x4f5e]
  402212:	3e 0f ca dc 	addi.gp $r0,#-13604
  402216:	48 00 00 65 	j 4022e0 <SATA_DFPDMAQ_IntEventHandler+0x1ae>
  40221a:	2e 10 4e ea 	lbi.gp $r1,[+#0x4eea]
  40221e:	3e 0f ca f0 	addi.gp $r0,#-13584
  402222:	49 00 0d 50 	jal 403cc2 <PRINT_HEX>
  402226:	49 ff fc 44 	jal 401aae <DSATA_EnableRxFis>
  40222a:	48 00 00 66 	j 4022f6 <SATA_DFPDMAQ_IntEventHandler+0x1c4>
  40222e:	2e 00 4e ea 	lbi.gp $r0,[+#0x4eea]
  402232:	5a 00 60 06 	beqc $r0,#0x60,40223e <SATA_DFPDMAQ_IntEventHandler+0x10c>
  402236:	2e 00 4e ea 	lbi.gp $r0,[+#0x4eea]
  40223a:	5a 08 61 11 	bnec $r0,#0x61,40225c <SATA_DFPDMAQ_IntEventHandler+0x12a>
  40223e:	fa 07       	movpi45 $r0,#0x17
  402240:	49 00 0d b8 	jal 403db0 <NVIC_DisableIRQ>
  402244:	3e 18 4e e8 	addi.gp $r1,#0x4ee8
  402248:	a6 39       	lbi333 $r0,[$r7+#0x1]
  40224a:	49 00 02 47 	jal 4026d8 <SATA_SaveH2DFis>
  40224e:	fa 07       	movpi45 $r0,#0x17
  402250:	49 00 0d a5 	jal 403d9a <NVIC_EnableIRQ>
  402254:	a0 39       	lwi333 $r0,[$r7+#0x4]
  402256:	dd 20       	jral5 $r0
  402258:	48 00 00 56 	j 402304 <SATA_DFPDMAQ_IntEventHandler+0x1d2>
  40225c:	46 00 05 e1 	sethi $r0,#0x5e1
  402260:	04 20 00 d0 	lwi $r2,[$r0+#0x340]
  402264:	c2 31       	beqz38 $r2,4022c6 <SATA_DFPDMAQ_IntEventHandler+0x194>
  402266:	2e 10 4e ea 	lbi.gp $r1,[+#0x4eea]
  40226a:	3e 0f ca fc 	addi.gp $r0,#-13572
  40226e:	d5 26       	j8 4022ba <SATA_DFPDMAQ_IntEventHandler+0x188>
  402270:	5a 00 0d 3b 	beqc $r0,#0xd,4022e6 <SATA_DFPDMAQ_IntEventHandler+0x1b4>
  402274:	46 00 05 e1 	sethi $r0,#0x5e1
  402278:	04 20 00 d0 	lwi $r2,[$r0+#0x340]
  40227c:	c2 25       	beqz38 $r2,4022c6 <SATA_DFPDMAQ_IntEventHandler+0x194>
  40227e:	2e 00 4e ea 	lbi.gp $r0,[+#0x4eea]
  402282:	5a 00 60 06 	beqc $r0,#0x60,40228e <SATA_DFPDMAQ_IntEventHandler+0x15c>
  402286:	2e 00 4e ea 	lbi.gp $r0,[+#0x4eea]
  40228a:	5a 08 61 0e 	bnec $r0,#0x61,4022a6 <SATA_DFPDMAQ_IntEventHandler+0x174>
  40228e:	2e 00 4f 5e 	lbi.gp $r0,[+#0x4f5e]
  402292:	e6 01       	slti45 $r0,#0x1
  402294:	3e f0 53 05 	sbi.gp $r15,[+#0x5305]
  402298:	49 ff fb e0 	jal 401a58 <DSATA_GetCurrentCmdSlot>
  40229c:	3e 00 53 06 	sbi.gp $r0,[+#0x5306]
  4022a0:	84 04       	movi55 $r0,#0x4
  4022a2:	3e 00 53 03 	sbi.gp $r0,[+#0x5303]
  4022a6:	2e 10 4f 64 	lbi.gp $r1,[+#0x4f64]
  4022aa:	3e 0f cb 14 	addi.gp $r0,#-13548
  4022ae:	49 00 0d 0a 	jal 403cc2 <PRINT_HEX>
  4022b2:	2e 10 4e ea 	lbi.gp $r1,[+#0x4eea]
  4022b6:	3e 0f cb 20 	addi.gp $r0,#-13536
  4022ba:	49 00 0d 04 	jal 403cc2 <PRINT_HEX>
  4022be:	84 02       	movi55 $r0,#0x2
  4022c0:	49 ff fe bc 	jal 402038 <BrokenHost_ClearBusy>
  4022c4:	d5 20       	j8 402304 <SATA_DFPDMAQ_IntEventHandler+0x1d2>
  4022c6:	84 23       	movi55 $r1,#0x3
  4022c8:	14 10 00 44 	swi $r1,[$r0+#0x110]
  4022cc:	b4 06       	lwi450 $r0,[$r6]
  4022ce:	84 3d       	movi55 $r1,#-3
  4022d0:	58 00 00 01 	ori $r0,$r0,#0x1
  4022d4:	fe 0e       	and33 $r0,$r1
  4022d6:	b6 06       	swi450 $r0,[$r6]
  4022d8:	3e 20 4f 64 	sbi.gp $r2,[+#0x4f64]
  4022dc:	3e 0f cb 08 	addi.gp $r0,#-13560
  4022e0:	49 00 0c a1 	jal 403c22 <PRINT_TXT>
  4022e4:	d5 10       	j8 402304 <SATA_DFPDMAQ_IntEventHandler+0x1d2>
  4022e6:	49 ff fb e4 	jal 401aae <DSATA_EnableRxFis>
  4022ea:	2e 10 4e ea 	lbi.gp $r1,[+#0x4eea]
  4022ee:	3e 0f cb 2c 	addi.gp $r0,#-13524
  4022f2:	49 00 0c e8 	jal 403cc2 <PRINT_HEX>
  4022f6:	44 00 00 51 	movi $r0,#0x51
  4022fa:	84 24       	movi55 $r1,#0x4
  4022fc:	84 41       	movi55 $r2,#0x1
  4022fe:	49 ff fb 9b 	jal 401a34 <DSATA_SendD2HFis>
  402302:	fc c0       	pop25 $r10,#0    ! {$r6~$r10, $fp, $gp, $lp}
  402304:	2e 00 4f 64 	lbi.gp $r0,[+#0x4f64]
  402308:	c8 44       	bnez38 $r0,402390 <SATA_DFPDMAQ_IntEventHandler+0x25e>
  40230a:	46 70 05 e1 	sethi $r7,#0x5e1
  40230e:	04 03 80 d0 	lwi $r0,[$r7+#0x340]
  402312:	c8 3f       	bnez38 $r0,402390 <SATA_DFPDMAQ_IntEventHandler+0x25e>
  402314:	3c 0c 13 d8 	lwi.gp $r0,[+#0x4f60]
  402318:	5a 08 0d 3c 	bnec $r0,#0xd,402390 <SATA_DFPDMAQ_IntEventHandler+0x25e>
  40231c:	3c 0c 13 c2 	lwi.gp $r0,[+#0x4f08]
  402320:	5a 00 0d 38 	beqc $r0,#0xd,402390 <SATA_DFPDMAQ_IntEventHandler+0x25e>
  402324:	5a 00 0b 36 	beqc $r0,#0xb,402390 <SATA_DFPDMAQ_IntEventHandler+0x25e>
  402328:	49 00 0d 0d 	jal 403d42 <__enable_performance>
  40232c:	46 30 60 00 	sethi $r3,#0x6000
  402330:	3c 2c 13 ca 	lwi.gp $r2,[+#0x4f28]
  402334:	80 07       	mov55 $r0,$r7
  402336:	3c 1c 13 ca 	lwi.gp $r1,[+#0x4f28]
  40233a:	8a 22       	sub45 $r1,$r2
  40233c:	5c f0 80 33 	slti $r15,$r1,#0x33
  402340:	e8 1f       	beqzs8 40237e <SATA_DFPDMAQ_IntEventHandler+0x24c>
  402342:	04 10 00 ce 	lwi $r1,[$r0+#0x338]
  402346:	c9 25       	bnez38 $r1,402390 <SATA_DFPDMAQ_IntEventHandler+0x25e>
  402348:	04 10 00 46 	lwi $r1,[$r0+#0x118]
  40234c:	92 24       	srli45 $r1,#0x4
  40234e:	96 46       	bmski33 $r1,#0x0
  402350:	5a 10 01 17 	beqc $r1,#0x1,40237e <SATA_DFPDMAQ_IntEventHandler+0x24c>
  402354:	04 10 00 44 	lwi $r1,[$r0+#0x110]
  402358:	92 29       	srli45 $r1,#0x9
  40235a:	96 46       	bmski33 $r1,#0x0
  40235c:	5a 10 01 11 	beqc $r1,#0x1,40237e <SATA_DFPDMAQ_IntEventHandler+0x24c>
  402360:	04 10 00 44 	lwi $r1,[$r0+#0x110]
  402364:	92 3a       	srli45 $r1,#0x1a
  402366:	96 46       	bmski33 $r1,#0x0
  402368:	5a 10 01 0b 	beqc $r1,#0x1,40237e <SATA_DFPDMAQ_IntEventHandler+0x24c>
  40236c:	04 10 00 44 	lwi $r1,[$r0+#0x110]
  402370:	92 39       	srli45 $r1,#0x19
  402372:	96 46       	bmski33 $r1,#0x0
  402374:	5a 10 01 05 	beqc $r1,#0x1,40237e <SATA_DFPDMAQ_IntEventHandler+0x24c>
  402378:	b4 26       	lwi450 $r1,[$r6]
  40237a:	fe 5e       	and33 $r1,$r3
  40237c:	c1 dd       	beqz38 $r1,402336 <SATA_DFPDMAQ_IntEventHandler+0x204>
  40237e:	84 00       	movi55 $r0,#0x0
  402380:	3e 00 4f 5e 	sbi.gp $r0,[+#0x4f5e]
  402384:	3e 00 57 75 	sbi.gp $r0,[+#0x5775]
  402388:	84 01       	movi55 $r0,#0x1
  40238a:	84 20       	movi55 $r1,#0x0
  40238c:	49 00 00 b2 	jal 4024f0 <SATA_ChangeState>
  402390:	fc c0       	pop25 $r10,#0    ! {$r6~$r10, $fp, $gp, $lp}

00402392 <SATA_DevCtx_Init>:
  402392:	84 00       	movi55 $r0,#0x0
  402394:	3e 38 44 e8 	addi.gp $r3,#0x44e8
  402398:	80 40       	mov55 $r2,$r0
  40239a:	94 44       	slli333 $r1,$r0,#0x4
  40239c:	88 23       	add45 $r1,$r3
  40239e:	8c 01       	addi45 $r0,#0x1
  4023a0:	a8 89       	swi333 $r2,[$r1+#0x4]
  4023a2:	a8 8a       	swi333 $r2,[$r1+#0x8]
  4023a4:	5a 08 20 fb 	bnec $r0,#0x20,40239a <SATA_DevCtx_Init+0x8>
  4023a8:	fc 00       	push25 $r6,#0    ! {$r6, $fp, $gp, $lp}
  4023aa:	3c 00 21 c3 	lhi.gp $r0,[+#0x4386]
  4023ae:	96 36       	bmski33 $r0,#0x6
  4023b0:	c8 26       	bnez38 $r0,4023fc <SATA_DevCtx_Init+0x6a>
  4023b2:	3e 08 42 e8 	addi.gp $r0,#0x42e8
  4023b6:	3e 1f c6 70 	addi.gp $r1,#-14736
  4023ba:	44 20 00 80 	movi $r2,#0x80
  4023be:	49 00 0e 36 	jal 40402a <U32MemCopy>
  4023c2:	3c 10 21 c3 	lhi.gp $r1,[+#0x4386]
  4023c6:	44 0f ff bf 	movi $r0,#-65
  4023ca:	fe 0e       	and33 $r0,$r1
  4023cc:	3c 08 21 c3 	shi.gp $r0,[+#0x4386]
  4023d0:	3c 0c 13 d5 	lwi.gp $r0,[+#0x4f54]
  4023d4:	8e 03       	subi45 $r0,#0x3
  4023d6:	e6 04       	slti45 $r0,#0x4
  4023d8:	84 04       	movi55 $r0,#0x4
  4023da:	e9 02       	bnezs8 4023de <SATA_DevCtx_Init+0x4c>
  4023dc:	84 01       	movi55 $r0,#0x1
  4023de:	3c 0e 13 d5 	swi.gp $r0,[+#0x4f54]
  4023e2:	84 05       	movi55 $r0,#0x5
  4023e4:	3e 00 4f 58 	sbi.gp $r0,[+#0x4f58]
  4023e8:	84 00       	movi55 $r0,#0x0
  4023ea:	3e 00 4f 59 	sbi.gp $r0,[+#0x4f59]
  4023ee:	3c 10 21 f4 	lhi.gp $r1,[+#0x43e8]
  4023f2:	44 0f ff ef 	movi $r0,#-17
  4023f6:	fe 0e       	and33 $r0,$r1
  4023f8:	3c 08 21 f4 	shi.gp $r0,[+#0x43e8]
  4023fc:	3c 0c 13 d5 	lwi.gp $r0,[+#0x4f54]
  402400:	5a 08 01 05 	bnec $r0,#0x1,40240a <SATA_DevCtx_Init+0x78>
  402404:	84 00       	movi55 $r0,#0x0
  402406:	3e 00 4f 50 	sbi.gp $r0,[+#0x4f50]
  40240a:	2e 00 53 61 	lbi.gp $r0,[+#0x5361]
  40240e:	5a 00 04 04 	beqc $r0,#0x4,402416 <SATA_DevCtx_Init+0x84>
  402412:	5a 08 01 08 	bnec $r0,#0x1,402422 <SATA_DevCtx_Init+0x90>
  402416:	84 00       	movi55 $r0,#0x0
  402418:	3e 00 53 62 	sbi.gp $r0,[+#0x5362]
  40241c:	3e 00 53 61 	sbi.gp $r0,[+#0x5361]
  402420:	d5 08       	j8 402430 <SATA_DevCtx_Init+0x9e>
  402422:	5a 08 02 07 	bnec $r0,#0x2,402430 <SATA_DevCtx_Init+0x9e>
  402426:	46 00 05 e1 	sethi $r0,#0x5e1
  40242a:	84 20       	movi55 $r1,#0x0
  40242c:	14 10 00 cd 	swi $r1,[$r0+#0x334]
  402430:	84 21       	movi55 $r1,#0x1
  402432:	3e 10 4f 48 	sbi.gp $r1,[+#0x4f48]
  402436:	84 00       	movi55 $r0,#0x0
  402438:	3e 00 4f 64 	sbi.gp $r0,[+#0x4f64]
  40243c:	3e 00 4f 65 	sbi.gp $r0,[+#0x4f65]
  402440:	3e 00 4f 67 	sbi.gp $r0,[+#0x4f67]
  402444:	3e 00 4f 66 	sbi.gp $r0,[+#0x4f66]
  402448:	3e 00 53 79 	sbi.gp $r0,[+#0x5379]
  40244c:	3e 00 4f 5e 	sbi.gp $r0,[+#0x4f5e]
  402450:	3e 00 4f 45 	sbi.gp $r0,[+#0x4f45]
  402454:	3e 00 4f 46 	sbi.gp $r0,[+#0x4f46]
  402458:	84 00       	movi55 $r0,#0x0
  40245a:	3c 0e 13 de 	swi.gp $r0,[+#0x4f78]
  40245e:	3c 0e 14 d2 	swi.gp $r0,[+#0x5348]
  402462:	3e 10 4f 47 	sbi.gp $r1,[+#0x4f47]
  402466:	84 01       	movi55 $r0,#0x1
  402468:	3c 08 27 b4 	shi.gp $r0,[+#0x4f68]
  40246c:	3c 0c 13 c4 	lwi.gp $r0,[+#0x4f10]
  402470:	5a 08 02 05 	bnec $r0,#0x2,40247a <SATA_DevCtx_Init+0xe8>
  402474:	84 03       	movi55 $r0,#0x3
  402476:	3c 0e 13 c4 	swi.gp $r0,[+#0x4f10]
  40247a:	46 10 05 e0 	sethi $r1,#0x5e0
  40247e:	44 0e ff ff 	movi $r0,#-65537
  402482:	83 81       	mov55 $fp,$r1
  402484:	ba 3d       	lwi37 $r2,[$fp+#0xf4]
  402486:	fe 16       	and33 $r0,$r2
  402488:	b8 bd       	swi37 $r0,[$fp+#0xf4]
  40248a:	84 00       	movi55 $r0,#0x0
  40248c:	3e 00 4f 4b 	sbi.gp $r0,[+#0x4f4b]
  402490:	46 00 05 e1 	sethi $r0,#0x5e1
  402494:	44 1f ef ff 	movi $r1,#-4097
  402498:	04 20 00 4b 	lwi $r2,[$r0+#0x12c]
  40249c:	fe 56       	and33 $r1,$r2
  40249e:	14 10 00 4b 	swi $r1,[$r0+#0x12c]
  4024a2:	04 30 00 46 	lwi $r3,[$r0+#0x118]
  4024a6:	3c 20 21 c3 	lhi.gp $r2,[+#0x4386]
  4024aa:	46 1f f7 ff 	sethi $r1,#0xff7ff
  4024ae:	50 10 8f ff 	addi $r1,$r1,#0xfff
  4024b2:	fe 5e       	and33 $r1,$r3
  4024b4:	14 10 00 46 	swi $r1,[$r0+#0x118]
  4024b8:	44 1f ff 73 	movi $r1,#-141
  4024bc:	fe 56       	and33 $r1,$r2
  4024be:	3c 18 21 c3 	shi.gp $r1,[+#0x4386]
  4024c2:	3c 1c 13 cf 	lwi.gp $r1,[+#0x4f3c]
  4024c6:	14 10 00 cf 	swi $r1,[$r0+#0x33c]
  4024ca:	3c 10 21 bf 	lhi.gp $r1,[+#0x437e]
  4024ce:	14 10 00 d1 	swi $r1,[$r0+#0x344]
  4024d2:	84 01       	movi55 $r0,#0x1
  4024d4:	3e 00 4f 0c 	sbi.gp $r0,[+#0x4f0c]
  4024d8:	84 00       	movi55 $r0,#0x0
  4024da:	3c 0e 13 c5 	swi.gp $r0,[+#0x4f14]
  4024de:	3c 0e 13 db 	swi.gp $r0,[+#0x4f6c]
  4024e2:	3c 0e 13 dc 	swi.gp $r0,[+#0x4f70]
  4024e6:	3c 0e 13 dd 	swi.gp $r0,[+#0x4f74]
  4024ea:	3c 0e 13 c2 	swi.gp $r0,[+#0x4f08]
  4024ee:	fc 80       	pop25 $r6,#0    ! {$r6, $fp, $gp, $lp}

004024f0 <SATA_ChangeState>:
  4024f0:	3e 28 4f 08 	addi.gp $r2,#0x4f08
  4024f4:	ae 50       	sbi333 $r1,[$r2+#0x0]
  4024f6:	3e 1f ca 04 	addi.gp $r1,#-13820
  4024fa:	50 31 00 58 	addi $r3,$r2,#0x58
  4024fe:	b6 03       	swi450 $r0,[$r3]
  402500:	38 10 82 02 	lw $r1,[$r1+($r0<<#0x2)]
  402504:	a8 5b       	swi333 $r1,[$r3+#0xc]
  402506:	3e 1f ca 40 	addi.gp $r1,#-13760
  40250a:	38 10 82 02 	lw $r1,[$r1+($r0<<#0x2)]
  40250e:	a8 5c       	swi333 $r1,[$r3+#0x10]
  402510:	3e 1f ca 7c 	addi.gp $r1,#-13700
  402514:	38 00 82 02 	lw $r0,[$r1+($r0<<#0x2)]
  402518:	a8 1d       	swi333 $r0,[$r3+#0x14]
  40251a:	dd 9e       	ret5 $lp

0040251c <error_print>:
  40251c:	fc 00       	push25 $r6,#0    ! {$r6, $fp, $gp, $lp}
  40251e:	80 20       	mov55 $r1,$r0
  402520:	3e 0f cb 38 	addi.gp $r0,#-13512
  402524:	b4 21       	lwi450 $r1,[$r1]
  402526:	49 00 0b ce 	jal 403cc2 <PRINT_HEX>
  40252a:	fc 80       	pop25 $r6,#0    ! {$r6, $fp, $gp, $lp}

0040252c <SATA_Non_Fatal_Error_Handler>:
  40252c:	fc 00       	push25 $r6,#0    ! {$r6, $fp, $gp, $lp}
  40252e:	46 60 05 e1 	sethi $r6,#0x5e1
  402532:	3e 0f cb 38 	addi.gp $r0,#-13512
  402536:	51 c3 01 30 	addi $fp,$r6,#0x130
  40253a:	b4 3c       	lwi450 $r1,[$fp]
  40253c:	49 00 0b c3 	jal 403cc2 <PRINT_HEX>
  402540:	84 00       	movi55 $r0,#0x0
  402542:	b8 fd       	swi37 $r0,[$fp+#0x1f4]
  402544:	84 1f       	movi55 $r0,#-1
  402546:	b6 1c       	swi450 $r0,[$fp]
  402548:	fc 80       	pop25 $r6,#0    ! {$r6, $fp, $gp, $lp}

0040254a <SATA_PrdDoneEventHandler>:
  40254a:	3c 1c 13 de 	lwi.gp $r1,[+#0x4f78]
  40254e:	c1 14       	beqz38 $r1,402576 <SATA_PrdDoneEventHandler+0x2c>
  402550:	fc 20       	push25 $r8,#0    ! {$r6~$r8, $fp, $gp, $lp}
  402552:	80 c0       	mov55 $r6,$r0
  402554:	49 00 08 3a 	jal 4035c8 <TQM_GetTask>
  402558:	80 e0       	mov55 $r7,$r0
  40255a:	a0 02       	lwi333 $r0,[$r0+#0x8]
  40255c:	46 20 20 00 	sethi $r2,#0x2000
  402560:	fe 86       	and33 $r2,$r0
  402562:	c2 04       	beqz38 $r2,40256a <SATA_PrdDoneEventHandler+0x20>
  402564:	80 06       	mov55 $r0,$r6
  402566:	49 00 07 1e 	jal 4033a2 <TQM_RemoveTask>
  40256a:	84 0e       	movi55 $r0,#0xe
  40256c:	3c 2c 13 de 	lwi.gp $r2,[+#0x4f78]
  402570:	9c 7c       	addi333 $r1,$r7,#0x4
  402572:	dd 22       	jral5 $r2
  402574:	fc a0       	pop25 $r8,#0    ! {$r6~$r8, $fp, $gp, $lp}
  402576:	dd 9e       	ret5 $lp

00402578 <SATA_UpdateRdIdx>:
  402578:	2e 10 4f 64 	lbi.gp $r1,[+#0x4f64]
  40257c:	c1 0c       	beqz38 $r1,402594 <SATA_UpdateRdIdx+0x1c>
  40257e:	2e 10 4f 66 	lbi.gp $r1,[+#0x4f66]
  402582:	88 20       	add45 $r1,$r0
  402584:	3e 10 4f 66 	sbi.gp $r1,[+#0x4f66]
  402588:	2e 10 4f 64 	lbi.gp $r1,[+#0x4f64]
  40258c:	9a 08       	sub333 $r0,$r1,$r0
  40258e:	96 00       	zeb33 $r0,$r0
  402590:	3e 00 4f 64 	sbi.gp $r0,[+#0x4f64]
  402594:	2e 00 4f 66 	lbi.gp $r0,[+#0x4f66]
  402598:	5c f0 00 20 	slti $r15,$r0,#0x20
  40259c:	e9 07       	bnezs8 4025aa <SATA_UpdateRdIdx+0x32>
  40259e:	84 21       	movi55 $r1,#0x1
  4025a0:	3e 10 4f 65 	sbi.gp $r1,[+#0x4f65]
  4025a4:	96 27       	fexti33 $r0,#0x4
  4025a6:	3e 00 4f 66 	sbi.gp $r0,[+#0x4f66]
  4025aa:	dd 9e       	ret5 $lp

004025ac <SATA_SendStatus>:
  4025ac:	fc 02       	push25 $r6,#16    ! {$r6, $fp, $gp, $lp}
  4025ae:	f0 81       	swi37.sp $r0,[+#0x4]
  4025b0:	84 01       	movi55 $r0,#0x1
  4025b2:	f2 83       	swi37.sp $r2,[+#0xc]
  4025b4:	f1 82       	swi37.sp $r1,[+#0x8]
  4025b6:	49 ff ff e1 	jal 402578 <SATA_UpdateRdIdx>
  4025ba:	84 01       	movi55 $r0,#0x1
  4025bc:	84 20       	movi55 $r1,#0x0
  4025be:	49 ff ff 99 	jal 4024f0 <SATA_ChangeState>
  4025c2:	f0 01       	lwi37.sp $r0,[+#0x4]
  4025c4:	f1 02       	lwi37.sp $r1,[+#0x8]
  4025c6:	f2 03       	lwi37.sp $r2,[+#0xc]
  4025c8:	49 ff fa 36 	jal 401a34 <DSATA_SendD2HFis>
  4025cc:	49 ff fa 64 	jal 401a94 <DSATA_DisableAutoSend>
  4025d0:	fc 82       	pop25 $r6,#16    ! {$r6, $fp, $gp, $lp}

004025d2 <SATA_Fatal_Error_Handler>:
  4025d2:	fc 21       	push25 $r8,#8    ! {$r6~$r8, $fp, $gp, $lp}
  4025d4:	46 60 05 e1 	sethi $r6,#0x5e1
  4025d8:	49 ff fa 40 	jal 401a58 <DSATA_GetCurrentCmdSlot>
  4025dc:	80 e0       	mov55 $r7,$r0
  4025de:	83 86       	mov55 $fp,$r6
  4025e0:	b8 4c       	lwi37 $r0,[$fp+#0x130]
  4025e2:	f0 81       	swi37.sp $r0,[+#0x4]
  4025e4:	b9 4c       	lwi37 $r1,[$fp+#0x130]
  4025e6:	3e 0f cb 38 	addi.gp $r0,#-13512
  4025ea:	49 00 0b 6c 	jal 403cc2 <PRINT_HEX>
  4025ee:	f0 01       	lwi37.sp $r0,[+#0x4]
  4025f0:	b8 cc       	swi37 $r0,[$fp+#0x130]
  4025f2:	b8 46       	lwi37 $r0,[$fp+#0x118]
  4025f4:	58 00 40 00 	ori $r0,$r0,#0x4000
  4025f8:	b8 c6       	swi37 $r0,[$fp+#0x118]
  4025fa:	3c 2c 13 ca 	lwi.gp $r2,[+#0x4f28]
  4025fe:	80 06       	mov55 $r0,$r6
  402600:	04 10 00 2d 	lwi $r1,[$r0+#0xb4]
  402604:	46 60 05 e1 	sethi $r6,#0x5e1
  402608:	92 38       	srli45 $r1,#0x18
  40260a:	96 67       	fexti33 $r1,#0x4
  40260c:	5a 10 01 07 	beqc $r1,#0x1,40261a <SATA_Fatal_Error_Handler+0x48>
  402610:	3c 1c 13 ca 	lwi.gp $r1,[+#0x4f28]
  402614:	8a 22       	sub45 $r1,$r2
  402616:	e6 2a       	slti45 $r1,#0xa
  402618:	e9 f4       	bnezs8 402600 <SATA_Fatal_Error_Handler+0x2e>
  40261a:	2e 00 4f 5e 	lbi.gp $r0,[+#0x4f5e]
  40261e:	c0 06       	beqz38 $r0,40262a <SATA_Fatal_Error_Handler+0x58>
  402620:	84 00       	movi55 $r0,#0x0
  402622:	14 03 00 d0 	swi $r0,[$r6+#0x340]
  402626:	14 03 00 cd 	swi $r0,[$r6+#0x334]
  40262a:	83 86       	mov55 $fp,$r6
  40262c:	b9 46       	lwi37 $r1,[$fp+#0x118]
  40262e:	84 1e       	movi55 $r0,#-2
  402630:	fe 0e       	and33 $r0,$r1
  402632:	b8 c6       	swi37 $r0,[$fp+#0x118]
  402634:	64 00 00 08 	dsb
  402638:	b8 46       	lwi37 $r0,[$fp+#0x118]
  40263a:	58 00 00 01 	ori $r0,$r0,#0x1
  40263e:	b8 c6       	swi37 $r0,[$fp+#0x118]
  402640:	b9 46       	lwi37 $r1,[$fp+#0x118]
  402642:	44 0f 7f ff 	movi $r0,#-32769
  402646:	fe 0e       	and33 $r0,$r1
  402648:	b8 c6       	swi37 $r0,[$fp+#0x118]
  40264a:	44 00 00 ff 	movi $r0,#0xff
  40264e:	49 ff f6 66 	jal 40131a <DSATA_ExceptionHandler>
  402652:	b0 01       	addri36.sp $r0,#0x4
  402654:	49 ff ff 64 	jal 40251c <error_print>
  402658:	f1 01       	lwi37.sp $r1,[+#0x4]
  40265a:	40 20 88 09 	srli $r2,$r1,#0x2
  40265e:	92 2e       	srli45 $r1,#0xe
  402660:	fe 57       	or33 $r1,$r2
  402662:	2e 20 4f 5e 	lbi.gp $r2,[+#0x4f5e]
  402666:	5c 01 00 01 	slti $r0,$r2,#0x1
  40266a:	3e 00 53 05 	sbi.gp $r0,[+#0x5305]
  40266e:	96 7e       	bmski33 $r1,#0x7
  402670:	3e 70 53 06 	sbi.gp $r7,[+#0x5306]
  402674:	58 10 80 04 	ori $r1,$r1,#0x4
  402678:	96 48       	zeb33 $r1,$r1
  40267a:	3e 10 53 03 	sbi.gp $r1,[+#0x5303]
  40267e:	b8 44       	lwi37 $r0,[$fp+#0x110]
  402680:	92 08       	srli45 $r0,#0x8
  402682:	96 06       	bmski33 $r0,#0x0
  402684:	c0 06       	beqz38 $r0,402690 <SATA_Fatal_Error_Handler+0xbe>
  402686:	84 01       	movi55 $r0,#0x1
  402688:	84 20       	movi55 $r1,#0x0
  40268a:	49 ff ff 33 	jal 4024f0 <SATA_ChangeState>
  40268e:	fc a1       	pop25 $r8,#8    ! {$r6~$r8, $fp, $gp, $lp}
  402690:	c2 06       	beqz38 $r2,40269c <SATA_Fatal_Error_Handler+0xca>
  402692:	84 0d       	movi55 $r0,#0xd
  402694:	84 2b       	movi55 $r1,#0xb
  402696:	49 ff ff 2d 	jal 4024f0 <SATA_ChangeState>
  40269a:	d5 06       	j8 4026a6 <SATA_Fatal_Error_Handler+0xd4>
  40269c:	44 00 00 51 	movi $r0,#0x51
  4026a0:	84 41       	movi55 $r2,#0x1
  4026a2:	49 ff ff 85 	jal 4025ac <SATA_SendStatus>
  4026a6:	3c 0c 13 e6 	lwi.gp $r0,[+#0x4f98]
  4026aa:	c0 08       	beqz38 $r0,4026ba <SATA_Fatal_Error_Handler+0xe8>
  4026ac:	49 00 0b 44 	jal 403d34 <GIE_DISABLE>
  4026b0:	3c 0c 13 e6 	lwi.gp $r0,[+#0x4f98]
  4026b4:	dd 20       	jral5 $r0
  4026b6:	49 00 0b 3a 	jal 403d2a <GIE_ENABLE>
  4026ba:	fc a1       	pop25 $r8,#8    ! {$r6~$r8, $fp, $gp, $lp}

004026bc <SATA_FTXDS_Handler>:
  4026bc:	fc 00       	push25 $r6,#0    ! {$r6, $fp, $gp, $lp}
  4026be:	49 ff f9 d9 	jal 401a70 <DSATA_IsAutoSendEnabled>
  4026c2:	c0 0a       	beqz38 $r0,4026d6 <SATA_FTXDS_Handler+0x1a>
  4026c4:	84 01       	movi55 $r0,#0x1
  4026c6:	49 ff ff 59 	jal 402578 <SATA_UpdateRdIdx>
  4026ca:	84 01       	movi55 $r0,#0x1
  4026cc:	84 20       	movi55 $r1,#0x0
  4026ce:	49 ff ff 11 	jal 4024f0 <SATA_ChangeState>
  4026d2:	49 ff f9 e1 	jal 401a94 <DSATA_DisableAutoSend>
  4026d6:	fc 80       	pop25 $r6,#0    ! {$r6, $fp, $gp, $lp}

004026d8 <SATA_SaveH2DFis>:
  4026d8:	fc 20       	push25 $r8,#0    ! {$r6~$r8, $fp, $gp, $lp}
  4026da:	fa 88       	movpi45 $r4,#0x18
  4026dc:	2e 20 4f 67 	lbi.gp $r2,[+#0x4f67]
  4026e0:	3e 58 4f 08 	addi.gp $r5,#0x4f08
  4026e4:	ff 14       	mul33 $r4,$r2
  4026e6:	98 ec       	add333 $r3,$r5,$r4
  4026e8:	b4 e1       	lwi450 $r7,[$r1]
  4026ea:	50 61 80 b0 	addi $r6,$r3,#0xb0
  4026ee:	a9 f1       	swi333 $r7,[$r6+#0x4]
  4026f0:	a1 c9       	lwi333 $r7,[$r1+#0x4]
  4026f2:	50 61 80 b8 	addi $r6,$r3,#0xb8
  4026f6:	14 71 80 2e 	swi $r7,[$r3+#0xb8]
  4026fa:	a1 ca       	lwi333 $r7,[$r1+#0x8]
  4026fc:	50 31 80 c0 	addi $r3,$r3,#0xc0
  402700:	a9 f1       	swi333 $r7,[$r6+#0x4]
  402702:	a1 cb       	lwi333 $r7,[$r1+#0xc]
  402704:	50 52 80 b0 	addi $r5,$r5,#0xb0
  402708:	b6 e3       	swi450 $r7,[$r3]
  40270a:	a0 4c       	lwi333 $r1,[$r1+#0x10]
  40270c:	88 85       	add45 $r4,$r5
  40270e:	a8 59       	swi333 $r1,[$r3+#0x4]
  402710:	a0 61       	lwi333 $r1,[$r4+#0x4]
  402712:	92 28       	srli45 $r1,#0x8
  402714:	96 5f       	fexti33 $r1,#0x3
  402716:	3e 10 53 67 	sbi.gp $r1,[+#0x5367]
  40271a:	3c 1c 13 ca 	lwi.gp $r1,[+#0x4f28]
  40271e:	a8 5a       	swi333 $r1,[$r3+#0x8]
  402720:	9c 51       	addi333 $r1,$r2,#0x1
  402722:	96 48       	zeb33 $r1,$r1
  402724:	3e 10 4f 67 	sbi.gp $r1,[+#0x4f67]
  402728:	2e 20 4f 64 	lbi.gp $r2,[+#0x4f64]
  40272c:	8c 41       	addi45 $r2,#0x1
  40272e:	96 90       	zeb33 $r2,$r2
  402730:	3e 20 4f 64 	sbi.gp $r2,[+#0x4f64]
  402734:	5a 18 20 05 	bnec $r1,#0x20,40273e <SATA_SaveH2DFis+0x66>
  402738:	84 20       	movi55 $r1,#0x0
  40273a:	3e 10 4f 67 	sbi.gp $r1,[+#0x4f67]
  40273e:	5a 00 0d 04 	beqc $r0,#0xd,402746 <SATA_SaveH2DFis+0x6e>
  402742:	49 ff f9 b6 	jal 401aae <DSATA_EnableRxFis>
  402746:	84 01       	movi55 $r0,#0x1
  402748:	fc a0       	pop25 $r8,#0    ! {$r6~$r8, $fp, $gp, $lp}

0040274a <SATA_SReset_Handler>:
  40274a:	fc 41       	push25 $r10,#8    ! {$r6~$r10, $fp, $gp, $lp}
  40274c:	3f c8 4e e8 	addi.gp $fp,#0x4ee8
  402750:	46 10 05 e1 	sethi $r1,#0x5e1
  402754:	2e 50 53 78 	lbi.gp $r5,[+#0x5378]
  402758:	04 00 80 d6 	lwi $r0,[$r1+#0x358]
  40275c:	84 c1       	movi55 $r6,#0x1
  40275e:	96 2f       	fexti33 $r0,#0x5
  402760:	d8 06       	bnes38 $r0,40276c <SATA_SReset_Handler+0x22>
  402762:	04 00 80 ce 	lwi $r0,[$r1+#0x338]
  402766:	8c 01       	addi45 $r0,#0x1
  402768:	5c 60 00 01 	slti $r6,$r0,#0x1
  40276c:	3e 78 53 c8 	addi.gp $r7,#0x53c8
  402770:	50 93 80 08 	addi $r9,$r7,#0x8
  402774:	46 a0 05 e1 	sethi $r10,#0x5e1
  402778:	04 05 00 6f 	lwi $r0,[$r10+#0x1bc]
  40277c:	c0 35       	beqz38 $r0,4027e6 <SATA_SReset_Handler+0x9c>
  40277e:	04 05 00 6f 	lwi $r0,[$r10+#0x1bc]
  402782:	96 06       	bmski33 $r0,#0x0
  402784:	c8 31       	bnez38 $r0,4027e6 <SATA_SReset_Handler+0x9c>
  402786:	3e 0f cb 40 	addi.gp $r0,#-13504
  40278a:	04 15 00 6f 	lwi $r1,[$r10+#0x1bc]
  40278e:	49 00 0a 9a 	jal 403cc2 <PRINT_HEX>
  402792:	04 05 00 6f 	lwi $r0,[$r10+#0x1bc]
  402796:	92 02       	srli45 $r0,#0x2
  402798:	96 06       	bmski33 $r0,#0x0
  40279a:	c0 07       	beqz38 $r0,4027a8 <SATA_SReset_Handler+0x5e>
  40279c:	3e 0f cb 4c 	addi.gp $r0,#-13492
  4027a0:	49 00 0a 41 	jal 403c22 <PRINT_TXT>
  4027a4:	84 c4       	movi55 $r6,#0x4
  4027a6:	d5 06       	j8 4027b2 <SATA_SReset_Handler+0x68>
  4027a8:	3e 0f cb 5c 	addi.gp $r0,#-13476
  4027ac:	49 00 0a 3b 	jal 403c22 <PRINT_TXT>
  4027b0:	84 c2       	movi55 $r6,#0x2
  4027b2:	84 0d       	movi55 $r0,#0xd
  4027b4:	84 21       	movi55 $r1,#0x1
  4027b6:	49 ff fe 9d 	jal 4024f0 <SATA_ChangeState>
  4027ba:	3e 18 4e e8 	addi.gp $r1,#0x4ee8
  4027be:	84 0d       	movi55 $r0,#0xd
  4027c0:	49 ff ff 8c 	jal 4026d8 <SATA_SaveH2DFis>
  4027c4:	80 06       	mov55 $r0,$r6
  4027c6:	49 ff fc 51 	jal 402068 <AddCommandToQueue>
  4027ca:	46 00 05 e1 	sethi $r0,#0x5e1
  4027ce:	50 30 01 bc 	addi $r3,$r0,#0x1bc
  4027d2:	a0 5f       	lwi333 $r1,[$r3+#0x1c]
  4027d4:	58 10 80 02 	ori $r1,$r1,#0x2
  4027d8:	a8 5f       	swi333 $r1,[$r3+#0x1c]
  4027da:	84 21       	movi55 $r1,#0x1
  4027dc:	3c 18 27 b4 	shi.gp $r1,[+#0x4f68]
  4027e0:	84 20       	movi55 $r1,#0x0
  4027e2:	b6 23       	swi450 $r1,[$r3]
  4027e4:	d5 3f       	j8 402862 <SATA_SReset_Handler+0x118>
  4027e6:	04 05 00 46 	lwi $r0,[$r10+#0x118]
  4027ea:	46 80 05 e1 	sethi $r8,#0x5e1
  4027ee:	92 04       	srli45 $r0,#0x4
  4027f0:	96 06       	bmski33 $r0,#0x0
  4027f2:	84 41       	movi55 $r2,#0x1
  4027f4:	5a 00 01 08 	beqc $r0,#0x1,402804 <SATA_SReset_Handler+0xba>
  4027f8:	04 04 00 6f 	lwi $r0,[$r8+#0x1bc]
  4027fc:	54 a0 00 01 	andi $r10,$r0,#0x1
  402800:	4e a2 00 53 	beqz $r10,4028a6 <SATA_SReset_Handler+0x15c>
  402804:	46 10 05 e1 	sethi $r1,#0x5e1
  402808:	84 1e       	movi55 $r0,#-2
  40280a:	04 20 80 6f 	lwi $r2,[$r1+#0x1bc]
  40280e:	fe 16       	and33 $r0,$r2
  402810:	14 00 80 6f 	swi $r0,[$r1+#0x1bc]
  402814:	bf 00       	lwi37 $r7,[$fp+#0x0]
  402816:	84 01       	movi55 $r0,#0x1
  402818:	92 ef       	srli45 $r7,#0xf
  40281a:	97 c6       	bmski33 $r7,#0x0
  40281c:	cf 34       	bnez38 $r7,402884 <SATA_SReset_Handler+0x13a>
  40281e:	3e 18 4e e8 	addi.gp $r1,#0x4ee8
  402822:	2e 60 4e f7 	lbi.gp $r6,[+#0x4ef7]
  402826:	84 02       	movi55 $r0,#0x2
  402828:	97 b0       	zeb33 $r6,$r6
  40282a:	97 96       	bmski33 $r6,#0x2
  40282c:	49 ff ff 56 	jal 4026d8 <SATA_SaveH2DFis>
  402830:	c6 1c       	beqz38 $r6,402868 <SATA_SReset_Handler+0x11e>
  402832:	b8 1e       	lwi37 $r0,[$fp+#0x78]
  402834:	5a 00 02 10 	beqc $r0,#0x2,402854 <SATA_SReset_Handler+0x10a>
  402838:	80 07       	mov55 $r0,$r7
  40283a:	49 ff f5 70 	jal 40131a <DSATA_ExceptionHandler>
  40283e:	49 ff f9 2b 	jal 401a94 <DSATA_DisableAutoSend>
  402842:	80 27       	mov55 $r1,$r7
  402844:	3e 70 4f 5e 	sbi.gp $r7,[+#0x4f5e]
  402848:	3e 70 57 75 	sbi.gp $r7,[+#0x5775]
  40284c:	84 02       	movi55 $r0,#0x2
  40284e:	49 ff fe 51 	jal 4024f0 <SATA_ChangeState>
  402852:	d5 04       	j8 40285a <SATA_SReset_Handler+0x110>
  402854:	b8 08       	lwi37 $r0,[$fp+#0x20]
  402856:	c0 02       	beqz38 $r0,40285a <SATA_SReset_Handler+0x110>
  402858:	bf 88       	swi37 $r7,[$fp+#0x20]
  40285a:	3e 0f cb 6c 	addi.gp $r0,#-13460
  40285e:	49 00 09 e2 	jal 403c22 <PRINT_TXT>
  402862:	84 01       	movi55 $r0,#0x1
  402864:	48 00 01 15 	j 402a8e <SATA_SReset_Handler+0x344>
  402868:	3e 0f cb 74 	addi.gp $r0,#-13452
  40286c:	49 00 09 db 	jal 403c22 <PRINT_TXT>
  402870:	b8 1e       	lwi37 $r0,[$fp+#0x78]
  402872:	5a 00 02 05 	beqc $r0,#0x2,40287c <SATA_SReset_Handler+0x132>
  402876:	3e 0f cb 7c 	addi.gp $r0,#-13444
  40287a:	d5 f2       	j8 40285e <SATA_SReset_Handler+0x114>
  40287c:	84 01       	movi55 $r0,#0x1
  40287e:	b8 88       	swi37 $r0,[$fp+#0x20]
  402880:	48 00 01 07 	j 402a8e <SATA_SReset_Handler+0x344>
  402884:	4e 62 01 04 	beqz $r6,402a8c <SATA_SReset_Handler+0x342>
  402888:	3e 00 4f 5e 	sbi.gp $r0,[+#0x4f5e]
  40288c:	3e 00 57 75 	sbi.gp $r0,[+#0x5775]
  402890:	84 0d       	movi55 $r0,#0xd
  402892:	84 21       	movi55 $r1,#0x1
  402894:	49 ff fe 2e 	jal 4024f0 <SATA_ChangeState>
  402898:	3e 0f cb 88 	addi.gp $r0,#-13432
  40289c:	49 00 09 c3 	jal 403c22 <PRINT_TXT>
  4028a0:	84 00       	movi55 $r0,#0x0
  4028a2:	48 00 00 f6 	j 402a8e <SATA_SReset_Handler+0x344>
  4028a6:	c6 de       	beqz38 $r6,402862 <SATA_SReset_Handler+0x118>
  4028a8:	b6 5f       	swi450 $r2,[$sp]
  4028aa:	b8 1e       	lwi37 $r0,[$fp+#0x78]
  4028ac:	5a 00 0d 27 	beqc $r0,#0xd,4028fa <SATA_SReset_Handler+0x1b0>
  4028b0:	49 ff f8 e7 	jal 401a7e <DSATA_EnableAutoSend>
  4028b4:	04 14 00 76 	lwi $r1,[$r8+#0x1d8]
  4028b8:	84 17       	movi55 $r0,#-9
  4028ba:	fe 0e       	and33 $r0,$r1
  4028bc:	14 04 00 76 	swi $r0,[$r8+#0x1d8]
  4028c0:	84 21       	movi55 $r1,#0x1
  4028c2:	84 0d       	movi55 $r0,#0xd
  4028c4:	49 ff fe 16 	jal 4024f0 <SATA_ChangeState>
  4028c8:	b4 5f       	lwi450 $r2,[$sp]
  4028ca:	3e 20 4f 5e 	sbi.gp $r2,[+#0x4f5e]
  4028ce:	3e 20 57 75 	sbi.gp $r2,[+#0x5775]
  4028d2:	2e 00 53 a4 	lbi.gp $r0,[+#0x53a4]
  4028d6:	5a 08 01 07 	bnec $r0,#0x1,4028e4 <SATA_SReset_Handler+0x19a>
  4028da:	3e a0 53 a4 	sbi.gp $r10,[+#0x53a4]
  4028de:	80 0a       	mov55 $r0,$r10
  4028e0:	49 ff f2 9a 	jal 400e14 <DSATA_ExbuffAndCheckPoit_Ctrl>
  4028e4:	44 00 55 00 	movi $r0,#0x5500
  4028e8:	3c 0e 14 e6 	swi.gp $r0,[+#0x5398]
  4028ec:	84 00       	movi55 $r0,#0x0
  4028ee:	3e 00 53 a0 	sbi.gp $r0,[+#0x53a0]
  4028f2:	3e 00 53 a1 	sbi.gp $r0,[+#0x53a1]
  4028f6:	3e 00 53 a2 	sbi.gp $r0,[+#0x53a2]
  4028fa:	84 60       	movi55 $r3,#0x0
  4028fc:	3c 00 21 c3 	lhi.gp $r0,[+#0x4386]
  402900:	96 16       	bmski33 $r0,#0x2
  402902:	40 80 08 09 	srli $r8,$r0,#0x2
  402906:	40 84 24 08 	slli $r8,$r8,#0x9
  40290a:	3f e8 46 e8 	addi.gp $lp,#0x46e8
  40290e:	2e 10 53 78 	lbi.gp $r1,[+#0x5378]
  402912:	84 01       	movi55 $r0,#0x1
  402914:	94 4d       	slli333 $r1,$r1,#0x5
  402916:	40 a0 f8 00 	add $r10,$r1,$lp
  40291a:	46 10 05 e1 	sethi $r1,#0x5e1
  40291e:	80 aa       	mov55 $r5,$r10
  402920:	a0 ae       	lwi333 $r2,[$r5+#0x18]
  402922:	04 40 80 45 	lwi $r4,[$r1+#0x114]
  402926:	92 50       	srli45 $r2,#0x10
  402928:	96 a7       	fexti33 $r2,#0x4
  40292a:	40 00 08 0c 	sll $r0,$r0,$r2
  40292e:	fe c7       	or33 $r3,$r0
  402930:	84 1d       	movi55 $r0,#-3
  402932:	fe 26       	and33 $r0,$r4
  402934:	14 00 80 45 	swi $r0,[$r1+#0x114]
  402938:	a0 2e       	lwi333 $r0,[$r5+#0x18]
  40293a:	44 50 81 00 	movi $r5,#0x8100
  40293e:	92 16       	srli45 $r0,#0x16
  402940:	96 06       	bmski33 $r0,#0x0
  402942:	94 46       	slli333 $r1,$r0,#0x6
  402944:	ff 57       	or33 $r5,$r2
  402946:	ff 4f       	or33 $r5,$r1
  402948:	3e 48 36 e8 	addi.gp $r4,#0x36e8
  40294c:	94 55       	slli333 $r1,$r2,#0x5
  40294e:	40 f2 04 00 	add $r15,$r4,$r1
  402952:	b6 af       	swi450 $r5,[$r15]
  402954:	80 be       	mov55 $r5,$lp
  402956:	c8 05       	bnez38 $r0,402960 <SATA_SReset_Handler+0x216>
  402958:	b4 0f       	lwi450 $r0,[$r15]
  40295a:	40 04 00 04 	or $r0,$r8,$r0
  40295e:	b6 0f       	swi450 $r0,[$r15]
  402960:	04 05 00 07 	lwi $r0,[$r10+#0x1c]
  402964:	88 24       	add45 $r1,$r4
  402966:	40 00 24 08 	slli $r0,$r0,#0x9
  40296a:	f3 81       	swi37.sp $r3,[+#0x4]
  40296c:	a8 09       	swi333 $r0,[$r1+#0x4]
  40296e:	04 05 00 07 	lwi $r0,[$r10+#0x1c]
  402972:	46 14 00 00 	sethi $r1,#0x40000
  402976:	40 00 24 08 	slli $r0,$r0,#0x9
  40297a:	8e 01       	subi45 $r0,#0x1
  40297c:	fe 0f       	or33 $r0,$r1
  40297e:	3e 48 44 e8 	addi.gp $r4,#0x44e8
  402982:	94 54       	slli333 $r1,$r2,#0x4
  402984:	88 24       	add45 $r1,$r4
  402986:	50 40 80 08 	addi $r4,$r1,#0x8
  40298a:	a8 21       	swi333 $r0,[$r4+#0x4]
  40298c:	fa 8c       	movpi45 $r4,#0x1c
  40298e:	3c fc 13 e0 	lwi.gp $r15,[+#0x4f80]
  402992:	14 f0 80 00 	swi $r15,[$r1+#0x0]
  402996:	2e 00 53 78 	lbi.gp $r0,[+#0x5378]
  40299a:	ff 14       	mul33 $r4,$r2
  40299c:	94 05       	slli333 $r0,$r0,#0x5
  40299e:	88 05       	add45 $r0,$r5
  4029a0:	8c 10       	addi45 $r0,#0x10
  4029a2:	a0 41       	lwi333 $r1,[$r0+#0x4]
  4029a4:	98 3c       	add333 $r0,$r7,$r4
  4029a6:	a8 41       	swi333 $r1,[$r0+#0x4]
  4029a8:	2e 10 53 78 	lbi.gp $r1,[+#0x5378]
  4029ac:	94 4d       	slli333 $r1,$r1,#0x5
  4029ae:	88 25       	add45 $r1,$r5
  4029b0:	8c 38       	addi45 $r1,#0x18
  4029b2:	50 50 00 08 	addi $r5,$r0,#0x8
  4029b6:	a0 49       	lwi333 $r1,[$r1+#0x4]
  4029b8:	a8 69       	swi333 $r1,[$r5+#0x4]
  4029ba:	2e 10 53 78 	lbi.gp $r1,[+#0x5378]
  4029be:	94 4d       	slli333 $r1,$r1,#0x5
  4029c0:	8c 38       	addi45 $r1,#0x18
  4029c2:	38 1f 04 02 	lw $r1,[$lp+($r1<<#0x0)]
  4029c6:	38 14 90 0a 	sw $r1,[$r9+($r4<<#0x0)]
  4029ca:	00 15 00 07 	lbi $r1,[$r10+#0x7]
  4029ce:	14 f0 00 04 	swi $r15,[$r0+#0x10]
  4029d2:	92 27       	srli45 $r1,#0x7
  4029d4:	40 40 ac 08 	slli $r4,$r1,#0xb
  4029d8:	a4 45       	lhi333 $r1,[$r0+#0xa]
  4029da:	54 10 87 ff 	andi $r1,$r1,#0x7ff
  4029de:	fe 67       	or33 $r1,$r4
  4029e0:	84 80       	movi55 $r4,#0x0
  4029e2:	ac 45       	shi333 $r1,[$r0+#0xa]
  4029e4:	b6 9f       	swi450 $r4,[$sp]
  4029e6:	a4 45       	lhi333 $r1,[$r0+#0xa]
  4029e8:	af 01       	sbi333 $r4,[$r0+#0x1]
  4029ea:	92 26       	srli45 $r1,#0x6
  4029ec:	94 4e       	slli333 $r1,$r1,#0x6
  4029ee:	fe 8f       	or33 $r2,$r1
  4029f0:	ac 85       	shi333 $r2,[$r0+#0xa]
  4029f2:	49 00 06 7d 	jal 4036ec <TQM_AddTask>
  4029f6:	49 00 09 9f 	jal 403d34 <GIE_DISABLE>
  4029fa:	80 2a       	mov55 $r1,$r10
  4029fc:	84 0d       	movi55 $r0,#0xd
  4029fe:	49 ff fe 6d 	jal 4026d8 <SATA_SaveH2DFis>
  402a02:	49 00 09 94 	jal 403d2a <GIE_ENABLE>
  402a06:	2e 00 53 78 	lbi.gp $r0,[+#0x5378]
  402a0a:	b4 9f       	lwi450 $r4,[$sp]
  402a0c:	8c 01       	addi45 $r0,#0x1
  402a0e:	96 00       	zeb33 $r0,$r0
  402a10:	3e 00 53 78 	sbi.gp $r0,[+#0x5378]
  402a14:	2e 00 53 78 	lbi.gp $r0,[+#0x5378]
  402a18:	f3 01       	lwi37.sp $r3,[+#0x4]
  402a1a:	5a 08 21 04 	bnec $r0,#0x21,402a22 <SATA_SReset_Handler+0x2d8>
  402a1e:	3e 40 53 78 	sbi.gp $r4,[+#0x5378]
  402a22:	46 10 05 e1 	sethi $r1,#0x5e1
  402a26:	2e 50 53 78 	lbi.gp $r5,[+#0x5378]
  402a2a:	04 00 80 d6 	lwi $r0,[$r1+#0x358]
  402a2e:	96 2f       	fexti33 $r0,#0x5
  402a30:	4c 50 7f 6d 	bne $r5,$r0,40290a <SATA_SReset_Handler+0x1c0>
  402a34:	14 30 80 ce 	swi $r3,[$r1+#0x338]
  402a38:	2e 00 53 79 	lbi.gp $r0,[+#0x5379]
  402a3c:	5a 08 01 10 	bnec $r0,#0x1,402a5c <SATA_SReset_Handler+0x312>
  402a40:	04 20 80 e9 	lwi $r2,[$r1+#0x3a4]
  402a44:	96 86       	bmski33 $r2,#0x0
  402a46:	ca 0b       	bnez38 $r2,402a5c <SATA_SReset_Handler+0x312>
  402a48:	04 40 80 45 	lwi $r4,[$r1+#0x114]
  402a4c:	84 7d       	movi55 $r3,#-3
  402a4e:	fe e6       	and33 $r3,$r4
  402a50:	14 30 80 45 	swi $r3,[$r1+#0x114]
  402a54:	3e 20 53 79 	sbi.gp $r2,[+#0x5379]
  402a58:	49 ff fd 90 	jal 402578 <SATA_UpdateRdIdx>
  402a5c:	84 01       	movi55 $r0,#0x1
  402a5e:	b8 8a       	swi37 $r0,[$fp+#0x28]
  402a60:	84 00       	movi55 $r0,#0x0
  402a62:	3c 0e 14 d4 	swi.gp $r0,[+#0x5350]
  402a66:	46 00 05 e1 	sethi $r0,#0x5e1
  402a6a:	04 10 00 6f 	lwi $r1,[$r0+#0x1bc]
  402a6e:	c9 09       	bnez38 $r1,402a80 <SATA_SReset_Handler+0x336>
  402a70:	04 00 00 46 	lwi $r0,[$r0+#0x118]
  402a74:	92 04       	srli45 $r0,#0x4
  402a76:	96 06       	bmski33 $r0,#0x0
  402a78:	5a 00 01 04 	beqc $r0,#0x1,402a80 <SATA_SReset_Handler+0x336>
  402a7c:	48 ff fe f3 	j 402862 <SATA_SReset_Handler+0x118>
  402a80:	3e 0f cb 90 	addi.gp $r0,#-13424
  402a84:	49 00 08 cf 	jal 403c22 <PRINT_TXT>
  402a88:	48 ff fe 76 	j 402774 <SATA_SReset_Handler+0x2a>
  402a8c:	80 06       	mov55 $r0,$r6
  402a8e:	fc c1       	pop25 $r10,#8    ! {$r6~$r10, $fp, $gp, $lp}

00402a90 <SATA_SendGoodBadStatus>:
  402a90:	fc 20       	push25 $r8,#0    ! {$r6~$r8, $fp, $gp, $lp}
  402a92:	80 c1       	mov55 $r6,$r1
  402a94:	80 e0       	mov55 $r7,$r0
  402a96:	49 ff f3 30 	jal 4010f6 <DSATA_ClearFsmBuff>
  402a9a:	2e 07 c9 f5 	lbi.gp $r0,[+#-13835]
  402a9e:	3e 00 4e e8 	sbi.gp $r0,[+#0x4ee8]
  402aa2:	44 00 00 50 	movi $r0,#0x50
  402aa6:	3e 00 4e ea 	sbi.gp $r0,[+#0x4eea]
  402aaa:	84 41       	movi55 $r2,#0x1
  402aac:	3e 20 4e eb 	sbi.gp $r2,[+#0x4eeb]
  402ab0:	97 86       	bmski33 $r6,#0x0
  402ab2:	94 76       	slli333 $r1,$r6,#0x6
  402ab4:	2e 60 4e e9 	lbi.gp $r6,[+#0x4ee9]
  402ab8:	54 63 00 bf 	andi $r6,$r6,#0xbf
  402abc:	ff 8f       	or33 $r6,$r1
  402abe:	3e 60 4e e9 	sbi.gp $r6,[+#0x4ee9]
  402ac2:	3e 20 4e ec 	sbi.gp $r2,[+#0x4eec]
  402ac6:	3e 20 4e f4 	sbi.gp $r2,[+#0x4ef4]
  402aca:	cf 03       	bnez38 $r7,402ad0 <SATA_SendGoodBadStatus+0x40>
  402acc:	3e 70 4e eb 	sbi.gp $r7,[+#0x4eeb]
  402ad0:	84 01       	movi55 $r0,#0x1
  402ad2:	49 ff f7 63 	jal 401998 <DSATA_TrigeSendFis>
  402ad6:	fc a0       	pop25 $r8,#0    ! {$r6~$r8, $fp, $gp, $lp}

00402ad8 <SATA_ClearCmd>:
  402ad8:	fc 00       	push25 $r6,#0    ! {$r6, $fp, $gp, $lp}
  402ada:	46 10 05 e1 	sethi $r1,#0x5e1
  402ade:	3e 68 4f 08 	addi.gp $r6,#0x4f08
  402ae2:	83 81       	mov55 $fp,$r1
  402ae4:	b8 76       	lwi37 $r0,[$fp+#0x1d8]
  402ae6:	58 00 00 02 	ori $r0,$r0,#0x2
  402aea:	b8 f6       	swi37 $r0,[$fp+#0x1d8]
  402aec:	84 01       	movi55 $r0,#0x1
  402aee:	12 03 00 30 	shi $r0,[$r6+#0x60]
  402af2:	49 00 05 de 	jal 4036ae <TQM_AbortAllTask>
  402af6:	84 00       	movi55 $r0,#0x0
  402af8:	10 03 00 5c 	sbi $r0,[$r6+#0x5c]
  402afc:	00 03 00 5f 	lbi $r0,[$r6+#0x5f]
  402b00:	10 03 00 5e 	sbi $r0,[$r6+#0x5e]
  402b04:	fc 80       	pop25 $r6,#0    ! {$r6, $fp, $gp, $lp}

00402b06 <SATA_DHR_StateMachine>:
  402b06:	3c 0c 13 c2 	lwi.gp $r0,[+#0x4f08]
  402b0a:	e6 04       	slti45 $r0,#0x4
  402b0c:	e8 46       	beqzs8 402b98 <SATA_DHR_StateMachine+0x92>
  402b0e:	fc 00       	push25 $r6,#0    ! {$r6, $fp, $gp, $lp}
  402b10:	49 ff f2 dd 	jal 4010ca <DSATA_LinkCheck>
  402b14:	c0 41       	beqz38 $r0,402b96 <SATA_DHR_StateMachine+0x90>
  402b16:	46 60 05 e1 	sethi $r6,#0x5e1
  402b1a:	84 00       	movi55 $r0,#0x0
  402b1c:	83 86       	mov55 $fp,$r6
  402b1e:	b8 f2       	swi37 $r0,[$fp+#0x1c8]
  402b20:	84 04       	movi55 $r0,#0x4
  402b22:	49 00 09 47 	jal 403db0 <NVIC_DisableIRQ>
  402b26:	49 ff f2 ad 	jal 401080 <DSATA_StartupEnable>
  402b2a:	84 0a       	movi55 $r0,#0xa
  402b2c:	49 00 09 bd 	jal 403ea6 <delay_ms>
  402b30:	b8 46       	lwi37 $r0,[$fp+#0x118]
  402b32:	92 04       	srli45 $r0,#0x4
  402b34:	96 06       	bmski33 $r0,#0x0
  402b36:	c0 06       	beqz38 $r0,402b42 <SATA_DHR_StateMachine+0x3c>
  402b38:	84 01       	movi55 $r0,#0x1
  402b3a:	14 03 00 44 	swi $r0,[$r6+#0x110]
  402b3e:	49 ff f7 b8 	jal 401aae <DSATA_EnableRxFis>
  402b42:	84 01       	movi55 $r0,#0x1
  402b44:	46 60 05 e1 	sethi $r6,#0x5e1
  402b48:	49 00 09 af 	jal 403ea6 <delay_ms>
  402b4c:	84 01       	movi55 $r0,#0x1
  402b4e:	84 20       	movi55 $r1,#0x0
  402b50:	49 ff ff a0 	jal 402a90 <SATA_SendGoodBadStatus>
  402b54:	04 03 00 46 	lwi $r0,[$r6+#0x118]
  402b58:	92 04       	srli45 $r0,#0x4
  402b5a:	96 06       	bmski33 $r0,#0x0
  402b5c:	c0 06       	beqz38 $r0,402b68 <SATA_DHR_StateMachine+0x62>
  402b5e:	84 01       	movi55 $r0,#0x1
  402b60:	14 03 00 44 	swi $r0,[$r6+#0x110]
  402b64:	49 ff f7 a5 	jal 401aae <DSATA_EnableRxFis>
  402b68:	3e 0f cb a0 	addi.gp $r0,#-13408
  402b6c:	49 00 08 5b 	jal 403c22 <PRINT_TXT>
  402b70:	04 03 00 4a 	lwi $r0,[$r6+#0x128]
  402b74:	84 31       	movi55 $r1,#-15
  402b76:	92 03       	srli45 $r0,#0x3
  402b78:	54 20 00 06 	andi $r2,$r0,#0x6
  402b7c:	3c 00 21 c1 	lhi.gp $r0,[+#0x4382]
  402b80:	fe 0e       	and33 $r0,$r1
  402b82:	fe 17       	or33 $r0,$r2
  402b84:	3c 08 21 c1 	shi.gp $r0,[+#0x4382]
  402b88:	84 01       	movi55 $r0,#0x1
  402b8a:	84 20       	movi55 $r1,#0x0
  402b8c:	49 ff fc b2 	jal 4024f0 <SATA_ChangeState>
  402b90:	84 04       	movi55 $r0,#0x4
  402b92:	49 00 09 04 	jal 403d9a <NVIC_EnableIRQ>
  402b96:	fc 80       	pop25 $r6,#0    ! {$r6, $fp, $gp, $lp}
  402b98:	dd 9e       	ret5 $lp

00402b9a <SATA_DHR_IntEventHandler>:
  402b9a:	dd 9e       	ret5 $lp

00402b9c <SATA_DSR_StateMachine>:
  402b9c:	3c 0c 13 c2 	lwi.gp $r0,[+#0x4f08]
  402ba0:	8e 01       	subi45 $r0,#0x1
  402ba2:	e6 03       	slti45 $r0,#0x3
  402ba4:	e8 2c       	beqzs8 402bfc <SATA_DSR_StateMachine+0x60>
  402ba6:	fc 00       	push25 $r6,#0    ! {$r6, $fp, $gp, $lp}
  402ba8:	49 ff f2 91 	jal 4010ca <DSATA_LinkCheck>
  402bac:	c0 27       	beqz38 $r0,402bfa <SATA_DSR_StateMachine+0x5e>
  402bae:	84 04       	movi55 $r0,#0x4
  402bb0:	49 00 09 00 	jal 403db0 <NVIC_DisableIRQ>
  402bb4:	3c 0c 13 d5 	lwi.gp $r0,[+#0x4f54]
  402bb8:	5a 00 04 07 	beqc $r0,#0x4,402bc6 <SATA_DSR_StateMachine+0x2a>
  402bbc:	46 00 05 e1 	sethi $r0,#0x5e1
  402bc0:	84 21       	movi55 $r1,#0x1
  402bc2:	14 10 00 cd 	swi $r1,[$r0+#0x334]
  402bc6:	49 ff ff 89 	jal 402ad8 <SATA_ClearCmd>
  402bca:	49 ff f2 5b 	jal 401080 <DSATA_StartupEnable>
  402bce:	3c 0c 13 c4 	lwi.gp $r0,[+#0x4f10]
  402bd2:	5a 08 02 05 	bnec $r0,#0x2,402bdc <SATA_DSR_StateMachine+0x40>
  402bd6:	84 03       	movi55 $r0,#0x3
  402bd8:	3c 0e 13 c4 	swi.gp $r0,[+#0x4f10]
  402bdc:	3e 0f cb a8 	addi.gp $r0,#-13400
  402be0:	49 00 08 21 	jal 403c22 <PRINT_TXT>
  402be4:	84 01       	movi55 $r0,#0x1
  402be6:	84 20       	movi55 $r1,#0x0
  402be8:	49 ff ff 54 	jal 402a90 <SATA_SendGoodBadStatus>
  402bec:	84 01       	movi55 $r0,#0x1
  402bee:	84 20       	movi55 $r1,#0x0
  402bf0:	49 ff fc 80 	jal 4024f0 <SATA_ChangeState>
  402bf4:	84 04       	movi55 $r0,#0x4
  402bf6:	49 00 08 d2 	jal 403d9a <NVIC_EnableIRQ>
  402bfa:	fc 80       	pop25 $r6,#0    ! {$r6, $fp, $gp, $lp}
  402bfc:	dd 9e       	ret5 $lp

00402bfe <SATA_DSR_IntEventHandler>:
  402bfe:	b4 40       	lwi450 $r2,[$r0]
  402c00:	54 11 00 01 	andi $r1,$r2,#0x1
  402c04:	c1 08       	beqz38 $r1,402c14 <SATA_DSR_IntEventHandler+0x16>
  402c06:	fc 00       	push25 $r6,#0    ! {$r6, $fp, $gp, $lp}
  402c08:	84 3e       	movi55 $r1,#-2
  402c0a:	fe 56       	and33 $r1,$r2
  402c0c:	b6 20       	swi450 $r1,[$r0]
  402c0e:	49 ff fd 9e 	jal 40274a <SATA_SReset_Handler>
  402c12:	fc 80       	pop25 $r6,#0    ! {$r6, $fp, $gp, $lp}
  402c14:	dd 9e       	ret5 $lp

00402c16 <SATA_DEDD_StateMachine>:
  402c16:	3c 0c 13 c2 	lwi.gp $r0,[+#0x4f08]
  402c1a:	e6 03       	slti45 $r0,#0x3
  402c1c:	e8 18       	beqzs8 402c4c <SATA_DEDD_StateMachine+0x36>
  402c1e:	fc 00       	push25 $r6,#0    ! {$r6, $fp, $gp, $lp}
  402c20:	84 04       	movi55 $r0,#0x4
  402c22:	49 00 08 c7 	jal 403db0 <NVIC_DisableIRQ>
  402c26:	84 00       	movi55 $r0,#0x0
  402c28:	49 ff f3 79 	jal 40131a <DSATA_ExceptionHandler>
  402c2c:	49 ff ff 56 	jal 402ad8 <SATA_ClearCmd>
  402c30:	49 ff f2 28 	jal 401080 <DSATA_StartupEnable>
  402c34:	84 01       	movi55 $r0,#0x1
  402c36:	80 20       	mov55 $r1,$r0
  402c38:	49 ff ff 2c 	jal 402a90 <SATA_SendGoodBadStatus>
  402c3c:	84 01       	movi55 $r0,#0x1
  402c3e:	84 20       	movi55 $r1,#0x0
  402c40:	49 ff fc 58 	jal 4024f0 <SATA_ChangeState>
  402c44:	84 04       	movi55 $r0,#0x4
  402c46:	49 00 08 aa 	jal 403d9a <NVIC_EnableIRQ>
  402c4a:	fc 80       	pop25 $r6,#0    ! {$r6, $fp, $gp, $lp}
  402c4c:	dd 9e       	ret5 $lp

00402c4e <SATA_DEDD_IntEventHandler>:
  402c4e:	dd 9e       	ret5 $lp

00402c50 <SATA_DND_DataTransferReq>:
  402c50:	5a 08 02 13 	bnec $r0,#0x2,402c76 <SATA_DND_DataTransferReq+0x26>
  402c54:	fc 00       	push25 $r6,#0    ! {$r6, $fp, $gp, $lp}
  402c56:	a6 48       	lbi333 $r1,[$r1+#0x0]
  402c58:	84 41       	movi55 $r2,#0x1
  402c5a:	e6 2a       	slti45 $r1,#0xa
  402c5c:	e8 07       	beqzs8 402c6a <SATA_DND_DataTransferReq+0x1a>
  402c5e:	40 11 04 0c 	sll $r1,$r2,$r1
  402c62:	44 00 00 51 	movi $r0,#0x51
  402c66:	96 48       	zeb33 $r1,$r1
  402c68:	d5 04       	j8 402c70 <SATA_DND_DataTransferReq+0x20>
  402c6a:	44 00 00 50 	movi $r0,#0x50
  402c6e:	84 20       	movi55 $r1,#0x0
  402c70:	49 ff fc 9e 	jal 4025ac <SATA_SendStatus>
  402c74:	fc 80       	pop25 $r6,#0    ! {$r6, $fp, $gp, $lp}
  402c76:	dd 9e       	ret5 $lp

00402c78 <SATA_DND_StateMachine>:
  402c78:	dd 9e       	ret5 $lp

00402c7a <SATA_DND_IntEventHandler>:
  402c7a:	dd 9e       	ret5 $lp

00402c7c <dpioi2_transmit_data>:
  402c7c:	fc 00       	push25 $r6,#0    ! {$r6, $fp, $gp, $lp}
  402c7e:	46 20 05 e1 	sethi $r2,#0x5e1
  402c82:	80 c0       	mov55 $r6,$r0
  402c84:	83 82       	mov55 $fp,$r2
  402c86:	b9 76       	lwi37 $r1,[$fp+#0x1d8]
  402c88:	58 10 80 08 	ori $r1,$r1,#0x8
  402c8c:	b9 f6       	swi37 $r1,[$fp+#0x1d8]
  402c8e:	84 21       	movi55 $r1,#0x1
  402c90:	49 ff f2 c5 	jal 40121a <DSATA_BuildPrd>
  402c94:	00 13 00 0c 	lbi $r1,[$r6+#0xc]
  402c98:	84 01       	movi55 $r0,#0x1
  402c9a:	49 ff f2 72 	jal 40117e <DSATA_BulidPioSetUpFis>
  402c9e:	84 00       	movi55 $r0,#0x0
  402ca0:	49 ff f6 d1 	jal 401a42 <DSATA_TransferStart>
  402ca4:	84 02       	movi55 $r0,#0x2
  402ca6:	3c 0e 13 c2 	swi.gp $r0,[+#0x4f08]
  402caa:	fc 80       	pop25 $r6,#0    ! {$r6, $fp, $gp, $lp}

00402cac <SATA_DPIOI_DataTransferReq>:
  402cac:	fc 00       	push25 $r6,#0    ! {$r6, $fp, $gp, $lp}
  402cae:	80 c1       	mov55 $r6,$r1
  402cb0:	3c 2e 13 de 	swi.gp $r2,[+#0x4f78]
  402cb4:	5a 08 02 10 	bnec $r0,#0x2,402cd4 <SATA_DPIOI_DataTransferReq+0x28>
  402cb8:	a6 70       	lbi333 $r1,[$r6+#0x0]
  402cba:	e6 2a       	slti45 $r1,#0xa
  402cbc:	e8 1f       	beqzs8 402cfa <SATA_DPIOI_DataTransferReq+0x4e>
  402cbe:	84 41       	movi55 $r2,#0x1
  402cc0:	40 11 04 0c 	sll $r1,$r2,$r1
  402cc4:	58 10 80 04 	ori $r1,$r1,#0x4
  402cc8:	44 00 00 51 	movi $r0,#0x51
  402ccc:	96 48       	zeb33 $r1,$r1
  402cce:	49 ff fc 6f 	jal 4025ac <SATA_SendStatus>
  402cd2:	fc 80       	pop25 $r6,#0    ! {$r6, $fp, $gp, $lp}
  402cd4:	c8 0e       	bnez38 $r0,402cf0 <SATA_DPIOI_DataTransferReq+0x44>
  402cd6:	80 06       	mov55 $r0,$r6
  402cd8:	84 21       	movi55 $r1,#0x1
  402cda:	49 ff f2 a0 	jal 40121a <DSATA_BuildPrd>
  402cde:	84 01       	movi55 $r0,#0x1
  402ce0:	00 13 00 0c 	lbi $r1,[$r6+#0xc]
  402ce4:	49 ff f2 4d 	jal 40117e <DSATA_BulidPioSetUpFis>
  402ce8:	84 02       	movi55 $r0,#0x2
  402cea:	3c 0e 13 c2 	swi.gp $r0,[+#0x4f08]
  402cee:	fc 80       	pop25 $r6,#0    ! {$r6, $fp, $gp, $lp}
  402cf0:	5a 08 01 05 	bnec $r0,#0x1,402cfa <SATA_DPIOI_DataTransferReq+0x4e>
  402cf4:	80 06       	mov55 $r0,$r6
  402cf6:	49 ff ff c3 	jal 402c7c <dpioi2_transmit_data>
  402cfa:	fc 80       	pop25 $r6,#0    ! {$r6, $fp, $gp, $lp}

00402cfc <SATA_DPIOI_StateMachine>:
  402cfc:	dd 9e       	ret5 $lp

00402cfe <SATA_DPIOI_IntEventHandler>:
  402cfe:	b4 40       	lwi450 $r2,[$r0]
  402d00:	54 11 00 08 	andi $r1,$r2,#0x8
  402d04:	c1 1e       	beqz38 $r1,402d40 <SATA_DPIOI_IntEventHandler+0x42>
  402d06:	fc 00       	push25 $r6,#0    ! {$r6, $fp, $gp, $lp}
  402d08:	84 37       	movi55 $r1,#-9
  402d0a:	fe 56       	and33 $r1,$r2
  402d0c:	b6 20       	swi450 $r1,[$r0]
  402d0e:	84 00       	movi55 $r0,#0x0
  402d10:	49 ff fc 1d 	jal 40254a <SATA_PrdDoneEventHandler>
  402d14:	84 0d       	movi55 $r0,#0xd
  402d16:	84 21       	movi55 $r1,#0x1
  402d18:	49 ff f6 2e 	jal 401974 <DSATA_Update_rPCMDR>
  402d1c:	49 ff f6 a5 	jal 401a66 <DSATA_GetPrdRemainItems>
  402d20:	80 c0       	mov55 $r6,$r0
  402d22:	c8 0e       	bnez38 $r0,402d3e <SATA_DPIOI_IntEventHandler+0x40>
  402d24:	84 01       	movi55 $r0,#0x1
  402d26:	49 ff fc 29 	jal 402578 <SATA_UpdateRdIdx>
  402d2a:	84 01       	movi55 $r0,#0x1
  402d2c:	80 26       	mov55 $r1,$r6
  402d2e:	49 ff fb e1 	jal 4024f0 <SATA_ChangeState>
  402d32:	3c 6e 13 de 	swi.gp $r6,[+#0x4f78]
  402d36:	3e 0f cb ac 	addi.gp $r0,#-13396
  402d3a:	49 00 07 74 	jal 403c22 <PRINT_TXT>
  402d3e:	fc 80       	pop25 $r6,#0    ! {$r6, $fp, $gp, $lp}
  402d40:	dd 9e       	ret5 $lp

00402d42 <dpioo2_receive_data>:
  402d42:	fc 00       	push25 $r6,#0    ! {$r6, $fp, $gp, $lp}
  402d44:	46 20 05 e1 	sethi $r2,#0x5e1
  402d48:	80 c0       	mov55 $r6,$r0
  402d4a:	83 82       	mov55 $fp,$r2
  402d4c:	b9 76       	lwi37 $r1,[$fp+#0x1d8]
  402d4e:	58 10 80 08 	ori $r1,$r1,#0x8
  402d52:	b9 f6       	swi37 $r1,[$fp+#0x1d8]
  402d54:	84 21       	movi55 $r1,#0x1
  402d56:	49 ff f2 62 	jal 40121a <DSATA_BuildPrd>
  402d5a:	00 13 00 0c 	lbi $r1,[$r6+#0xc]
  402d5e:	84 00       	movi55 $r0,#0x0
  402d60:	49 ff f2 0f 	jal 40117e <DSATA_BulidPioSetUpFis>
  402d64:	84 00       	movi55 $r0,#0x0
  402d66:	49 ff f6 6e 	jal 401a42 <DSATA_TransferStart>
  402d6a:	84 02       	movi55 $r0,#0x2
  402d6c:	3c 0e 13 c2 	swi.gp $r0,[+#0x4f08]
  402d70:	fc 80       	pop25 $r6,#0    ! {$r6, $fp, $gp, $lp}

00402d72 <SATA_DPIOO_DataTransferReq>:
  402d72:	fc 20       	push25 $r8,#0    ! {$r6~$r8, $fp, $gp, $lp}
  402d74:	80 e0       	mov55 $r7,$r0
  402d76:	80 c1       	mov55 $r6,$r1
  402d78:	3c 2e 13 de 	swi.gp $r2,[+#0x4f78]
  402d7c:	5a 78 02 14 	bnec $r7,#0x2,402da4 <SATA_DPIOO_DataTransferReq+0x32>
  402d80:	a6 48       	lbi333 $r1,[$r1+#0x0]
  402d82:	84 41       	movi55 $r2,#0x1
  402d84:	e6 2a       	slti45 $r1,#0xa
  402d86:	e8 09       	beqzs8 402d98 <SATA_DPIOO_DataTransferReq+0x26>
  402d88:	40 11 04 0c 	sll $r1,$r2,$r1
  402d8c:	58 10 80 04 	ori $r1,$r1,#0x4
  402d90:	44 00 00 51 	movi $r0,#0x51
  402d94:	96 48       	zeb33 $r1,$r1
  402d96:	d5 04       	j8 402d9e <SATA_DPIOO_DataTransferReq+0x2c>
  402d98:	44 00 00 50 	movi $r0,#0x50
  402d9c:	84 20       	movi55 $r1,#0x0
  402d9e:	49 ff fc 07 	jal 4025ac <SATA_SendStatus>
  402da2:	fc a0       	pop25 $r8,#0    ! {$r6~$r8, $fp, $gp, $lp}
  402da4:	cf 17       	bnez38 $r7,402dd2 <SATA_DPIOO_DataTransferReq+0x60>
  402da6:	49 ff f6 6c 	jal 401a7e <DSATA_EnableAutoSend>
  402daa:	46 10 05 e1 	sethi $r1,#0x5e1
  402dae:	83 81       	mov55 $fp,$r1
  402db0:	b8 45       	lwi37 $r0,[$fp+#0x114]
  402db2:	58 00 00 02 	ori $r0,$r0,#0x2
  402db6:	b8 c5       	swi37 $r0,[$fp+#0x114]
  402db8:	80 06       	mov55 $r0,$r6
  402dba:	84 21       	movi55 $r1,#0x1
  402dbc:	49 ff f2 2f 	jal 40121a <DSATA_BuildPrd>
  402dc0:	80 07       	mov55 $r0,$r7
  402dc2:	00 13 00 0c 	lbi $r1,[$r6+#0xc]
  402dc6:	49 ff f1 dc 	jal 40117e <DSATA_BulidPioSetUpFis>
  402dca:	84 02       	movi55 $r0,#0x2
  402dcc:	3c 0e 13 c2 	swi.gp $r0,[+#0x4f08]
  402dd0:	fc a0       	pop25 $r8,#0    ! {$r6~$r8, $fp, $gp, $lp}
  402dd2:	5a 78 01 07 	bnec $r7,#0x1,402de0 <SATA_DPIOO_DataTransferReq+0x6e>
  402dd6:	49 ff f6 5f 	jal 401a94 <DSATA_DisableAutoSend>
  402dda:	80 06       	mov55 $r0,$r6
  402ddc:	49 ff ff b3 	jal 402d42 <dpioo2_receive_data>
  402de0:	fc a0       	pop25 $r8,#0    ! {$r6~$r8, $fp, $gp, $lp}

00402de2 <SATA_DPIOO_StateMachine>:
  402de2:	dd 9e       	ret5 $lp

00402de4 <SATA_DPIOO_IntEventHandler>:
  402de4:	fc 00       	push25 $r6,#0    ! {$r6, $fp, $gp, $lp}
  402de6:	b4 20       	lwi450 $r1,[$r0]
  402de8:	80 c0       	mov55 $r6,$r0
  402dea:	54 00 80 08 	andi $r0,$r1,#0x8
  402dee:	c0 18       	beqz38 $r0,402e1e <SATA_DPIOO_IntEventHandler+0x3a>
  402df0:	84 17       	movi55 $r0,#-9
  402df2:	fe 0e       	and33 $r0,$r1
  402df4:	b6 06       	swi450 $r0,[$r6]
  402df6:	49 ff f6 38 	jal 401a66 <DSATA_GetPrdRemainItems>
  402dfa:	80 20       	mov55 $r1,$r0
  402dfc:	c8 06       	bnez38 $r0,402e08 <SATA_DPIOO_IntEventHandler+0x24>
  402dfe:	44 00 00 50 	movi $r0,#0x50
  402e02:	84 41       	movi55 $r2,#0x1
  402e04:	49 ff f1 83 	jal 40110a <DSATA_BuildD2HFis>
  402e08:	84 00       	movi55 $r0,#0x0
  402e0a:	49 ff fb a0 	jal 40254a <SATA_PrdDoneEventHandler>
  402e0e:	84 0d       	movi55 $r0,#0xd
  402e10:	84 21       	movi55 $r1,#0x1
  402e12:	49 ff f5 b1 	jal 401974 <DSATA_Update_rPCMDR>
  402e16:	3e 0f cb b4 	addi.gp $r0,#-13388
  402e1a:	49 00 07 04 	jal 403c22 <PRINT_TXT>
  402e1e:	b4 26       	lwi450 $r1,[$r6]
  402e20:	54 00 80 02 	andi $r0,$r1,#0x2
  402e24:	c0 14       	beqz38 $r0,402e4c <SATA_DPIOO_IntEventHandler+0x68>
  402e26:	84 1d       	movi55 $r0,#-3
  402e28:	fe 0e       	and33 $r0,$r1
  402e2a:	b6 06       	swi450 $r0,[$r6]
  402e2c:	84 01       	movi55 $r0,#0x1
  402e2e:	49 ff fb a5 	jal 402578 <SATA_UpdateRdIdx>
  402e32:	84 01       	movi55 $r0,#0x1
  402e34:	84 20       	movi55 $r1,#0x0
  402e36:	49 ff fb 5d 	jal 4024f0 <SATA_ChangeState>
  402e3a:	49 ff f6 2d 	jal 401a94 <DSATA_DisableAutoSend>
  402e3e:	84 00       	movi55 $r0,#0x0
  402e40:	3c 0e 13 de 	swi.gp $r0,[+#0x4f78]
  402e44:	3e 0f cb bc 	addi.gp $r0,#-13380
  402e48:	49 00 06 ed 	jal 403c22 <PRINT_TXT>
  402e4c:	fc 80       	pop25 $r6,#0    ! {$r6, $fp, $gp, $lp}

00402e4e <Scsi_RegisteInterfaceInfo>:
  402e4e:	3e 08 53 98 	addi.gp $r0,#0x5398
  402e52:	44 10 55 00 	movi $r1,#0x5500
  402e56:	b6 20       	swi450 $r1,[$r0]
  402e58:	84 20       	movi55 $r1,#0x0
  402e5a:	10 10 00 08 	sbi $r1,[$r0+#0x8]
  402e5e:	10 10 00 09 	sbi $r1,[$r0+#0x9]
  402e62:	10 10 00 0a 	sbi $r1,[$r0+#0xa]
  402e66:	dd 9e       	ret5 $lp

00402e68 <Scsi_CmdHeadVerify>:
  402e68:	fc 00       	push25 $r6,#0    ! {$r6, $fp, $gp, $lp}
  402e6a:	3e 18 3a e8 	addi.gp $r1,#0x3ae8
  402e6e:	3c 6c 13 ca 	lwi.gp $r6,[+#0x4f28]
  402e72:	84 00       	movi55 $r0,#0x0
  402e74:	80 80       	mov55 $r4,$r0
  402e76:	84 41       	movi55 $r2,#0x1
  402e78:	44 30 04 00 	movi $r3,#0x400
  402e7c:	49 ff ee 43 	jal 400b02 <DMAC_DMA1Start>
  402e80:	3c 0c 14 f5 	lwi.gp $r0,[+#0x53d4]
  402e84:	8e 01       	subi45 $r0,#0x1
  402e86:	3c 0e 14 f5 	swi.gp $r0,[+#0x53d4]
  402e8a:	46 10 05 e2 	sethi $r1,#0x5e2
  402e8e:	04 00 80 41 	lwi $r0,[$r1+#0x104]
  402e92:	96 06       	bmski33 $r0,#0x0
  402e94:	c8 14       	bnez38 $r0,402ebc <Scsi_CmdHeadVerify+0x54>
  402e96:	3c 0c 13 ca 	lwi.gp $r0,[+#0x4f28]
  402e9a:	8a 06       	sub45 $r0,$r6
  402e9c:	5c f0 01 f4 	slti $r15,$r0,#0x1f4
  402ea0:	e9 f7       	bnezs8 402e8e <Scsi_CmdHeadVerify+0x26>
  402ea2:	44 00 55 00 	movi $r0,#0x5500
  402ea6:	3c 0e 14 e6 	swi.gp $r0,[+#0x5398]
  402eaa:	84 00       	movi55 $r0,#0x0
  402eac:	3e 00 53 a0 	sbi.gp $r0,[+#0x53a0]
  402eb0:	3e 00 53 a1 	sbi.gp $r0,[+#0x53a1]
  402eb4:	3e 00 53 a2 	sbi.gp $r0,[+#0x53a2]
  402eb8:	84 00       	movi55 $r0,#0x0
  402eba:	fc 80       	pop25 $r6,#0    ! {$r6, $fp, $gp, $lp}
  402ebc:	3e 08 3a e8 	addi.gp $r0,#0x3ae8
  402ec0:	3e 1f cb e4 	addi.gp $r1,#-13340
  402ec4:	84 48       	movi55 $r2,#0x8
  402ec6:	49 00 08 d2 	jal 40406a <U32MemCmp>
  402eca:	c8 ec       	bnez38 $r0,402ea2 <Scsi_CmdHeadVerify+0x3a>
  402ecc:	44 10 00 7f 	movi $r1,#0x7f
  402ed0:	3c 6c 0f 39 	lwi.gp $r6,[+#0x3ce4]
  402ed4:	3e 08 3a e8 	addi.gp $r0,#0x3ae8
  402ed8:	49 00 08 e2 	jal 40409c <Check32Sum>
  402edc:	4c 60 7f e3 	bne $r6,$r0,402ea2 <Scsi_CmdHeadVerify+0x3a>
  402ee0:	84 01       	movi55 $r0,#0x1
  402ee2:	fc 80       	pop25 $r6,#0    ! {$r6, $fp, $gp, $lp}

00402ee4 <Scsi_DataHeadCheckSum>:
  402ee4:	fc 00       	push25 $r6,#0    ! {$r6, $fp, $gp, $lp}
  402ee6:	3e 68 3e cc 	addi.gp $r6,#0x3ecc
  402eea:	80 06       	mov55 $r0,$r6
  402eec:	84 20       	movi55 $r1,#0x0
  402eee:	50 63 7e 1c 	addi $r6,$r6,#-484
  402ef2:	fa 48       	movpi45 $r2,#0x18
  402ef4:	49 00 08 ab 	jal 40404a <U08MemSet>
  402ef8:	80 06       	mov55 $r0,$r6
  402efa:	3e 1f cb c4 	addi.gp $r1,#-13372
  402efe:	84 48       	movi55 $r2,#0x8
  402f00:	49 00 08 95 	jal 40402a <U32MemCopy>
  402f04:	80 06       	mov55 $r0,$r6
  402f06:	44 10 00 7f 	movi $r1,#0x7f
  402f0a:	49 00 08 c9 	jal 40409c <Check32Sum>
  402f0e:	14 03 00 7f 	swi $r0,[$r6+#0x1fc]
  402f12:	fc 80       	pop25 $r6,#0    ! {$r6, $fp, $gp, $lp}

00402f14 <Scsi_ScsiModeVerify>:
  402f14:	fc 40       	push25 $r10,#0    ! {$r6~$r10, $fp, $gp, $lp}
  402f16:	3f c8 53 98 	addi.gp $fp,#0x5398
  402f1a:	80 c0       	mov55 $r6,$r0
  402f1c:	81 21       	mov55 $r9,$r1
  402f1e:	2e 30 53 a0 	lbi.gp $r3,[+#0x53a0]
  402f22:	80 e2       	mov55 $r7,$r2
  402f24:	5a 38 01 30 	bnec $r3,#0x1,402f84 <Scsi_ScsiModeVerify+0x70>
  402f28:	44 00 55 aa 	movi $r0,#0x55aa
  402f2c:	4c 60 40 2c 	bne $r6,$r0,402f84 <Scsi_ScsiModeVerify+0x70>
  402f30:	5a 28 01 20 	bnec $r2,#0x1,402f70 <Scsi_ScsiModeVerify+0x5c>
  402f34:	46 00 04 0d 	sethi $r0,#0x40d
  402f38:	2e 30 53 a1 	lbi.gp $r3,[+#0x53a1]
  402f3c:	5a 18 01 21 	bnec $r1,#0x1,402f7e <Scsi_ScsiModeVerify+0x6a>
  402f40:	cb 1f       	bnez38 $r3,402f7e <Scsi_ScsiModeVerify+0x6a>
  402f42:	2e 00 53 a4 	lbi.gp $r0,[+#0x53a4]
  402f46:	c8 06       	bnez38 $r0,402f52 <Scsi_ScsiModeVerify+0x3e>
  402f48:	3e 10 53 a4 	sbi.gp $r1,[+#0x53a4]
  402f4c:	80 01       	mov55 $r0,$r1
  402f4e:	49 ff ef 63 	jal 400e14 <DSATA_ExbuffAndCheckPoit_Ctrl>
  402f52:	49 ff ff c9 	jal 402ee4 <Scsi_DataHeadCheckSum>
  402f56:	84 01       	movi55 $r0,#0x1
  402f58:	44 30 04 00 	movi $r3,#0x400
  402f5c:	3e 18 3c e8 	addi.gp $r1,#0x3ce8
  402f60:	80 40       	mov55 $r2,$r0
  402f62:	84 80       	movi55 $r4,#0x0
  402f64:	49 ff ed cf 	jal 400b02 <DMAC_DMA1Start>
  402f68:	49 ff ed a2 	jal 400aac <DMAC_DMA1WaitDone>
  402f6c:	84 62       	movi55 $r3,#0x2
  402f6e:	d5 4b       	j8 403004 <Scsi_ScsiModeVerify+0xf0>
  402f70:	ca 4b       	bnez38 $r2,403006 <Scsi_ScsiModeVerify+0xf2>
  402f72:	2e 00 53 a1 	lbi.gp $r0,[+#0x53a1]
  402f76:	c8 48       	bnez38 $r0,403006 <Scsi_ScsiModeVerify+0xf2>
  402f78:	3e 30 53 a1 	sbi.gp $r3,[+#0x53a1]
  402f7c:	d5 44       	j8 403004 <Scsi_ScsiModeVerify+0xf0>
  402f7e:	5a 38 01 44 	bnec $r3,#0x1,403006 <Scsi_ScsiModeVerify+0xf2>
  402f82:	d5 41       	j8 403004 <Scsi_ScsiModeVerify+0xf0>
  402f84:	2e 00 53 a4 	lbi.gp $r0,[+#0x53a4]
  402f88:	5a 08 01 08 	bnec $r0,#0x1,402f98 <Scsi_ScsiModeVerify+0x84>
  402f8c:	cb 06       	bnez38 $r3,402f98 <Scsi_ScsiModeVerify+0x84>
  402f8e:	3e 30 53 a4 	sbi.gp $r3,[+#0x53a4]
  402f92:	80 03       	mov55 $r0,$r3
  402f94:	49 ff ef 40 	jal 400e14 <DSATA_ExbuffAndCheckPoit_Ctrl>
  402f98:	2e 00 53 a0 	lbi.gp $r0,[+#0x53a0]
  402f9c:	5a 00 01 29 	beqc $r0,#0x1,402fee <Scsi_ScsiModeVerify+0xda>
  402fa0:	b8 00       	lwi37 $r0,[$fp+#0x0]
  402fa2:	4c 60 40 26 	bne $r6,$r0,402fee <Scsi_ScsiModeVerify+0xda>
  402fa6:	5a 98 01 24 	bnec $r9,#0x1,402fee <Scsi_ScsiModeVerify+0xda>
  402faa:	5a 78 01 22 	bnec $r7,#0x1,402fee <Scsi_ScsiModeVerify+0xda>
  402fae:	5a 60 aa 19 	beqc $r6,#0xaa,402fe0 <Scsi_ScsiModeVerify+0xcc>
  402fb2:	5c f3 00 ab 	slti $r15,$r6,#0xab
  402fb6:	e8 06       	beqzs8 402fc2 <Scsi_ScsiModeVerify+0xae>
  402fb8:	5a 68 55 25 	bnec $r6,#0x55,403002 <Scsi_ScsiModeVerify+0xee>
  402fbc:	44 00 aa 00 	movi $r0,#0xaa00
  402fc0:	d5 0e       	j8 402fdc <Scsi_ScsiModeVerify+0xc8>
  402fc2:	44 00 55 00 	movi $r0,#0x5500
  402fc6:	4c 60 00 09 	beq $r6,$r0,402fd8 <Scsi_ScsiModeVerify+0xc4>
  402fca:	44 00 aa 00 	movi $r0,#0xaa00
  402fce:	4c 60 40 1a 	bne $r6,$r0,403002 <Scsi_ScsiModeVerify+0xee>
  402fd2:	44 00 00 aa 	movi $r0,#0xaa
  402fd6:	d5 03       	j8 402fdc <Scsi_ScsiModeVerify+0xc8>
  402fd8:	44 00 00 55 	movi $r0,#0x55
  402fdc:	b8 80       	swi37 $r0,[$fp+#0x0]
  402fde:	d5 12       	j8 403002 <Scsi_ScsiModeVerify+0xee>
  402fe0:	44 00 55 aa 	movi $r0,#0x55aa
  402fe4:	b8 80       	swi37 $r0,[$fp+#0x0]
  402fe6:	3e 70 53 a0 	sbi.gp $r7,[+#0x53a0]
  402fea:	84 00       	movi55 $r0,#0x0
  402fec:	d5 07       	j8 402ffa <Scsi_ScsiModeVerify+0xe6>
  402fee:	44 00 55 00 	movi $r0,#0x5500
  402ff2:	b8 80       	swi37 $r0,[$fp+#0x0]
  402ff4:	84 00       	movi55 $r0,#0x0
  402ff6:	3e 00 53 a0 	sbi.gp $r0,[+#0x53a0]
  402ffa:	3e 00 53 a1 	sbi.gp $r0,[+#0x53a1]
  402ffe:	3e 00 53 a2 	sbi.gp $r0,[+#0x53a2]
  403002:	84 60       	movi55 $r3,#0x0
  403004:	80 03       	mov55 $r0,$r3
  403006:	fc c0       	pop25 $r10,#0    ! {$r6~$r10, $fp, $gp, $lp}

00403008 <Scsi_BasisCmdHandle>:
  403008:	fc 00       	push25 $r6,#0    ! {$r6, $fp, $gp, $lp}
  40300a:	3e 08 3d 10 	addi.gp $r0,#0x3d10
  40300e:	3e 1f cc 04 	addi.gp $r1,#-13308
  403012:	fa 58       	movpi45 $r2,#0x28
  403014:	49 00 08 22 	jal 404058 <U08MemCopy>
  403018:	3e 08 3d 38 	addi.gp $r0,#0x3d38
  40301c:	3c 1c 14 ea 	lwi.gp $r1,[+#0x53a8]
  403020:	fa 58       	movpi45 $r2,#0x28
  403022:	49 00 08 1b 	jal 404058 <U08MemCopy>
  403026:	3c 0c 14 ed 	lwi.gp $r0,[+#0x53b4]
  40302a:	c0 21       	beqz38 $r0,40306c <Scsi_BasisCmdHandle+0x64>
  40302c:	49 00 04 2b 	jal 403882 <__getlock>
  403030:	84 0b       	movi55 $r0,#0xb
  403032:	3e 00 57 64 	sbi.gp $r0,[+#0x5764]
  403036:	fa 0f       	movpi45 $r0,#0x1f
  403038:	3e 68 3d 60 	addi.gp $r6,#0x3d60
  40303c:	3e 00 57 65 	sbi.gp $r0,[+#0x5765]
  403040:	44 20 00 80 	movi $r2,#0x80
  403044:	80 06       	mov55 $r0,$r6
  403046:	44 10 00 ff 	movi $r1,#0xff
  40304a:	49 00 08 00 	jal 40404a <U08MemSet>
  40304e:	3c 6e 15 db 	swi.gp $r6,[+#0x576c]
  403052:	3c 0c 14 ed 	lwi.gp $r0,[+#0x53b4]
  403056:	3c 0e 15 da 	swi.gp $r0,[+#0x5768]
  40305a:	46 00 05 e6 	sethi $r0,#0x5e6
  40305e:	84 21       	movi55 $r1,#0x1
  403060:	14 10 00 11 	swi $r1,[$r0+#0x44]
  403064:	49 00 04 1d 	jal 40389e <__wait4unlocked>
  403068:	49 00 04 4d 	jal 403902 <__unlock>
  40306c:	46 00 05 e0 	sethi $r0,#0x5e0
  403070:	b4 00       	lwi450 $r0,[$r0]
  403072:	3c 0e 0f 78 	swi.gp $r0,[+#0x3de0]
  403076:	44 10 00 7f 	movi $r1,#0x7f
  40307a:	3e 08 3c e8 	addi.gp $r0,#0x3ce8
  40307e:	49 00 08 0f 	jal 40409c <Check32Sum>
  403082:	44 30 04 00 	movi $r3,#0x400
  403086:	3c 0e 0f b9 	swi.gp $r0,[+#0x3ee4]
  40308a:	84 01       	movi55 $r0,#0x1
  40308c:	3e 18 3c e8 	addi.gp $r1,#0x3ce8
  403090:	80 40       	mov55 $r2,$r0
  403092:	84 80       	movi55 $r4,#0x0
  403094:	49 ff ed 37 	jal 400b02 <DMAC_DMA1Start>
  403098:	49 ff ed 0a 	jal 400aac <DMAC_DMA1WaitDone>
  40309c:	fc 80       	pop25 $r6,#0    ! {$r6, $fp, $gp, $lp}

0040309e <Scsi_RdWrRamHandle>:
  40309e:	fc 40       	push25 $r10,#0    ! {$r6~$r10, $fp, $gp, $lp}
  4030a0:	2e 00 3b 09 	lbi.gp $r0,[+#0x3b09]
  4030a4:	5a 08 01 40 	bnec $r0,#0x1,403124 <Scsi_RdWrRamHandle+0x86>
  4030a8:	3e 18 3c e8 	addi.gp $r1,#0x3ce8
  4030ac:	80 40       	mov55 $r2,$r0
  4030ae:	44 30 04 00 	movi $r3,#0x400
  4030b2:	84 80       	movi55 $r4,#0x0
  4030b4:	49 ff ed 27 	jal 400b02 <DMAC_DMA1Start>
  4030b8:	84 c0       	movi55 $r6,#0x0
  4030ba:	49 ff ec f9 	jal 400aac <DMAC_DMA1WaitDone>
  4030be:	fb 29       	movpi45 $r9,#0x19
  4030c0:	46 a0 05 e6 	sethi $r10,#0x5e6
  4030c4:	3c 00 1d 8a 	lhi.gp $r0,[+#0x3b14]
  4030c8:	e2 c0       	slt45 $r6,$r0
  4030ca:	e8 2c       	beqzs8 403122 <Scsi_RdWrRamHandle+0x84>
  4030cc:	49 00 03 db 	jal 403882 <__getlock>
  4030d0:	84 0b       	movi55 $r0,#0xb
  4030d2:	3e 00 57 64 	sbi.gp $r0,[+#0x5764]
  4030d6:	40 13 24 08 	slli $r1,$r6,#0x9
  4030da:	3e 90 57 65 	sbi.gp $r9,[+#0x5765]
  4030de:	84 e1       	movi55 $r7,#0x1
  4030e0:	3c 0c 0e c4 	lwi.gp $r0,[+#0x3b10]
  4030e4:	88 c7       	add45 $r6,$r7
  4030e6:	88 01       	add45 $r0,$r1
  4030e8:	97 b1       	zeh33 $r6,$r6
  4030ea:	3c 0e 15 da 	swi.gp $r0,[+#0x5768]
  4030ee:	44 00 02 00 	movi $r0,#0x200
  4030f2:	3c 0e 15 db 	swi.gp $r0,[+#0x576c]
  4030f6:	3c 0c 13 e0 	lwi.gp $r0,[+#0x4f80]
  4030fa:	3c 0e 15 dc 	swi.gp $r0,[+#0x5770]
  4030fe:	14 75 00 11 	swi $r7,[$r10+#0x44]
  403102:	49 00 03 ce 	jal 40389e <__wait4unlocked>
  403106:	49 00 03 fe 	jal 403902 <__unlock>
  40310a:	80 07       	mov55 $r0,$r7
  40310c:	3c 1c 13 e0 	lwi.gp $r1,[+#0x4f80]
  403110:	80 47       	mov55 $r2,$r7
  403112:	44 30 04 00 	movi $r3,#0x400
  403116:	84 80       	movi55 $r4,#0x0
  403118:	49 ff ec f5 	jal 400b02 <DMAC_DMA1Start>
  40311c:	49 ff ec c8 	jal 400aac <DMAC_DMA1WaitDone>
  403120:	d5 d2       	j8 4030c4 <Scsi_RdWrRamHandle+0x26>
  403122:	fc c0       	pop25 $r10,#0    ! {$r6~$r10, $fp, $gp, $lp}
  403124:	c8 0c       	bnez38 $r0,40313c <Scsi_RdWrRamHandle+0x9e>
  403126:	3c 1c 0e c4 	lwi.gp $r1,[+#0x3b10]
  40312a:	3c 20 1d 8a 	lhi.gp $r2,[+#0x3b14]
  40312e:	44 30 04 00 	movi $r3,#0x400
  403132:	80 80       	mov55 $r4,$r0
  403134:	49 ff ec e7 	jal 400b02 <DMAC_DMA1Start>
  403138:	49 ff ec ba 	jal 400aac <DMAC_DMA1WaitDone>
  40313c:	fc c0       	pop25 $r10,#0    ! {$r6~$r10, $fp, $gp, $lp}

0040313e <Scsi_CoreSwitchHandle>:
  40313e:	fc 20       	push25 $r8,#0    ! {$r6~$r8, $fp, $gp, $lp}
  403140:	3c 6c 13 e0 	lwi.gp $r6,[+#0x4f80]
  403144:	84 01       	movi55 $r0,#0x1
  403146:	49 00 06 1e 	jal 403d82 <__set_PRIMASK>
  40314a:	84 04       	movi55 $r0,#0x4
  40314c:	49 00 06 32 	jal 403db0 <NVIC_DisableIRQ>
  403150:	fa 07       	movpi45 $r0,#0x17
  403152:	49 00 06 2f 	jal 403db0 <NVIC_DisableIRQ>
  403156:	fa 08       	movpi45 $r0,#0x18
  403158:	49 00 06 2c 	jal 403db0 <NVIC_DisableIRQ>
  40315c:	84 00       	movi55 $r0,#0x0
  40315e:	3c 1c 13 e0 	lwi.gp $r1,[+#0x4f80]
  403162:	80 80       	mov55 $r4,$r0
  403164:	3c 20 1d 8a 	lhi.gp $r2,[+#0x3b14]
  403168:	44 30 04 00 	movi $r3,#0x400
  40316c:	49 ff ec cb 	jal 400b02 <DMAC_DMA1Start>
  403170:	49 ff ec 9e 	jal 400aac <DMAC_DMA1WaitDone>
  403174:	04 73 00 7f 	lwi $r7,[$r6+#0x1fc]
  403178:	3c 0c 13 e0 	lwi.gp $r0,[+#0x4f80]
  40317c:	44 10 00 7f 	movi $r1,#0x7f
  403180:	49 00 07 8e 	jal 40409c <Check32Sum>
  403184:	4c 70 40 39 	bne $r7,$r0,4031f6 <Scsi_CoreSwitchHandle+0xb8>
  403188:	a0 36       	lwi333 $r0,[$r6+#0x18]
  40318a:	46 70 05 e0 	sethi $r7,#0x5e0
  40318e:	b6 07       	swi450 $r0,[$r7]
  403190:	a6 30       	lbi333 $r0,[$r6+#0x0]
  403192:	c0 16       	beqz38 $r0,4031be <Scsi_CoreSwitchHandle+0x80>
  403194:	84 04       	movi55 $r0,#0x4
  403196:	49 00 06 19 	jal 403dc8 <NVIC_ClearPendingIRQ>
  40319a:	fa 07       	movpi45 $r0,#0x17
  40319c:	49 00 06 16 	jal 403dc8 <NVIC_ClearPendingIRQ>
  4031a0:	fa 08       	movpi45 $r0,#0x18
  4031a2:	49 00 06 13 	jal 403dc8 <NVIC_ClearPendingIRQ>
  4031a6:	a0 72       	lwi333 $r1,[$r6+#0x8]
  4031a8:	46 00 05 e6 	sethi $r0,#0x5e6
  4031ac:	a8 46       	swi333 $r1,[$r0+#0x18]
  4031ae:	64 00 00 08 	dsb
  4031b2:	00 03 80 e0 	lbi $r0,[$r7+#0xe0]
  4031b6:	58 00 00 01 	ori $r0,$r0,#0x1
  4031ba:	10 03 80 e0 	sbi $r0,[$r7+#0xe0]
  4031be:	00 03 00 0c 	lbi $r0,[$r6+#0xc]
  4031c2:	c0 1a       	beqz38 $r0,4031f6 <Scsi_CoreSwitchHandle+0xb8>
  4031c4:	fa 07       	movpi45 $r0,#0x17
  4031c6:	3e 00 57 65 	sbi.gp $r0,[+#0x5765]
  4031ca:	84 0b       	movi55 $r0,#0xb
  4031cc:	3e 00 57 64 	sbi.gp $r0,[+#0x5764]
  4031d0:	a0 34       	lwi333 $r0,[$r6+#0x10]
  4031d2:	3c 0e 15 da 	swi.gp $r0,[+#0x5768]
  4031d6:	46 00 05 e6 	sethi $r0,#0x5e6
  4031da:	84 21       	movi55 $r1,#0x1
  4031dc:	83 80       	mov55 $fp,$r0
  4031de:	b9 91       	swi37 $r1,[$fp+#0x44]
  4031e0:	b9 1f       	lwi37 $r1,[$fp+#0x7c]
  4031e2:	b9 9d       	swi37 $r1,[$fp+#0x74]
  4031e4:	46 10 05 e0 	sethi $r1,#0x5e0
  4031e8:	00 00 80 e0 	lbi $r0,[$r1+#0xe0]
  4031ec:	54 00 00 fe 	andi $r0,$r0,#0xfe
  4031f0:	10 00 80 e0 	sbi $r0,[$r1+#0xe0]
  4031f4:	d5 00       	j8 4031f4 <Scsi_CoreSwitchHandle+0xb6>
  4031f6:	84 04       	movi55 $r0,#0x4
  4031f8:	49 00 05 d1 	jal 403d9a <NVIC_EnableIRQ>
  4031fc:	fa 07       	movpi45 $r0,#0x17
  4031fe:	49 00 05 ce 	jal 403d9a <NVIC_EnableIRQ>
  403202:	fa 08       	movpi45 $r0,#0x18
  403204:	49 00 05 cb 	jal 403d9a <NVIC_EnableIRQ>
  403208:	84 00       	movi55 $r0,#0x0
  40320a:	49 00 05 bc 	jal 403d82 <__set_PRIMASK>
  40320e:	fc a0       	pop25 $r8,#0    ! {$r6~$r8, $fp, $gp, $lp}

00403210 <Scsi_IntCmdHandle>:
  403210:	3e 00 53 a3 	sbi.gp $r0,[+#0x53a3]
  403214:	2e 10 3b 08 	lbi.gp $r1,[+#0x3b08]
  403218:	5a 10 11 0c 	beqc $r1,#0x11,403230 <Scsi_IntCmdHandle+0x20>
  40321c:	5a 10 12 14 	beqc $r1,#0x12,403244 <Scsi_IntCmdHandle+0x34>
  403220:	5a 18 10 14 	bnec $r1,#0x10,403248 <Scsi_IntCmdHandle+0x38>
  403224:	5a 08 01 30 	bnec $r0,#0x1,403284 <Scsi_IntCmdHandle+0x74>
  403228:	84 01       	movi55 $r0,#0x1
  40322a:	3e 00 53 a2 	sbi.gp $r0,[+#0x53a2]
  40322e:	d5 2b       	j8 403284 <Scsi_IntCmdHandle+0x74>
  403230:	5a 08 01 07 	bnec $r0,#0x1,40323e <Scsi_IntCmdHandle+0x2e>
  403234:	2e 10 3b 09 	lbi.gp $r1,[+#0x3b09]
  403238:	5a 10 01 f8 	beqc $r1,#0x1,403228 <Scsi_IntCmdHandle+0x18>
  40323c:	dd 9e       	ret5 $lp
  40323e:	c8 23       	bnez38 $r0,403284 <Scsi_IntCmdHandle+0x74>
  403240:	2e 00 3b 09 	lbi.gp $r0,[+#0x3b09]
  403244:	c0 f2       	beqz38 $r0,403228 <Scsi_IntCmdHandle+0x18>
  403246:	d5 1f       	j8 403284 <Scsi_IntCmdHandle+0x74>
  403248:	fc 01       	push25 $r6,#8    ! {$r6, $fp, $gp, $lp}
  40324a:	3c 1c 14 eb 	lwi.gp $r1,[+#0x53ac]
  40324e:	c9 0e       	bnez38 $r1,40326a <Scsi_IntCmdHandle+0x5a>
  403250:	44 00 55 00 	movi $r0,#0x5500
  403254:	3c 0e 14 e6 	swi.gp $r0,[+#0x5398]
  403258:	84 00       	movi55 $r0,#0x0
  40325a:	3e 00 53 a0 	sbi.gp $r0,[+#0x53a0]
  40325e:	3e 00 53 a1 	sbi.gp $r0,[+#0x53a1]
  403262:	3e 00 53 a2 	sbi.gp $r0,[+#0x53a2]
  403266:	84 00       	movi55 $r0,#0x0
  403268:	fc 81       	pop25 $r6,#8    ! {$r6, $fp, $gp, $lp}
  40326a:	f0 81       	swi37.sp $r0,[+#0x4]
  40326c:	49 00 05 64 	jal 403d34 <GIE_DISABLE>
  403270:	f0 01       	lwi37.sp $r0,[+#0x4]
  403272:	3c 1c 14 eb 	lwi.gp $r1,[+#0x53ac]
  403276:	dd 21       	jral5 $r1
  403278:	f0 81       	swi37.sp $r0,[+#0x4]
  40327a:	49 00 05 58 	jal 403d2a <GIE_ENABLE>
  40327e:	f0 01       	lwi37.sp $r0,[+#0x4]
  403280:	c0 e8       	beqz38 $r0,403250 <Scsi_IntCmdHandle+0x40>
  403282:	fc 81       	pop25 $r6,#8    ! {$r6, $fp, $gp, $lp}
  403284:	84 01       	movi55 $r0,#0x1
  403286:	dd 9e       	ret5 $lp

00403288 <Scsi_IdleCmdHandle>:
  403288:	fc 00       	push25 $r6,#0    ! {$r6, $fp, $gp, $lp}
  40328a:	80 c0       	mov55 $r6,$r0
  40328c:	84 20       	movi55 $r1,#0x0
  40328e:	3e 10 53 a2 	sbi.gp $r1,[+#0x53a2]
  403292:	3e 10 53 a1 	sbi.gp $r1,[+#0x53a1]
  403296:	2e 10 3b 08 	lbi.gp $r1,[+#0x3b08]
  40329a:	5a 10 11 09 	beqc $r1,#0x11,4032ac <Scsi_IdleCmdHandle+0x24>
  40329e:	5a 10 12 0b 	beqc $r1,#0x12,4032b4 <Scsi_IdleCmdHandle+0x2c>
  4032a2:	5a 18 10 0c 	bnec $r1,#0x10,4032ba <Scsi_IdleCmdHandle+0x32>
  4032a6:	49 ff fe b1 	jal 403008 <Scsi_BasisCmdHandle>
  4032aa:	d5 03       	j8 4032b0 <Scsi_IdleCmdHandle+0x28>
  4032ac:	49 ff fe f9 	jal 40309e <Scsi_RdWrRamHandle>
  4032b0:	84 c1       	movi55 $r6,#0x1
  4032b2:	d5 37       	j8 403320 <Scsi_IdleCmdHandle+0x98>
  4032b4:	49 ff ff 45 	jal 40313e <Scsi_CoreSwitchHandle>
  4032b8:	d5 fc       	j8 4032b0 <Scsi_IdleCmdHandle+0x28>
  4032ba:	49 00 02 e4 	jal 403882 <__getlock>
  4032be:	84 0b       	movi55 $r0,#0xb
  4032c0:	3e 00 57 64 	sbi.gp $r0,[+#0x5764]
  4032c4:	fa 0f       	movpi45 $r0,#0x1f
  4032c6:	3e 00 57 65 	sbi.gp $r0,[+#0x5765]
  4032ca:	3c 6e 15 db 	swi.gp $r6,[+#0x576c]
  4032ce:	3c 0c 14 ec 	lwi.gp $r0,[+#0x53b0]
  4032d2:	3c 0e 15 da 	swi.gp $r0,[+#0x5768]
  4032d6:	46 00 05 e6 	sethi $r0,#0x5e6
  4032da:	84 21       	movi55 $r1,#0x1
  4032dc:	14 10 00 11 	swi $r1,[$r0+#0x44]
  4032e0:	49 00 02 df 	jal 40389e <__wait4unlocked>
  4032e4:	c0 05       	beqz38 $r0,4032ee <Scsi_IdleCmdHandle+0x66>
  4032e6:	2e 60 57 64 	lbi.gp $r6,[+#0x5764]
  4032ea:	97 b0       	zeb33 $r6,$r6
  4032ec:	d5 02       	j8 4032f0 <Scsi_IdleCmdHandle+0x68>
  4032ee:	80 c0       	mov55 $r6,$r0
  4032f0:	49 00 03 09 	jal 403902 <__unlock>
  4032f4:	ce 16       	bnez38 $r6,403320 <Scsi_IdleCmdHandle+0x98>
  4032f6:	44 00 55 00 	movi $r0,#0x5500
  4032fa:	3c 0e 14 e6 	swi.gp $r0,[+#0x5398]
  4032fe:	3e 60 53 a0 	sbi.gp $r6,[+#0x53a0]
  403302:	3c 0c 14 f4 	lwi.gp $r0,[+#0x53d0]
  403306:	3c 1c 13 e0 	lwi.gp $r1,[+#0x4f80]
  40330a:	92 16       	srli45 $r0,#0x16
  40330c:	96 0f       	fexti33 $r0,#0x1
  40330e:	3c 20 29 ea 	lhi.gp $r2,[+#0x53d4]
  403312:	44 30 04 00 	movi $r3,#0x400
  403316:	80 86       	mov55 $r4,$r6
  403318:	49 ff eb f5 	jal 400b02 <DMAC_DMA1Start>
  40331c:	49 ff eb c8 	jal 400aac <DMAC_DMA1WaitDone>
  403320:	80 06       	mov55 $r0,$r6
  403322:	fc 80       	pop25 $r6,#0    ! {$r6, $fp, $gp, $lp}

00403324 <TQM_DiTaskDoneEventHandler>:
  403324:	fc 00       	push25 $r6,#0    ! {$r6, $fp, $gp, $lp}
  403326:	80 c0       	mov55 $r6,$r0
  403328:	96 06       	bmski33 $r0,#0x0
  40332a:	c0 23       	beqz38 $r0,403370 <TQM_DiTaskDoneEventHandler+0x4c>
  40332c:	49 00 02 eb 	jal 403902 <__unlock>
  403330:	3c 50 29 80 	lhi.gp $r5,[+#0x5300]
  403334:	44 00 0c 1a 	movi $r0,#0xc1a
  403338:	d0 34       	beqs38 $r0,4033a0 <TQM_DiTaskDoneEventHandler+0x7c>
  40333a:	3c 2c 14 c7 	lwi.gp $r2,[+#0x531c]
  40333e:	c2 13       	beqz38 $r2,403364 <TQM_DiTaskDoneEventHandler+0x40>
  403340:	2e 00 53 00 	lbi.gp $r0,[+#0x5300]
  403344:	5a 08 14 07 	bnec $r0,#0x14,403352 <TQM_DiTaskDoneEventHandler+0x2e>
  403348:	3c 5c 15 da 	lwi.gp $r5,[+#0x5768]
  40334c:	3c 0c 14 c3 	lwi.gp $r0,[+#0x530c]
  403350:	d8 10       	bnes38 $r0,403370 <TQM_DiTaskDoneEventHandler+0x4c>
  403352:	2e 00 57 64 	lbi.gp $r0,[+#0x5764]
  403356:	96 00       	zeb33 $r0,$r0
  403358:	3e 00 53 01 	sbi.gp $r0,[+#0x5301]
  40335c:	3e 18 53 00 	addi.gp $r1,#0x5300
  403360:	dd 22       	jral5 $r2
  403362:	d5 07       	j8 403370 <TQM_DiTaskDoneEventHandler+0x4c>
  403364:	fa 12       	movpi45 $r0,#0x22
  403366:	3e 00 53 00 	sbi.gp $r0,[+#0x5300]
  40336a:	84 0e       	movi55 $r0,#0xe
  40336c:	3e 00 53 01 	sbi.gp $r0,[+#0x5301]
  403370:	97 8e       	bmski33 $r6,#0x1
  403372:	c6 15       	beqz38 $r6,40339c <TQM_DiTaskDoneEventHandler+0x78>
  403374:	49 00 02 c7 	jal 403902 <__unlock>
  403378:	3c 2c 14 cf 	lwi.gp $r2,[+#0x533c]
  40337c:	c2 0a       	beqz38 $r2,403390 <TQM_DiTaskDoneEventHandler+0x6c>
  40337e:	2e 00 57 64 	lbi.gp $r0,[+#0x5764]
  403382:	96 00       	zeb33 $r0,$r0
  403384:	3e 00 53 21 	sbi.gp $r0,[+#0x5321]
  403388:	3e 18 53 20 	addi.gp $r1,#0x5320
  40338c:	dd 22       	jral5 $r2
  40338e:	d5 07       	j8 40339c <TQM_DiTaskDoneEventHandler+0x78>
  403390:	fa 12       	movpi45 $r0,#0x22
  403392:	3e 00 53 20 	sbi.gp $r0,[+#0x5320]
  403396:	84 0e       	movi55 $r0,#0xe
  403398:	3e 00 53 21 	sbi.gp $r0,[+#0x5321]
  40339c:	49 00 02 b3 	jal 403902 <__unlock>
  4033a0:	fc 80       	pop25 $r6,#0    ! {$r6, $fp, $gp, $lp}

004033a2 <TQM_RemoveTask>:
  4033a2:	fa 4c       	movpi45 $r2,#0x1c
  4033a4:	3e 18 53 c8 	addi.gp $r1,#0x53c8
  4033a8:	42 10 08 73 	maddr32 $r1,$r0,$r2
  4033ac:	a4 cd       	lhi333 $r3,[$r1+#0xa]
  4033ae:	44 2f fd ff 	movi $r2,#-513
  4033b2:	fe 9e       	and33 $r2,$r3
  4033b4:	ac 8d       	shi333 $r2,[$r1+#0xa]
  4033b6:	84 40       	movi55 $r2,#0x0
  4033b8:	ae 8a       	sbi333 $r2,[$r1+#0x2]
  4033ba:	ae 8b       	sbi333 $r2,[$r1+#0x3]
  4033bc:	84 41       	movi55 $r2,#0x1
  4033be:	40 01 00 0c 	sll $r0,$r2,$r0
  4033c2:	46 20 05 e6 	sethi $r2,#0x5e6
  4033c6:	14 01 00 1c 	swi $r0,[$r2+#0x70]
  4033ca:	a0 8a       	lwi333 $r2,[$r1+#0x8]
  4033cc:	46 00 0c 00 	sethi $r0,#0xc00
  4033d0:	fe 16       	and33 $r0,$r2
  4033d2:	c8 07       	bnez38 $r0,4033e0 <TQM_RemoveTask+0x3e>
  4033d4:	a0 4b       	lwi333 $r1,[$r1+#0xc]
  4033d6:	3c 0c 15 eb 	lwi.gp $r0,[+#0x57ac]
  4033da:	8a 01       	sub45 $r0,$r1
  4033dc:	3c 0e 15 eb 	swi.gp $r0,[+#0x57ac]
  4033e0:	dd 9e       	ret5 $lp

004033e2 <TQM_RemoveMulTask>:
  4033e2:	fc 40       	push25 $r10,#0    ! {$r6~$r10, $fp, $gp, $lp}
  4033e4:	84 c0       	movi55 $r6,#0x0
  4033e6:	81 20       	mov55 $r9,$r0
  4033e8:	80 e6       	mov55 $r7,$r6
  4033ea:	85 41       	movi55 $r10,#0x1
  4033ec:	40 15 18 0c 	sll $r1,$r10,$r6
  4033f0:	40 10 a4 02 	and $r1,$r1,$r9
  4033f4:	96 30       	zeb33 $r0,$r6
  4033f6:	c1 05       	beqz38 $r1,403400 <TQM_RemoveMulTask+0x1e>
  4033f8:	8c e1       	addi45 $r7,#0x1
  4033fa:	97 f8       	zeb33 $r7,$r7
  4033fc:	49 ff ff d3 	jal 4033a2 <TQM_RemoveTask>
  403400:	8c c1       	addi45 $r6,#0x1
  403402:	5a 68 20 f5 	bnec $r6,#0x20,4033ec <TQM_RemoveMulTask+0xa>
  403406:	80 07       	mov55 $r0,$r7
  403408:	49 ff f8 b8 	jal 402578 <SATA_UpdateRdIdx>
  40340c:	46 00 05 e6 	sethi $r0,#0x5e6
  403410:	14 90 00 1c 	swi $r9,[$r0+#0x70]
  403414:	fc c0       	pop25 $r10,#0    ! {$r6~$r10, $fp, $gp, $lp}

00403416 <TQM_HiTaskDoneEventHandler>:
  403416:	fc 00       	push25 $r6,#0    ! {$r6, $fp, $gp, $lp}
  403418:	3e 18 53 c8 	addi.gp $r1,#0x53c8
  40341c:	80 c0       	mov55 $r6,$r0
  40341e:	fa 0c       	movpi45 $r0,#0x1c
  403420:	42 13 00 73 	maddr32 $r1,$r6,$r0
  403424:	a6 09       	lbi333 $r0,[$r1+#0x1]
  403426:	3c 2c 14 d2 	lwi.gp $r2,[+#0x5348]
  40342a:	c8 07       	bnez38 $r0,403438 <TQM_HiTaskDoneEventHandler+0x22>
  40342c:	c2 10       	beqz38 $r2,40344c <TQM_HiTaskDoneEventHandler+0x36>
  40342e:	a6 08       	lbi333 $r0,[$r1+#0x0]
  403430:	e6 0a       	slti45 $r0,#0xa
  403432:	e8 0a       	beqzs8 403446 <TQM_HiTaskDoneEventHandler+0x30>
  403434:	8c 24       	addi45 $r1,#0x4
  403436:	d5 04       	j8 40343e <TQM_HiTaskDoneEventHandler+0x28>
  403438:	c2 0a       	beqz38 $r2,40344c <TQM_HiTaskDoneEventHandler+0x36>
  40343a:	08 00 80 04 	lbi.bi $r0,[$r1],#0x4
  40343e:	dd 22       	jral5 $r2
  403440:	80 06       	mov55 $r0,$r6
  403442:	49 ff ff b0 	jal 4033a2 <TQM_RemoveTask>
  403446:	84 00       	movi55 $r0,#0x0
  403448:	3c 0e 14 d2 	swi.gp $r0,[+#0x5348]
  40344c:	fc 80       	pop25 $r6,#0    ! {$r6, $fp, $gp, $lp}

0040344e <TQM_CheckDiTaskDone>:
  40344e:	fc 00       	push25 $r6,#0    ! {$r6, $fp, $gp, $lp}
  403450:	46 60 05 e6 	sethi $r6,#0x5e6
  403454:	04 03 00 21 	lwi $r0,[$r6+#0x84]
  403458:	c0 09       	beqz38 $r0,40346a <TQM_CheckDiTaskDone+0x1c>
  40345a:	83 86       	mov55 $fp,$r6
  40345c:	b8 1f       	lwi37 $r0,[$fp+#0x7c]
  40345e:	b9 1f       	lwi37 $r1,[$fp+#0x7c]
  403460:	b9 9d       	swi37 $r1,[$fp+#0x74]
  403462:	49 ff ff 61 	jal 403324 <TQM_DiTaskDoneEventHandler>
  403466:	84 00       	movi55 $r0,#0x0
  403468:	b8 a1       	swi37 $r0,[$fp+#0x84]
  40346a:	fc 80       	pop25 $r6,#0    ! {$r6, $fp, $gp, $lp}

0040346c <HW24_ISR>:
  40346c:	fc 00       	push25 $r6,#0    ! {$r6, $fp, $gp, $lp}
  40346e:	46 00 05 e6 	sethi $r0,#0x5e6
  403472:	04 10 00 20 	lwi $r1,[$r0+#0x80]
  403476:	c1 0b       	beqz38 $r1,40348c <HW24_ISR+0x20>
  403478:	84 20       	movi55 $r1,#0x0
  40347a:	14 10 00 20 	swi $r1,[$r0+#0x80]
  40347e:	2e 00 4f 5e 	lbi.gp $r0,[+#0x4f5e]
  403482:	c0 03       	beqz38 $r0,403488 <HW24_ISR+0x1c>
  403484:	49 ff f2 ea 	jal 401a58 <DSATA_GetCurrentCmdSlot>
  403488:	49 ff ff c7 	jal 403416 <TQM_HiTaskDoneEventHandler>
  40348c:	49 ff ff e1 	jal 40344e <TQM_CheckDiTaskDone>
  403490:	fc 80       	pop25 $r6,#0    ! {$r6, $fp, $gp, $lp}
	...

00403494 <HW23_ISR>:
  403494:	fc 00       	push25 $r6,#0    ! {$r6, $fp, $gp, $lp}
  403496:	2e 00 57 e3 	lbi.gp $r0,[+#0x57e3]
  40349a:	8e 02       	subi45 $r0,#0x2
  40349c:	e6 04       	slti45 $r0,#0x4
  40349e:	4e f2 00 8b 	beqz $r15,4035b4 <HW23_ISR+0x120>
  4034a2:	3e ff b3 98 	addi.gp $r15,#-19560
  4034a6:	38 07 80 00 	lb $r0,[$r15+($r0<<#0x0)]
  4034aa:	40 f0 3c 00 	add $r15,$r0,$r15
  4034ae:	dd 0f       	jr5 $r15
  4034b0:	04          	.byte	0x04
  4034b1:	56          	.byte	0x56
  4034b2:	9e          	.byte	0x9e
  4034b3:	d0          	.byte	0xd0
  4034b4:	46 00 05 e6 	sethi $r0,#0x5e6
  4034b8:	84 20       	movi55 $r1,#0x0
  4034ba:	14 10 00 19 	swi $r1,[$r0+#0x64]
  4034be:	84 01       	movi55 $r0,#0x1
  4034c0:	49 ff ef 2d 	jal 40131a <DSATA_ExceptionHandler>
  4034c4:	46 00 05 e0 	sethi $r0,#0x5e0
  4034c8:	00 10 01 2c 	lbi $r1,[$r0+#0x12c]
  4034cc:	58 10 80 01 	ori $r1,$r1,#0x1
  4034d0:	10 10 01 2c 	sbi $r1,[$r0+#0x12c]
  4034d4:	00 10 01 2c 	lbi $r1,[$r0+#0x12c]
  4034d8:	58 10 80 08 	ori $r1,$r1,#0x8
  4034dc:	10 10 01 2c 	sbi $r1,[$r0+#0x12c]
  4034e0:	00 10 01 2c 	lbi $r1,[$r0+#0x12c]
  4034e4:	58 10 80 04 	ori $r1,$r1,#0x4
  4034e8:	10 10 01 2c 	sbi $r1,[$r0+#0x12c]
  4034ec:	00 10 01 2c 	lbi $r1,[$r0+#0x12c]
  4034f0:	58 10 80 02 	ori $r1,$r1,#0x2
  4034f4:	10 10 01 2c 	sbi $r1,[$r0+#0x12c]
  4034f8:	02 10 00 50 	lhi $r1,[$r0+#0xa0]
  4034fc:	58 10 81 00 	ori $r1,$r1,#0x100
  403500:	12 10 00 50 	shi $r1,[$r0+#0xa0]
  403504:	d5 58       	j8 4035b4 <HW23_ISR+0x120>
  403506:	46 00 05 e0 	sethi $r0,#0x5e0
  40350a:	83 80       	mov55 $fp,$r0
  40350c:	b9 3e       	lwi37 $r1,[$fp+#0xf8]
  40350e:	ba 3c       	lwi37 $r2,[$fp+#0xf0]
  403510:	96 46       	bmski33 $r1,#0x0
  403512:	c9 0c       	bnez38 $r1,40352a <HW23_ISR+0x96>
  403514:	44 11 00 00 	movi $r1,#0x10000
  403518:	fe 57       	or33 $r1,$r2
  40351a:	83 80       	mov55 $fp,$r0
  40351c:	b9 bc       	swi37 $r1,[$fp+#0xf0]
  40351e:	ba 3c       	lwi37 $r2,[$fp+#0xf0]
  403520:	44 12 00 00 	movi $r1,#0x20000
  403524:	fe 57       	or33 $r1,$r2
  403526:	b9 bc       	swi37 $r1,[$fp+#0xf0]
  403528:	d5 11       	j8 40354a <HW23_ISR+0xb6>
  40352a:	44 1e ff ff 	movi $r1,#-65537
  40352e:	fe 56       	and33 $r1,$r2
  403530:	83 80       	mov55 $fp,$r0
  403532:	b9 bc       	swi37 $r1,[$fp+#0xf0]
  403534:	ba 3c       	lwi37 $r2,[$fp+#0xf0]
  403536:	44 1d ff ff 	movi $r1,#-131073
  40353a:	fe 56       	and33 $r1,$r2
  40353c:	b9 bc       	swi37 $r1,[$fp+#0xf0]
  40353e:	02 10 00 50 	lhi $r1,[$r0+#0xa0]
  403542:	58 10 80 04 	ori $r1,$r1,#0x4
  403546:	12 10 00 50 	shi $r1,[$r0+#0xa0]
  40354a:	84 00       	movi55 $r0,#0x0
  40354c:	d5 17       	j8 40357a <HW23_ISR+0xe6>
  40354e:	49 00 04 c3 	jal 403ed4 <SystemClkRecovery>
  403552:	46 00 05 e0 	sethi $r0,#0x5e0
  403556:	44 1e ff ff 	movi $r1,#-65537
  40355a:	83 80       	mov55 $fp,$r0
  40355c:	ba 3c       	lwi37 $r2,[$fp+#0xf0]
  40355e:	fe 56       	and33 $r1,$r2
  403560:	b9 bc       	swi37 $r1,[$fp+#0xf0]
  403562:	ba 3c       	lwi37 $r2,[$fp+#0xf0]
  403564:	44 1d ff ff 	movi $r1,#-131073
  403568:	fe 56       	and33 $r1,$r2
  40356a:	b9 bc       	swi37 $r1,[$fp+#0xf0]
  40356c:	02 20 00 50 	lhi $r2,[$r0+#0xa0]
  403570:	84 3b       	movi55 $r1,#-5
  403572:	fe 56       	and33 $r1,$r2
  403574:	12 10 00 50 	shi $r1,[$r0+#0xa0]
  403578:	84 01       	movi55 $r0,#0x1
  40357a:	3e 00 4f 46 	sbi.gp $r0,[+#0x4f46]
  40357e:	d5 1b       	j8 4035b4 <HW23_ISR+0x120>
  403580:	3c 1c 15 ea 	lwi.gp $r1,[+#0x57a8]
  403584:	3c 0c 15 e9 	lwi.gp $r0,[+#0x57a4]
  403588:	8a 01       	sub45 $r0,$r1
  40358a:	3c 0e 15 e9 	swi.gp $r0,[+#0x57a4]
  40358e:	84 20       	movi55 $r1,#0x0
  403590:	3c 1e 15 ea 	swi.gp $r1,[+#0x57a8]
  403594:	3c 2c 15 e0 	lwi.gp $r2,[+#0x5780]
  403598:	3c 0c 15 df 	lwi.gp $r0,[+#0x577c]
  40359c:	8a 02       	sub45 $r0,$r2
  40359e:	3c 0e 15 df 	swi.gp $r0,[+#0x577c]
  4035a2:	3c 1e 15 e0 	swi.gp $r1,[+#0x5780]
  4035a6:	46 00 05 e1 	sethi $r0,#0x5e1
  4035aa:	50 00 01 10 	addi $r0,$r0,#0x110
  4035ae:	84 22       	movi55 $r1,#0x2
  4035b0:	49 ff f1 4c 	jal 401848 <DSATA_CmdReorderRestart>
  4035b4:	84 00       	movi55 $r0,#0x0
  4035b6:	3e 00 57 e3 	sbi.gp $r0,[+#0x57e3]
  4035ba:	46 00 05 e6 	sethi $r0,#0x5e6
  4035be:	84 20       	movi55 $r1,#0x0
  4035c0:	14 10 00 19 	swi $r1,[$r0+#0x64]
  4035c4:	fc 80       	pop25 $r6,#0    ! {$r6, $fp, $gp, $lp}
  4035c6:	92 00       	nop16

004035c8 <TQM_GetTask>:
  4035c8:	fa 4c       	movpi45 $r2,#0x1c
  4035ca:	3e 18 53 c8 	addi.gp $r1,#0x53c8
  4035ce:	42 10 08 73 	maddr32 $r1,$r0,$r2
  4035d2:	80 01       	mov55 $r0,$r1
  4035d4:	dd 9e       	ret5 $lp

004035d6 <NCQ_GetQueueLen>:
  4035d6:	3c 0c 15 e9 	lwi.gp $r0,[+#0x57a4]
  4035da:	3c 2c 15 ea 	lwi.gp $r2,[+#0x57a8]
  4035de:	9a 82       	sub333 $r2,$r0,$r2
  4035e0:	2e 10 57 d1 	lbi.gp $r1,[+#0x57d1]
  4035e4:	52 00 80 20 	subri $r0,$r1,#0x20
  4035e8:	96 c0       	zeb33 $r3,$r0
  4035ea:	96 50       	zeb33 $r1,$r2
  4035ec:	e2 61       	slt45 $r3,$r1
  4035ee:	40 01 3c 1a 	cmovz $r0,$r2,$r15
  4035f2:	96 00       	zeb33 $r0,$r0
  4035f4:	dd 9e       	ret5 $lp

004035f6 <NCQ_QueueInit>:
  4035f6:	3e 08 53 c8 	addi.gp $r0,#0x53c8
  4035fa:	84 20       	movi55 $r1,#0x0
  4035fc:	14 10 00 f7 	swi $r1,[$r0+#0x3dc]
  403600:	10 10 04 09 	sbi $r1,[$r0+#0x409]
  403604:	10 10 04 0b 	sbi $r1,[$r0+#0x40b]
  403608:	10 10 04 0a 	sbi $r1,[$r0+#0x40a]
  40360c:	10 10 04 1a 	sbi $r1,[$r0+#0x41a]
  403610:	14 10 00 f8 	swi $r1,[$r0+#0x3e0]
  403614:	dd 9e       	ret5 $lp

00403616 <TQM_Init>:
  403616:	fc 40       	push25 $r10,#0    ! {$r6~$r10, $fp, $gp, $lp}
  403618:	84 20       	movi55 $r1,#0x0
  40361a:	3e 28 53 c8 	addi.gp $r2,#0x53c8
  40361e:	81 42       	mov55 $r10,$r2
  403620:	fb 0c       	movpi45 $r8,#0x1c
  403622:	44 9f fd ff 	movi $r9,#-513
  403626:	80 81       	mov55 $r4,$r1
  403628:	3e 78 36 e8 	addi.gp $r7,#0x36e8
  40362c:	80 c1       	mov55 $r6,$r1
  40362e:	3e 58 44 e8 	addi.gp $r5,#0x44e8
  403632:	80 6a       	mov55 $r3,$r10
  403634:	42 30 a0 73 	maddr32 $r3,$r1,$r8
  403638:	a4 1d       	lhi333 $r0,[$r3+#0xa]
  40363a:	8c 5c       	addi45 $r2,#0x1c
  40363c:	40 00 24 02 	and $r0,$r0,$r9
  403640:	ac 1d       	shi333 $r0,[$r3+#0xa]
  403642:	94 cd       	slli333 $r3,$r1,#0x5
  403644:	88 67       	add45 $r3,$r7
  403646:	10 41 7f e6 	sbi $r4,[$r2+#-26]
  40364a:	10 41 7f e7 	sbi $r4,[$r2+#-25]
  40364e:	50 f1 80 08 	addi $r15,$r3,#0x8
  403652:	a9 9a       	swi333 $r6,[$r3+#0x8]
  403654:	94 cc       	slli333 $r3,$r1,#0x4
  403656:	88 65       	add45 $r3,$r5
  403658:	8c 21       	addi45 $r1,#0x1
  40365a:	84 00       	movi55 $r0,#0x0
  40365c:	14 37 80 01 	swi $r3,[$r15+#0x4]
  403660:	5a 18 20 e9 	bnec $r1,#0x20,403632 <TQM_Init+0x1c>
  403664:	3c 20 2b a9 	lhi.gp $r2,[+#0x5752]
  403668:	44 1f fd ff 	movi $r1,#-513
  40366c:	fe 56       	and33 $r1,$r2
  40366e:	3c 18 2b a9 	shi.gp $r1,[+#0x5752]
  403672:	84 5f       	movi55 $r2,#-1
  403674:	3e 00 57 75 	sbi.gp $r0,[+#0x5775]
  403678:	46 10 05 e6 	sethi $r1,#0x5e6
  40367c:	83 81       	mov55 $fp,$r1
  40367e:	b8 8f       	swi37 $r0,[$fp+#0x3c]
  403680:	ba 92       	swi37 $r2,[$fp+#0x48]
  403682:	84 43       	movi55 $r2,#0x3
  403684:	b8 96       	swi37 $r0,[$fp+#0x58]
  403686:	ba 98       	swi37 $r2,[$fp+#0x60]
  403688:	3e 00 57 77 	sbi.gp $r0,[+#0x5777]
  40368c:	3e 00 57 78 	sbi.gp $r0,[+#0x5778]
  403690:	3c 0e 15 df 	swi.gp $r0,[+#0x577c]
  403694:	3c 0e 15 e0 	swi.gp $r0,[+#0x5780]
  403698:	3c 0e 15 eb 	swi.gp $r0,[+#0x57ac]
  40369c:	49 ff ff ad 	jal 4035f6 <NCQ_QueueInit>
  4036a0:	fa 07       	movpi45 $r0,#0x17
  4036a2:	49 00 03 7c 	jal 403d9a <NVIC_EnableIRQ>
  4036a6:	fa 08       	movpi45 $r0,#0x18
  4036a8:	49 00 03 79 	jal 403d9a <NVIC_EnableIRQ>
  4036ac:	fc c0       	pop25 $r10,#0    ! {$r6~$r10, $fp, $gp, $lp}

004036ae <TQM_AbortAllTask>:
  4036ae:	fc 00       	push25 $r6,#0    ! {$r6, $fp, $gp, $lp}
  4036b0:	46 00 05 e6 	sethi $r0,#0x5e6
  4036b4:	84 3f       	movi55 $r1,#-1
  4036b6:	83 80       	mov55 $fp,$r0
  4036b8:	b9 9c       	swi37 $r1,[$fp+#0x70]
  4036ba:	b9 92       	swi37 $r1,[$fp+#0x48]
  4036bc:	49 ff ff ad 	jal 403616 <TQM_Init>
  4036c0:	fc 80       	pop25 $r6,#0    ! {$r6, $fp, $gp, $lp}

004036c2 <NCQ_QueueInquireTail>:
  4036c2:	fc 00       	push25 $r6,#0    ! {$r6, $fp, $gp, $lp}
  4036c4:	49 ff ff 89 	jal 4035d6 <NCQ_GetQueueLen>
  4036c8:	c0 11       	beqz38 $r0,4036ea <NCQ_QueueInquireTail+0x28>
  4036ca:	3e 08 53 c8 	addi.gp $r0,#0x53c8
  4036ce:	2e 10 57 d2 	lbi.gp $r1,[+#0x57d2]
  4036d2:	c9 04       	bnez38 $r1,4036da <NCQ_QueueInquireTail+0x18>
  4036d4:	2e 20 57 d0 	lbi.gp $r2,[+#0x57d0]
  4036d8:	d5 06       	j8 4036e4 <NCQ_QueueInquireTail+0x22>
  4036da:	2e 10 57 d2 	lbi.gp $r1,[+#0x57d2]
  4036de:	88 20       	add45 $r1,$r0
