
APP_SDK_G3CODE.adx:     file format elf32-nds32le
APP_SDK_G3CODE.adx
architecture: n1h_v3m, flags 0x00000112:
EXEC_P, HAS_SYMS, D_PAGED
start address 0x003dca7c

Program Header:
    LOAD off    0x00001000 vaddr 0x00000000 paddr 0x003d8000 align 2**12
         filesz 0x000000a4 memsz 0x000000a4 flags r-x
    LOAD off    0x000010a4 vaddr 0x003d80a4 paddr 0x003d80a4 align 2**12
         filesz 0x00015de8 memsz 0x00015de8 flags r-x
    LOAD off    0x00017000 vaddr 0x00410000 paddr 0x003edea0 align 2**12
         filesz 0x00000020 memsz 0x00002ec4 flags rw-
    LOAD off    0x00017800 vaddr 0x0040b800 paddr 0x003f0d64 align 2**12
         filesz 0x0000210c memsz 0x0000210c flags rw-
    LOAD off    0x0001a000 vaddr 0x00420000 paddr 0x003f2e70 align 2**12
         filesz 0x0004b400 memsz 0x0004b400 flags rw-
private flags = 40010042: n1 instructions

Sections:
Idx Name          Size      VMA       LMA       File off  Algn
  0 .nds32_init   000000a4  00000000  003d8000  00001000  2**2
                  CONTENTS, ALLOC, LOAD, READONLY, CODE
  1 .text         0000bb48  003d80a4  003d80a4  000010a4  2**2
                  CONTENTS, ALLOC, LOAD, READONLY, CODE
  2 .rodata       0000a29c  003e3bf0  003e3bf0  0000cbf0  2**3
                  CONTENTS, ALLOC, LOAD, READONLY, DATA
  3 .data         00000020  00410000  003edea0  00017000  2**2
                  CONTENTS, ALLOC, LOAD, DATA
  4 .sbss_b       00000002  00410020  003edec0  00017020  2**0
                  ALLOC
  5 .sbss_h       00000002  00410022  003edec2  00017020  2**0
                  ALLOC
  6 .sbss_w       00000024  00410024  003edec4  00017020  2**2
                  ALLOC
  7 .sbss_d       00000008  00410048  003edee8  00017020  2**3
                  ALLOC
  8 .bss          00002e74  00410050  003edef0  00017020  2**3
                  ALLOC
  9 .cmdhead      00000400  0040b800  003f0d64  00017800  2**10
                  CONTENTS, ALLOC, LOAD, DATA
 10 .scsicmdhead  00000200  0040bc00  003f1164  00017c00  2**3
                  CONTENTS, ALLOC, LOAD, DATA
 11 .scsidatahead 00000200  0040be00  003f1364  00017e00  2**3
                  CONTENTS, ALLOC, LOAD, DATA
 12 .undocds      00000200  0040c000  003f1564  00018000  2**3
                  CONTENTS, ALLOC, LOAD, DATA
 13 .combuffer    00000200  0040c200  003f1764  00018200  2**3
                  CONTENTS, ALLOC, LOAD, DATA
 14 .identify     00000200  0040c400  003f1964  00018400  2**3
                  CONTENTS, ALLOC, LOAD, DATA
 15 .prdtable     00000200  0040c600  003f1b64  00018600  2**3
                  CONTENTS, ALLOC, LOAD, DATA
 16 .fsm_hwd2h    00000800  0040c800  003f1d64  00018800  2**10
                  CONTENTS, ALLOC, LOAD, DATA
 17 .fsm          00000020  0040d000  003f2564  00019000  2**5
                  CONTENTS, ALLOC, LOAD, DATA
 18 .satadc       00000490  0040d020  003f2584  00019020  2**3
                  CONTENTS, ALLOC, LOAD, DATA
 19 .scsictrl     00000030  0040d4b0  003f2a14  000194b0  2**2
                  CONTENTS, ALLOC, LOAD, DATA
 20 .tqc          0000042c  0040d4e0  003f2a44  000194e0  2**2
                  CONTENTS, ALLOC, LOAD, DATA
 21 .comram2      0004b400  00420000  003f2e70  0001a000  2**3
                  CONTENTS, ALLOC, LOAD, DATA
 22 .comment      0000002f  00000000  00000000  00065400  2**0
                  CONTENTS, READONLY
 23 .debug_aranges 00001eb0  00000000  00000000  00065430  2**3
                  CONTENTS, READONLY, DEBUGGING
 24 .debug_info   000ceef6  00000000  00000000  000672e0  2**0
                  CONTENTS, READONLY, DEBUGGING
 25 .debug_abbrev 00008c6d  00000000  00000000  001361d6  2**0
                  CONTENTS, READONLY, DEBUGGING
 26 .debug_line   0002728a  00000000  00000000  0013ee43  2**0
                  CONTENTS, READONLY, DEBUGGING
 27 .debug_frame  00005e6c  00000000  00000000  001660d0  2**2
                  CONTENTS, READONLY, DEBUGGING
 28 .debug_str    0002a70f  00000000  00000000  0016bf3c  2**0
                  CONTENTS, READONLY, DEBUGGING
 29 .debug_loc    0001ff8e  00000000  00000000  0019664b  2**0
                  CONTENTS, READONLY, DEBUGGING
 30 .debug_ranges 00002360  00000000  00000000  001b65e0  2**3
                  CONTENTS, READONLY, DEBUGGING
 31 .debug_macro  000072ef  00000000  00000000  001b8940  2**0
                  CONTENTS, READONLY, DEBUGGING
SYMBOL TABLE:
00000000 l    d  .nds32_init	00000000 .nds32_init
003d80a4 l    d  .text	00000000 .text
003e3bf0 l    d  .rodata	00000000 .rodata
00410000 l    d  .data	00000000 .data
00410020 l    d  .sbss_b	00000000 .sbss_b
00410022 l    d  .sbss_h	00000000 .sbss_h
00410024 l    d  .sbss_w	00000000 .sbss_w
00410048 l    d  .sbss_d	00000000 .sbss_d
00410050 l    d  .bss	00000000 .bss
0040b800 l    d  .cmdhead	00000000 .cmdhead
0040bc00 l    d  .scsicmdhead	00000000 .scsicmdhead
0040be00 l    d  .scsidatahead	00000000 .scsidatahead
0040c000 l    d  .undocds	00000000 .undocds
0040c200 l    d  .combuffer	00000000 .combuffer
0040c400 l    d  .identify	00000000 .identify
0040c600 l    d  .prdtable	00000000 .prdtable
0040c800 l    d  .fsm_hwd2h	00000000 .fsm_hwd2h
0040d000 l    d  .fsm	00000000 .fsm
0040d020 l    d  .satadc	00000000 .satadc
0040d4b0 l    d  .scsictrl	00000000 .scsictrl
0040d4e0 l    d  .tqc	00000000 .tqc
00420000 l    d  .comram2	00000000 .comram2
00000000 l    d  .comment	00000000 .comment
00000000 l    d  .debug_aranges	00000000 .debug_aranges
00000000 l    d  .debug_info	00000000 .debug_info
00000000 l    d  .debug_abbrev	00000000 .debug_abbrev
00000000 l    d  .debug_line	00000000 .debug_line
00000000 l    d  .debug_frame	00000000 .debug_frame
00000000 l    d  .debug_str	00000000 .debug_str
00000000 l    d  .debug_loc	00000000 .debug_loc
00000000 l    d  .debug_ranges	00000000 .debug_ranges
00000000 l    d  .debug_macro	00000000 .debug_macro
00000000 l    df *ABS*	00000000 ./SysCfg/src/startup/crt0.o
00000000 l       .nds32_init	00000000 exception_vector
003dc814 l       .text	00000000 OS_Trap_TLB_Fill
003dc81a l       .text	00000000 OS_Trap_PTE_Not_Present
003dc820 l       .text	00000000 OS_Trap_TLB_Misc
003dc826 l       .text	00000000 OS_Trap_TLB_VLPT_Miss
003dc82c l       .text	00000000 OS_Trap_Machine_Error
003dc832 l       .text	00000000 OS_Trap_Debug_Related
003dc838 l       .text	00000000 OS_Trap_General_Exception
003dc896 l       .text	00000000 OS_Trap_Syscall
003dc96c l       .text	00000000 OS_Trap_Interrupt_HW0
003dc974 l       .text	00000000 OS_Trap_Interrupt_HW1
003dc97c l       .text	00000000 OS_Trap_Interrupt_HW2
003dc984 l       .text	00000000 OS_Trap_Interrupt_HW3
003dc98c l       .text	00000000 OS_Trap_Interrupt_HW4
003dc994 l       .text	00000000 OS_Trap_Interrupt_HW5
003dc99c l       .text	00000000 OS_Trap_Interrupt_HW6
003dc9a4 l       .text	00000000 OS_Trap_Interrupt_HW7
003dc9ac l       .text	00000000 OS_Trap_Interrupt_HW8
003dc9b4 l       .text	00000000 OS_Trap_Interrupt_HW9
003dc9bc l       .text	00000000 OS_Trap_Interrupt_HW10
003dc9c4 l       .text	00000000 OS_Trap_Interrupt_HW11
003dc9cc l       .text	00000000 OS_Trap_Interrupt_HW12
003dc9d4 l       .text	00000000 OS_Trap_Interrupt_HW13
003dc9dc l       .text	00000000 OS_Trap_Interrupt_HW14
003dc9e4 l       .text	00000000 OS_Trap_Interrupt_HW15
003dc9ee l       .text	00000000 OS_Trap_Interrupt_HW16
003dc9f8 l       .text	00000000 OS_Trap_Interrupt_HW17
003dca02 l       .text	00000000 OS_Trap_Interrupt_HW18
003dca0c l       .text	00000000 OS_Trap_Interrupt_HW19
003dca16 l       .text	00000000 OS_Trap_Interrupt_HW20
003dca20 l       .text	00000000 OS_Trap_Interrupt_HW21
003dca2a l       .text	00000000 OS_Trap_Interrupt_HW22
003dca34 l       .text	00000000 OS_Trap_Interrupt_HW23
003dca3e l       .text	00000000 OS_Trap_Interrupt_HW24
003dca48 l       .text	00000000 OS_Trap_Interrupt_HW25
003dca52 l       .text	00000000 OS_Trap_Interrupt_HW26
003dca5c l       .text	00000000 OS_Trap_Interrupt_HW27
003dca66 l       .text	00000000 OS_Trap_Interrupt_HW28
003dca70 l       .text	00000000 OS_Trap_Interrupt_HW29
003dc96a l       .text	00000000 OS_Trap_Interrupt_UNDEF
003dc788 l       .text	00000000 exception_vector_end
003dc788 l       .text	00000000 exception_handler
003dc794 l       .text	00000000 ISR_TABLE
003dc8ec l       .text	00000000 common_ISR_wrapper
00000000 l    df *ABS*	00000000 fdl_common.c
003e3bf0 l     O .rodata	00000010 SG_FC_BASE_ARRY
003e3c00 l     O .rodata	00000010 SG_DMA2_BASE_ARRY
00000000 l    df *ABS*	00000000 fdl_exception.c
00000000 l    df *ABS*	00000000 fdl_irq.c
003e3cac l     O .rodata	00000010 SG_FC_BASE_ARRY
003e3cbc l     O .rodata	00000010 SG_DMA2_BASE_ARRY
00000000 l    df *ABS*	00000000 fdl_mcu_op.c
00000000 l    df *ABS*	00000000 fdl_read.c
00000000 l    df *ABS*	00000000 fdl_read_retry.c
003e3d34 l     O .rodata	00000010 SG_FC_BASE_ARRY
003e3d44 l     O .rodata	00000010 SG_DMA2_BASE_ARRY
00000000 l    df *ABS*	00000000 fdl_task_op.c
003e3dcc l     O .rodata	00000010 SG_FC_BASE_ARRY
00000000 l    df *ABS*	00000000 fdl_write.c
00000000 l    df *ABS*	00000000 fdl_write_fail_handler.c
003e3de0 l     O .rodata	00000010 SG_FC_BASE_ARRY
00000000 l    df *ABS*	00000000 flash_driver.c
003e3e68 l     O .rodata	00000010 SG_FC_BASE_ARRY
003e3e78 l     O .rodata	00000010 SG_DMA2_BASE_ARRY
003e3e4c l     O .rodata	0000001b __func__.10294
00000000 l    df *ABS*	00000000 hal_adm.c
003da1d2 l     F .text	00000018 HAL_ADMWaitDMADone.part.0
003e3ed8 l     O .rodata	00000010 SG_DMA2_BASE_ARRY
00000000 l    df *ABS*	00000000 hal_bfc.c
00000000 l    df *ABS*	00000000 hal_cpm.c
00000000 l    df *ABS*	00000000 hal_cq.c
003e4194 l     O .rodata	00000010 SG_FC_BASE_ARRY
003e41a4 l     O .rodata	00000010 SG_DMA2_BASE_ARRY
00000000 l    df *ABS*	00000000 hal_define.c
003e41cc l     O .rodata	00000010 SG_FC_BASE_ARRY
003e41dc l     O .rodata	00000010 SG_DMA2_BASE_ARRY
00000000 l    df *ABS*	00000000 hal_fc.c
003e41fc l     O .rodata	00000010 SG_DMA2_BASE_ARRY
003e41ec l     O .rodata	00000010 SG_FC_BASE_ARRY
00000000 l    df *ABS*	00000000 hal_ldpc.c
003db67a l     F .text	00000092 HAL_LDPC_ParityChangeCfg.part.0
00000000 l    df *ABS*	00000000 hal_mcu.c
003e4210 l     O .rodata	00000010 SG_FC_BASE_ARRY
003e420c l       .rodata	00000000 .LC0
00000000 l    df *ABS*	00000000 hal_pad.c
00000000 l    df *ABS*	00000000 hal_pmcp.c
003e469c l     O .rodata	00000008 SG_PMCP_BASE_ARRY
00000000 l    df *ABS*	00000000 dma1c.c
00000000 l    df *ABS*	00000000 dsata.c
00000000 l    df *ABS*	00000000 scsi.c
00000000 l    df *ABS*	00000000 task_manage.c
00000000 l    df *ABS*	00000000 debug.c
00410064 l     O .bss	00000004 time.8402
00000000 l    df *ABS*	00000000 mcu.c
00000000 l    df *ABS*	00000000 system_sg9081.c
00000000 l    df *ABS*	00000000 uart.c
003e4eac l     O .rodata	00000008 SG_UART_BASE_ARRY
00000000 l    df *ABS*	00000000 uitility.c
00000000 l    df *ABS*	00000000 init-default.c
003dcab8 l     F .text	00000008 Default_Handler
003e4f64 l     O .rodata	00000010 __func__.7088
003e4f4c l     O .rodata	00000016 __func__.7093
003e4f38 l     O .rodata	00000014 __func__.7104
00000000 l    df *ABS*	00000000 init-soc.c
00000000 l    df *ABS*	00000000 CmdHandle.c
00000000 l    df *ABS*	00000000 fdl_test.c
003ed18c l     O .rodata	00000010 SG_FC_BASE_ARRY
00410085 l     O .bss	00000001 bCBBuffIdx
003ed19c l     O .rodata	00000010 SG_DMA2_BASE_ARRY
00410084 l     O .bss	00000001 bSetReadRetry.11759
00000000 l    df *ABS*	00000000 ftl.c
003ed4a4 l     O .rodata	00000010 SG_DMA2_BASE_ARRY
00000000 l    df *ABS*	00000000 hal_test.c
003edbf8 l     O .rodata	00000010 SG_FC_BASE_ARRY
003edc08 l     O .rodata	00000010 SG_DMA2_BASE_ARRY
00000000 l    df *ABS*	00000000 interface.c
004100b0 l     O .bss	00000004 num_bk.9069
004100ac l     O .bss	00000004 cnt.9068
00000000 l    df *ABS*	00000000 main.c
00000000 l    df *ABS*	00000000 pri_cmd.c
003edd64 l     O .rodata	00000118 PrivCmdTip
00000000 l    df *ABS*	00000000 lib_a-memset.o
00000000 l    df *ABS*	00000000 lib_a-strlen.o
00000000 l    df *ABS*	00000000 vsprintf.c
003e2e90 l     F .text	0000000c vsprintf_help
00000000 l    df *ABS*	00000000 do_printf.c
00000000 l    df *ABS*	00000000 printf_f.c
003e3394 l     F .text	0000003a sep_frac
00000000 l    df *ABS*	00000000 lib_a-strcpy.o
00000000 l    df *ABS*	00000000 abs.c
00000000 l    df *ABS*	00000000 libgcc2.c
00000000 l    df *ABS*	00000000 libgcc2.c
00000000 l    df *ABS*	00000000 sata_define.c
00000000 l    df *ABS*	00000000 ata_identify.c
00000000 l    df *ABS*	00000000 
003f8000 l       *ABS*	00000000 __CODE_END
00410000 l       .data	00000000 COMRAM1_BEGIN
003d8000 l       *ABS*	00000000 LOAD_AREA1_BEGIN
00420000 l       .tqc	00000000 COMRAM2_BEGIN
0000210c l       *ABS*	00000000 COMRAM3_SIZE
003d80a4 l       .text	00000000 EXEC_BEGIN
00002ec4 l       *ABS*	00000000 COMRAM1_SIZE
00000000 l       *UND*	00000000 FDL_Test_Analyse_Exception
0041f000 l       *ABS*	00000000 _stackSlave
00000000 l       *UND*	00000000 Fdl_PullUpCeAndRd
003d80a4 l       *ABS*	00000000 NDS_SAG_LMA_EILM
0040b800 l       .bss	00000000 COMRAM3_BEGIN
003d8000 l       *ABS*	00000000 NDS_SAG_LMA_LOAD_AREA1
003d80a4 l       *ABS*	00000000 EILM_BEGIN
00015de8 l       *ABS*	00000000 EXEC_SIZE
00000000 l       *UND*	00000000 FTL_EraseBlockInit
00470000 l       .comram2	00000000 RAIDRAM_BEGIN
00000000 l       *ABS*	00000000 RAIDRAM_SIZE
003d8000 l       *ABS*	00000000 __CODE_START
00000000 l       *UND*	00000000 DSATA_G3_TaskRouter
0004b400 l       *ABS*	00000000 COMRAM2_SIZE
003dbd6e g     F .text	00000024 Scsi_RegisteInterfaceInfo
003da4fa g     F .text	0000000c HAL_CPMGetClkSource
003dbb16 g     F .text	0000002a HAL_PMCPMemorySet
003dc43c g     F .text	00000016 NVIC_EnableIRQ
003dc2e4 g     F .text	00000018 __set_PRIMASK
003de23c g     F .text	00000098 FA_WriteBlk
003db7f8 g     F .text	00000020 HAL_MCU_SendOneAddr
003e3b5c g     F .text	00000038 strcpy
003e3bc4 g     F .text	00000026 .hidden __ashldi3
003dcab8  w    F .text	00000008 HW2_ISR
0040b800 g     O .cmdhead	00000400 tCmdHead
003da8de g     F .text	00000014 HAL_CQSendColAddr
003e47c4 g     O .rodata	00000010 HEX_CHAR
003d8aaa g     F .text	0000009a Retry_GetDmaInfor
003dcab8  w    F .text	00000008 VEP3_ISR
003db70c g     F .text	0000009c HAL_LDPC_ParityChangeCfg
003ddb2e g     F .text	00000002 FTL_ReadRetryFail
003e8ffc g     O .rodata	00000800 dHAL_Mtx_8_B
003dc480 g     F .text	00000062 GetSysTickCnt
003dfea0 g     F .text	00001572 FA_FindOV
003db58e g     F .text	00000026 HAL_NFChkStCtrl
003da950 g     F .text	00000026 HAL_CQSend6Addr
003db914 g     F .text	00000016 HAL_MCU_ReleaseOwnership
003dbeac g     F .text	0000001e NCQ_QueueInquire
003dd27e g     F .text	0000003c FDL_Test_MptoolUDPHwReg
003d9ebc g     F .text	00000052 FDL_FlashIFModeInit
003dd5be g     F .text	000000e8 FDL_Test_Init
003eae0c g     O .rodata	00000220 dHAL_Mtx_7_A
003dc02c g     F .text	00000016 printstr
003e1fec g     F .text	00000028 IsHigherTemperature
003e2e9c g     F .text	0000001a vsprintf
003db5ec g     F .text	0000008e HAL_NFGetOrClrChkStsHwFlag
003d9fd4 g     F .text	000000c4 FDL_CheckMultiLunReady
003de7ec g     F .text	00000024 MultiPlane_Erase
003dae1a g     F .text	00000026 HAL_McuSendReadPluse
003df9f2 g     F .text	000000ac DataMove
004124b8 g     O .bss	000002d0 g_tCmdQueInfo
003dc2fc g     F .text	0000001c __delay_us
003dcab8  w    F .text	00000008 HW23_ISR
003d9d6e g     F .text	00000062 Fdl_EraseFailHandler
003da83c g     F .text	0000008e HAL_CQChipSelect
003e654c g     O .rodata	00000220 dHAL_Mtx_10_A
0041009c g     O .bss	00000001 IsManualHeating
003da7fe g     F .text	00000012 HAL_CQGetIdleSpace
003e1ace g     F .text	00000064 FA_TMPSensorSetLevel
003dfda6 g     F .text	000000fa ShortSeek_Cw
003d840e g     F .text	00000022 FDL_DMAIRQHandler
00410098 g     O .bss	00000004 Offline_PE_counter
003dcab8  w    F .text	00000008 VEP63_ISR
003dcab8  w    F .text	00000008 VEP36_ISR
003ddb40 g     F .text	00000356 FA_Flash_Info_Init
003de9b0 g     F .text	000003e4 FA_Universal
003e9a1c g     O .rodata	00000940 dHAL_Mtx_8_P2
003dcab8  w    F .text	00000008 VEP37_ISR
003da2ce g     F .text	000000c2 HAL_ADMStartDMA2
003dfcc0 g     F .text	000000e6 ShortSeek
003db112 g     F .text	0000002c HAL_NFResetFlash
0041000c g     O .data	00000010 pid
003dd86a g     F .text	0000002c CQ_WaitDone
003d8be4 g     F .text	00000642 Retry_MultiDMA
003db310 g     F .text	0000005a HAL_McuSetFeature
003da424 g     F .text	00000046 HAL_BFCSetBuffStatus
003d9f0e g     F .text	000000c6 FDL_WaitTaskDone
003e1a7a g     F .text	00000054 FA_SocketHeaterSwitch
00410020 g     O .sbss_b	00000001 bTaskType
003dcb98  w    F .text	00000014 tlb_exception_handler
003dc452 g     F .text	00000018 NVIC_DisableIRQ
003dcab8  w    F .text	00000008 VEP20_ISR
003e2a64 g     F .text	000000aa INTF_TaskQueuedProcess
003dcab8  w    F .text	00000008 HW1_ISR
00400000 g       *ABS*	00000000 __G0_VECTOR_ADDR
00410095 g     O .bss	00000001 Offline_Program_Type
003e213c g     F .text	0000011c FA_OfflineTaskInit
003dc2c6 g     F .text	0000000e __get_sda_base
003e4708 g     O .rodata	00000020 dWRCmdHead
003dc092 g     F .text	00000054 PRINT_TIME
003e1dd8 g     F .text	000000d2 FA_HighTempSocketReadTemp
003dc2b8 g     F .text	00000006 __get_pfm_count
003e81ec g     O .rodata	00000970 dHAL_Mtx_9_P2
003dcab8  w    F .text	00000008 VEP24_ISR
003e4750 g     O .rodata	00000028 bFwVersionG0
003e4728 g     O .rodata	00000028 bFwVersionG3
003dcab8  w    F .text	00000008 VEP44_ISR
003de4e0 g     F .text	000000c8 FA_SubReadData_ParameterPage
004100a4 g     O .bss	00000002 HTCtrlCnt
00410024 g     O .sbss_w	00000004 bCqTimeoutFlag
003d924c g     F .text	00000076 Retry_CQPauseHandle
003e266c g     F .text	0000004c FA_GPIOCTRL_DATA
003e1412 g     F .text	000000da FA_GetExtendedFA
00412cb4 g     O .bss	000000a0 ProgramMap
003ddffa g     F .text	00000022 FA_SendOprModeCmd
003dc654 g     F .text	000000c4 UART_Init
003dcab8  w    F .text	00000008 HW30_ISR
003e2c44 g     F .text	000000e4 FA_GPIOInit
003dcab8  w    F .text	00000008 VEP43_ISR
003dc186 g     F .text	00000068 PRINT_HEX
00410ce8 g     O .bss	0000004c pFdlParam
003dc34c g     F .text	000000f0 __reset_memory_poweron
003dcab8  w    F .text	00000008 VEP32_ISR
003ddec4 g     F .text	0000002a RS_Buff_Init
003dcab8  w    F .text	00000008 VEP47_ISR
0040c000 g     O .undocds	00000200 tSyncBuffer
003dfac6 g     F .text	000000ba DataMove_Cw
0040be00 g     O .scsidatahead	00000200 tScsiDataHead
003da4b0 g     F .text	0000004a HAL_RTY_BFCSetBuffStatusBit
0040c400 g     O .identify	00000200 unAtaIdentify
003da8f2 g     F .text	0000001a HAL_CQSendRowAddr
00410030 g     O .sbss_w	00000004 g_dPAD_dTSEL_CTRL
003e75ac g     O .rodata	00000a20 dHAL_Mtx_9_B
003e4dd8 g     O .rodata	000000d2 TLB_misc
003d877a g     F .text	00000070 Retry_JudgeDmaMask
003dcab8  w    F .text	00000008 VEP55_ISR
003dcab8  w    F .text	00000008 VEP14_ISR
003e2e1c g     F .text	00000024 Scsi_JptSwitchHandle
003dc288 g     F .text	0000000a GIE_ENABLE
003e40e8 g     O .rodata	000000ac SumsungSeedSLC
003def34 g     F .text	000000aa FA_SubReadData_ReadUID
003ddf00 g     F .text	00000038 RS_SaveStatusInfo
003dcab8  w    F .text	00000008 VEP27_ISR
003e2b44 g     F .text	0000000c InterfaceFatalErrorHandle
00410048 g     O .sbss_d	00000008 uCapacity
003dc75a g     F .text	0000000e U32MemSet
00410091 g     O .bss	00000001 Offline_PlaneCnt
003e1d60 g     F .text	00000078 FA_TMPSensorGetTemp
003dcab8  w    F .text	00000008 VEP29_ISR
003ddb16 g     F .text	00000018 FTL_SATAErrorHandle
003e2dee g     F .text	0000001c HostDataTransfer
00412d54 g     O .bss	000000c8 Offline_BlockList
003eb94c g     O .rodata	00000480 dHAL_Mtx_7_P1
003d8736 g     F .text	00000032 Task_MultiCEForContinue
003d8484 g     F .text	0000000c HW9_ISR
003db818 g     F .text	00000018 HAL_MCU_SendTwoAddr
003dd026 g     F .text	00000258 FDL_Test_UDPInit
003e2b0e g     F .text	0000002a INTF_Di_DataProcess
003e676c g     O .rodata	00000990 dHAL_Mtx_10_P2
000661cc g       *ABS*	00000000 EILM_SIZE
003e4978 g     O .rodata	000000a0 I_TYPE
003dcab8  w    F .text	00000008 HW26_ISR
003e2014 g     F .text	00000128 FA_HeaterControl
003de5a8 g     F .text	000001b2 FA_SubReadData_WoPreCMD
00412e1c g     O .bss	0000000a Offline_RSRecBlkList
003dabf0 g     F .text	00000022 HAL_CQSetUdBaseAddr
003dadce g     F .text	00000032 HAL_McuSetRndSeed
003de87c g     F .text	00000134 FA_EraseBlk
003df678 g     F .text	0000037a FA_FindOV_Init
00410088 g     O .bss	00000001 Offline_RSBlkIndex
003e4cac g     O .rodata	0000012c Machine_error
003dcab8  w    F .text	00000008 HW10_ISR
00410054 g     O .bss	00000010 bRetryPersistence
003e15f4 g     F .text	0000007c FA_GetParamter
003dcab8  w    F .text	00000008 VEP45_ISR
003dcab8  w    F .text	00000008 VEP26_ISR
003dc318 g     F .text	0000001c __delay_ms
003e2258 g     F .text	000000ce FA_Offline_WriteBlock_ver1
003d816c g     F .text	00000028 Fdl_ConvertColAddr
00410d38 g     O .bss	0000008c HAL_JCBufff
003da102 g     F .text	000000d0 FDL_JointWritePages
003dcae6 g     F .text	0000007c __cpu_init
003d8490 g     F .text	0000003c HW5_ISR
003d89a0 g     F .text	0000010a Retry_PreReadGetDmaInfo
003dc768 g     F .text	0000000e U08MemSet
003d8430 g     F .text	0000000c HW14_ISR
003dc4e2 g     F .text	0000001e UpdateSystemClock
003ddf38 g     F .text	00000094 RS_CheckStatusWithSave
003dcab8  w    F .text	00000008 HW11_ISR
003db9fa g     F .text	00000080 HAL_PMCPBitMapCountExtFilter_Cfg
003dac30 g     F .text	0000001e HAL_CQSetUdLen
003d870a g     F .text	0000002c Fdl_MCUReadCacheCmd
003dcab8  w    F .text	00000008 HW4_ISR
003e2584 g     F .text	0000004c FA_GPIOCTRL_PS
00410040 g     O .sbss_w	00000004 FaRsIndx
003de75a g     F .text	00000092 FA_ReadData
00412788 g     O .bss	0000008c tHalADMReg
003e1cd8 g     F .text	00000088 FA_TMPSensorReadByte
00410000 g     O .data	00000001 gFdlTskStatus
003da3f0 g     F .text	00000018 HAL_BFCInit
003dcab8  w    F .text	00000008 VEP7_ISR
00420000 g     O .comram2	0004b400 gScan
003db1fc g     F .text	0000004a HAL_NFSetExtFeature
003e2be2 g     F .text	00000062 register_sata_itf
003d8194 g     F .text	0000005c Fdl_ClearExceptionState
00410004 g     O .data	00000008 Bit_Selecter
003e2dd6 g     F .text	00000018 MemCopy
003dcb84 g     F .text	00000014 SysCall_Handler
003dcab8  w    F .text	00000008 VEP50_ISR
003d9226 g     F .text	00000026 Retry_FailDmaCnt
003dfb80 g     F .text	00000030 Get_Page_Retry_Error_Cw
003da1ea g     F .text	00000010 HAL_ADMGetJointMode
003e3ee8 g     O .rodata	00000200 SumsungSeedTLC
003dcab8  w    F .text	00000008 HW24_ISR
00410050 g     O .bss	00000004 bFlashInitFail
003dcab8  w    F .text	00000008 VEP25_ISR
003dcab8  w    F .text	00000008 VEP0_ISR
003dac7e g     F .text	0000001e HAL_CQSetRndSeed
003d98c8 g     F .text	000000a0 WirteStartDMA2ByCQ
003d8bb2 g     F .text	00000032 RetryInfoRcd
0041008d g     O .bss	00000001 Offline_RSRecord
003e1b32 g     F .text	0000006c FA_TMPSensorSetSDAMode
003e2eb8 g     F .text	000004da do_printf
003dcab8  w    F .text	00000008 VEP23_ISR
003e2e0a g     F .text	00000012 HostCmdResponse
003e251c g     F .text	00000068 FA_GPIOCTRL_FUNC
003e2b50 g     F .text	00000044 ScsiIntCmdHandle
003dcab8  w    F .text	00000008 VEP4_ISR
004100a3 g     O .bss	00000001 IsHeaterOn
003ea7ec g     O .rodata	00000620 dHAL_Mtx_7_B
003dc340 g     F .text	0000000c g0_enable
003d8448 g     F .text	0000000c HW16_ISR
003dcb62 g     F .text	00000022 __init
003db7c0 g     F .text	00000018 HAL_MCU_SetCe
003dcab8  w    F .text	00000008 VEP22_ISR
003dcab8  w    F .text	00000008 VEP8_ISR
003e1eaa g     F .text	000000d4 FA_HeaterOperationCalculate
003ea35c g     O .rodata	00000490 dHAL_Mtx_8_P1
003de078 g     F .text	000001c4 MultiPlane_WritePage
003dee46 g     F .text	000000ee FA_ReadID
003e19f0 g     F .text	00000014 FA_CloseSocketFan
003dae40 g     F .text	000002d2 HAL_Init
003db7d8 g     F .text	00000020 HAL_MCU_SendCmd
003dd896 g     F .text	00000002 FTL_Initial
003db856 g     F .text	00000084 HAL_MCUCheckStatus
003e8b5c g     O .rodata	000004a0 dHAL_Mtx_9_P1
003ec34c g     O .rodata	000009e0 dHAL_Mtx_5_P2
003dcab8  w    F .text	00000008 VEP49_ISR
003e3b9c g     F .text	00000028 .hidden __lshrdi3
003da264 g     F .text	0000005a HAL_MCStartDMA1
00410021 g     O .sbss_b	00000001 bIsDummyRWEn
003dcab8  w    F .text	00000008 VEP35_ISR
003dc0e6 g     F .text	00000038 PRINT_TXT
003e2b94 g     F .text	0000004e ScsiIdleCmdHandle
003e29a2 g     F .text	000000c2 INTF_Hi_NoneDataTaskProcess
003e25d0 g     F .text	00000050 FA_GPIOCTRL_PE
003e1a66 g     F .text	00000014 FA_CloseSocketHeater
003dcab8  w    F .text	00000008 HW28_ISR
003db13e g     F .text	000000be HAL_NFReadFlashID
004122b8 g     O .bss	00000200 UART_TX_FIFO
0040c200 g     O .combuffer	00000200 tAsyncBuffer
003dcab8  w    F .text	00000008 HW31_ISR
003dcab8  w    F .text	00000008 HW12_ISR
00411760  w      .data	00000000 _FP_BASE_
003dab64 g     F .text	00000012 HAL_CQCheckRealDone
003dcab8  w    F .text	00000008 VEP9_ISR
003db5b4 g     F .text	00000038 HAL_SetOverFlowThresh
003dcab8  w    F .text	00000008 VEP53_ISR
003dcab8  w    F .text	00000008 VEP12_ISR
0041009e g     O .bss	00000002 CurTempSensor2
003d846c g     F .text	0000000c HW7_ISR
003daa98 g     F .text	000000ca HAL_CQCheckStsCfg
003dcab8  w    F .text	00000008 VEP56_ISR
003dcab8  w    F .text	00000008 VEP15_ISR
003dc2a0 g     F .text	00000018 __enable_performance
003e28a0 g     F .text	00000102 INTF_Di_TaskProcess
003dac9c g     F .text	00000022 HAL_CQSetDMAInfoAddr
003ecd2c g     O .rodata	00000460 dHAL_Mtx_5_P1
003da390 g     F .text	00000060 HAL_ADMWaitDMADone
003daa02 g     F .text	0000004a HAL_CQCheckHold
003e33ce g     F .text	0000078e _printf_float
003de2d4 g     F .text	00000204 FA_WritePage_WoPreCMD
003d9d08 g     F .text	00000066 FDL_SearchOfstByBlkAddr
003dc2d8 g     F .text	0000000c __get_PRIMASK
003da46a g     F .text	00000046 HAL_RTY_BFCSetBuffStatus
003db9d0 g     F .text	0000002a HAL_PMCPWaitDone
003d9314 g     F .text	00000042 Retry_CQRecover
003dad62 g     F .text	0000005a HAL_McuSetUd
003e4a18 g     O .rodata	00000294 General_exception
003dca7c g     F .text	0000003a _start
003e1f7e g     F .text	0000006e PIDUpdateCurrentTemperature
003db37a g     F .text	00000092 HAL_McuSendReadPluseGetData
003dbeca g     F .text	00000018 NCQ_GetParam
003dbee2 g     F .text	00000074 NCQ_QueuePop
004100a7 g     O .bss	00000001 IsHTControlling
003d890e g     F .text	00000092 Retry_CopybackGetDmaInfor
003d8b44 g     F .text	0000006e Retry_ReadDMA
00412238 g     O .bss	00000080 aDebugInfoBuffer
0041006c g     O .bss	00000018 bpCQFIFODeep
003e47d4 g     O .rodata	00000078 LPS_STATE
003e1670 g     F .text	00000052 FA_Reset
003db36a g     F .text	00000010 HAL_NFSetFeature
00412814 g     O .bss	00000354 tUdpFdl
00411760  w      .data	00000000 _SDA_BASE_
00412ea8 g     O .bss	0000001c tPrivCMD
0040c800 g     O .fsm_hwd2h	00000420 arrunHWD2HFS
003daa4c g     F .text	00000016 HAL_CQCheckHoldOnly
003dd898 g     F .text	00000098 FTL_NCQWrite
003dc718 g     F .text	00000036 UART_SendMsg
003db92a g     F .text	000000a4 HAL_LED_Config
004100a6 g     O .bss	00000001 IsHeating
003dcab8  w    F .text	00000008 VEP54_ISR
003dcab8  w    F .text	00000008 VEP13_ISR
003dc292 g     F .text	0000000e GIE_DISABLE
00412e28 g     O .bss	00000020 Offline_OperationCntList
003dcab8  w    F .text	00000008 VEP19_ISR
003dcab8  w    F .text	00000008 VEP31_ISR
003d9456 g     F .text	0000002e FDL_ReadRetry
003d85ba g     F .text	0000008a Fdl_MCUMultiPlnReadCmd
003dcab8  w    F .text	00000008 VEP21_ISR
003dcab8  w    F .text	00000008 HW0_ISR
003dcab8  w    F .text	00000008 VEP42_ISR
0040bc00 g     O .scsicmdhead	00000200 tScsiCmdHead
003db830 g     F .text	00000026 HAL_MCU_SendThreeAddr
00410038 g     O .sbss_w	00000008 g_tPendingCmdList
003edd60 g     O .rodata	00000004 code_name
003da830 g     F .text	0000000c HAL_CQWaitDone
003edd38 g     O .rodata	00000028 bScanVersion
003e182e g     F .text	00000066 HAL_ReadPage_WithNoDataOut
00410034 g     O .sbss_w	00000004 dResultBuff
003dac4e g     F .text	00000030 HAL_CQSetUd
003e70fc g     O .rodata	000004b0 dHAL_Mtx_10_P1
003dcab8  w    F .text	00000008 VEP61_ISR
003dbcfc g     F .text	0000005c DSATA_RegisteInterfaceInfo
003dcb98 g     F .text	00000014 Tlb_exception_handler
0040d020 g     O .satadc	00000490 tSataDC
004100c0 g     O .bss	00000010 bStateMachine
00001000 g       *ABS*	00000000 _stack_size
003e7fcc g     O .rodata	00000220 dHAL_Mtx_9_A
004100d0 g     O .bss	00000100 tRetryCtrl
003db44a g     F .text	0000003c HAL_NFGetExtFeature
003db8da g     F .text	0000003a HAL_MCU_GetOwnership
003defde g     F .text	0000006c FA_ReadUID
003dae00 g     F .text	0000001a HAL_McuSendWRPulse
003dcab8  w    F .text	00000008 VEP62_ISR
003dbd58 g     F .text	00000016 DSATA_TransferStart
003dc334 g     F .text	0000000c g0_disable
003e1c1a g     F .text	00000038 FA_TMPSensorReadSDA
00410096 g     O .bss	00000001 Offline_PE_Stage_counter
0041009d g     O .bss	00000001 IsUpdating
003dcab8  w    F .text	00000008 VEP48_ISR
0041001e g     O .data	00000002 LinearPeriod
003db442 g     F .text	00000008 HAL_NFGetFeature
003e26b8 g     F .text	00000168 FA_GPIOCTRL
004100a2 g     O .bss	00000001 IsFanOn
003dcbac  w    F .text	000000ce error_exception_handler
003d8644 g     F .text	0000008a Fdl_MCUReadCmd
003e484c g     O .rodata	0000012c TRSP_TYPE
003dc500 g     F .text	0000002e delay_us
00410028 g     O .sbss_w	00000004 bPhyToLogChan
003d9e8e g     F .text	0000002e FDL_FlashWPCtrl
003dcab8  w    F .text	00000008 VEP52_ISR
003dcab8  w    F .text	00000008 VEP11_ISR
00410068 g     O .bss	00000001 bG_OffsetStep
003dab76 g     F .text	0000007a HAL_CQStartDMA2Write
003dbd92 g     F .text	0000002a Wait4_Ftl2SataTaskDone
003e2620 g     F .text	0000004c FA_GPIOCTRL_MODE
003da90c g     F .text	0000001e HAL_CQSendRowAddr_4Byte
003e1be4 g     F .text	00000036 FA_TMPSensorStop
00000000  w      .nds32_init	00000000 _RELAX_END_
003e58cc g     O .rodata	00000c80 dHAL_Mtx_10_B
00410020 g       .sbss_b	00000000 __bss_start
003da510 g     F .text	000002ee HAL_SystemInit
003ec0ec g     O .rodata	00000260 dHAL_Mtx_5_A
003e2e40 g     F .text	00000044 memset
003e1c52 g     F .text	00000086 FA_TMPSensorWriteByte
003dcab8  w    F .text	00000008 VEP51_ISR
003dcab8  w    F .text	00000008 VEP10_ISR
003e41c4 g     O .rodata	00000006 HAL_LDPCModeList
003dde96 g     F .text	0000002e HAL_Delay_ms
003e2d28 g     F .text	000000ae main
003dc52e g     F .text	0000002e delay_ms
003da9ae g     F .text	00000014 HAL_CQSendFlashCmd
003dbdbc g     F .text	000000d0 NCQ_CmdReorderQueue
003d80a4 g       *ABS*	00000000 __init_lmaend
003dcc7e g     F .text	0000007c TaskQueuedSqueHandle
00412b68 g     O .bss	00000100 tHalFCReg
003d8000 g       *ABS*	00000000 __G3_VECTOR_ADDR
003dc776 g     F .text	00000012 U08MemCopy
004100a8 g     O .bss	00000001 SysCallCounter
00412e48 g     O .bss	00000060 NANDFlash
003e97fc g     O .rodata	00000220 dHAL_Mtx_8_A
003dcab8  w    F .text	00000008 VEP38_ISR
003e2326 g     F .text	0000012a FA_PE_offline
003dcab8  w    F .text	00000008 HW25_ISR
00410dc8 g     O .bss	00001320 tChTaskQueue
003dfa9e g     F .text	00000028 Get_Page_Retry_Error
003da976 g     F .text	00000038 HAL_CQSendRndAddr
00410093 g     O .bss	00000001 Offline_Chip
0040d4b0 g     O .scsictrl	00000030 tScsiCtl
003dd98c g     F .text	00000140 FTL_NCQRead
003dcab8  w    F .text	00000008 HW3_ISR
003d829a g     F .text	00000174 FDL_FCCQIRQHandler
0040d000 g     O .fsm	00000020 unFsmBuff
003de4d8 g     F .text	00000008 FA_WritePage
003e19de g     F .text	00000012 FA_OpenSocketFan
003dcab8  w    F .text	00000008 HW18_ISR
003eb02c g     O .rodata	00000920 dHAL_Mtx_7_P2
003da2be g     F .text	00000010 HAL_MCWaitDMA1Done
003dbb40 g     F .text	00000072 DMAC_DMA1WaitDone
003dbe8c g     F .text	00000020 NCQ_GetQueueLen
003da92a g     F .text	00000026 HAL_CQSend5Addr
003dcab8  w    F .text	00000008 VEP40_ISR
003ded94 g     F .text	0000006e FA_SetFeature
003d843c g     F .text	0000000c HW15_ISR
003dc11e g     F .text	00000068 PRINT_DEC
003da9c2 g     F .text	00000020 HAL_CQCfgLogicNum
003dbce0 g     F .text	0000001c DSATA_UpdateSystemClockInfo
003e1562 g     F .text	00000092 FA_SetParamter
003dcab8  w    F .text	00000008 HW21_ISR
003e196e g     F .text	00000070 FA_SocketSetTemperature
004100b8 g     O .bss	00000004 _NDS32_REENT__errno
003de810 g     F .text	0000006c FA_ReadParameterPage
003dc55c g     F .text	000000f8 SystemInit
003db40c g     F .text	00000036 HAL_McuGetFeature
003da810 g     F .text	00000020 HAL_CQWaitIdleSpace
003d87ea g     F .text	0000004a Retry_AnalyzeExceptionInfo
003e46e8 g     O .rodata	00000020 dRDCmdHead
003dee02 g     F .text	00000044 FA_GetFeature
00410094 g     O .bss	00000001 Offline_Chan
003dcab8  w    F .text	00000008 VEP33_ISR
003dc020 g     F .text	0000000c printch
003e2450 g     F .text	000000ca FA_OfflineTaskInterrupt
003dc060 g     F .text	00000032 printhex
003dcab8  w    F .text	00000008 HW22_ISR
003dcab8  w    F .text	00000008 VEP28_ISR
003dcab8  w    F .text	00000008 VEP60_ISR
003dadbc g     F .text	00000012 HAL_McuSetMask
003dfbb0 g     F .text	00000110 SetOffsetForFindOV
003dbbe4 g     F .text	000000fc DMAC_DMA1Start
003dcab8  w    F .text	00000008 VEP2_ISR
003dd2ba g     F .text	0000006c FDL_Test_MptoolUDPFlashOperParam
003dcd7e g     F .text	0000002e DummyLgRdWrCtrl
003e1a54 g     F .text	00000012 FA_OpenSocketHeater
003dbf56 g     F .text	000000ca NCQ_QueueMulPop
004100b5 g     O .bss	00000001 flag_PE_offline
003e2b38 g     F .text	0000000c LinkChangeHandle
003da1fa g     F .text	0000006a HAL_ADMStartDMA1
003dc1ee g     F .text	00000020 stringformat
003db246 g     F .text	000000ca HAL_MCUSendNByteDataByDqs
003dcab8  w    F .text	00000008 VEP46_ISR
003e1a04 g     F .text	00000050 FA_SocketFanSwitch
003db9ce g     F .text	00000002 HAL_PMCPInit
003d9756 g     F .text	00000146 TaskErgodicReadWrite
003df2a4 g     F .text	00000290 FA_COPYBACKWrite
003da408 g     F .text	0000001c HAL_BFCGetBuffStatus
003db7a8 g     F .text	00000018 HAL_MCUSetGieState
003e1772 g     F .text	000000bc FA_CheckBlkData
003db486 g     F .text	00000108 HAL_MCUSendDataByDqs_GAI
004101d0 g     O .bss	00000010 bBestOption
003dc74e g     F .text	0000000c Delay
0041008c g     O .bss	00000001 Offline_RSBlkCnt
003d92c2 g     F .text	00000052 Retry_FailRcdType
003dcab8  w    F .text	00000008 SW0_ISR
003dce4c g     F .text	00000010 FTL_NCQCmdHandle
003dcab8  w    F .text	00000008 VEP6_ISR
003d86ce g     F .text	0000003c Fdl_MCUSendPreReadCmd
003dcab8  w    F .text	00000008 HW13_ISR
003dcab8  w    F .text	00000008 VEP34_ISR
0041008e g     O .bss	00000001 Offline_RBMode
003dcab8  w    F .text	00000008 VEP58_ISR
003dcab8  w    F .text	00000008 VEP17_ISR
003ddad6 g     F .text	00000040 LgRdWrCtrl
003d9484 g     F .text	00000200 FDL_RetryRecordFailInfor
004101e0 g     O .bss	00000010 bClstExcpInfo
003e16c2 g     F .text	000000b0 FA_CheckBlkData_ReadData
00412c68 g     O .bss	0000004c tFdlParam
003dcab8  w    F .text	00000008 VEP1_ISR
003dcab8  w    F .text	00000008 VEP57_ISR
003dcab8  w    F .text	00000008 VEP16_ISR
003dd6a6 g     F .text	0000002a FDL_CMD_C0_FDLInit
003d9684 g     F .text	000000d2 ChanTaskErgodic
003d8768 g     F .text	00000012 Retry_SaveTaskException
003d9968 g     F .text	00000368 TaskConvertWritePageToFlash
003d9dd0 g     F .text	000000be FDL_Init
003da8ca g     F .text	00000014 HAL_CQSendAddr
003d80a4 g     F .text	000000c8 Fdl_ConvertAddrInfo
003edea0 g       *ABS*	00000000 __data_lmastart
000000a4 g       *ABS*	00000000 LOAD_AREA1_SIZE
004120e8 g     O .bss	00000138 tFtlTask
00410020 g       .sbss_b	00000000 _edata
003d8454 g     F .text	0000000c HW17_ISR
003dc2d4 g     F .text	00000004 __restore_sda_base
003dbac4 g     F .text	00000052 HAL_PMCPMemorySet_Cfg
003de01c g     F .text	0000005c FA_RecordRB
00412ec4 g       .bss	00000000 _end
003ddfcc g     F .text	0000002e RS_Report
003ddacc g     F .text	0000000a FTL_LogWrite
003e1b9e g     F .text	00000046 FA_TMPSensorStart
003dc042 g     F .text	0000001e printdec
004100a0 g     O .bss	00000002 CurTempSensor1
003d8478 g     F .text	0000000c HW8_ISR
003dcab8  w    F .text	00000008 VEP59_ISR
003dcab8  w    F .text	00000008 VEP18_ISR
004101f0 g     O .bss	00000ac4 tRetryInfor
003e1894 g     F .text	0000003e ReadPage_WithNoDataOut
003d8460 g     F .text	0000000c HW6_ISR
003da098 g     F .text	0000006a FDL_CreateTask
0040c600 g     O .prdtable	00000200 tPrdTbls
003dcac0 g     F .text	00000026 __c_init
003dd6d0 g     F .text	0000019a FDL_Test_CheckDevice
003df04a g     F .text	00000158 FA_NCQReadData
0041008a g     O .bss	00000002 Offline_RSRecIndex
0041008f g     O .bss	00000001 Offline_Program_StartSeed
00410090 g     O .bss	00000001 Offline_OperationStage
003dccfa g     F .text	00000084 FTL_NCQNewCmdInQuire
003dc20e g     F .text	0000007a PRINT
003dcb84  w    F .text	00000014 syscall_handler
003d8834 g     F .text	000000da Retry_ReadGetDmaInfor
003dd930 g     F .text	0000005c FA_ADMInit
003e41b8 g     O .rodata	0000000c HAL_LDPCParityLen
003dcab8  w    F .text	00000008 HW19_ISR
003d84cc g     F .text	000000ee HW20_ISR
003dcab8  w    F .text	00000008 HW27_ISR
003dcab8  w    F .text	00000008 VEP5_ISR
004100b4 g     O .bss	00000001 flag_ReadDisturb_offline
003dc46a g     F .text	00000016 NVIC_ClearPendingIRQ
003dcab8  w    F .text	00000008 VEP39_ISR
003df1a2 g     F .text	00000102 FA_SetOffset
003dcc7c g     F .text	00000002 __soc_init
003e2e84 g     F .text	0000000c strlen
0040d4e0 g     O .tqc	0000042c tTQC
003d989c g     F .text	0000002c RunFtlTaskErgodic
00420000 g       *ABS*	00000000 _stack
003da506 g     F .text	0000000a HAL_CPMGetTrx2Period
003dce5c g     F .text	000001ca FDL_Test_SetHwTempVar
003dac12 g     F .text	0000001e HAL_CQSetUdAttachSize
003e3b94 g     F .text	00000008 abs
003dcbac g     F .text	000000ce SysError_IRQHandler
003df534 g     F .text	00000144 FA_ReadDisturb
00410000 g       .data	00000000 __data_start
003da9e2 g     F .text	00000020 HAL_CQCfgLogicNumExt
003dcab8  w    F .text	00000008 VEP30_ISR
003dcdac g     F .text	000000a0 DummyRW_Process
003dc2be g     F .text	00000008 __disbale_performance
003dcab8  w    F .text	00000008 VEP41_ISR
003dd326 g     F .text	00000298 FDL_Test_MptoolUDPFlashParam
003dcc7a g     F .text	00000002 _nds32_init_mem
003d81f0 g     F .text	000000a8 Fdl_SearchOfstByAddr
003e3ddc g     O .rodata	00000002 PAGE_STAT_PRO_FAIL_IN_PLN
00412220 g     O .bss	00000018 gHalVar
0041001c g     O .data	00000002 SlowStartThreshold
003e2820 g     F .text	00000080 GetRomData
003ebdcc g     O .rodata	00000320 dHAL_Mtx_5_B
003d9356 g     F .text	00000100 Retry_RestartCQ
003dacbe g     F .text	000000a4 HAL_CQStartDMA2
003d8298 g     F .text	00000002 ExceptionWritePageToFlash
003d9cd0 g     F .text	00000038 Fdl_GetWriteFailInfor
003dbbb2 g     F .text	00000032 WaitBuffStatusClr
00410cb4 g     O .bss	00000034 tRetryVar
00410092 g     O .bss	00000001 Offline_OperationMode
003ddeee g     F .text	00000012 RS_Indx_Increase
003ddb30 g     F .text	00000010 FTL_WriteFail
003dcab8  w    F .text	00000008 HW29_ISR
003e14ec g     F .text	00000076 FA_SetExtendedFA
0041002c g     O .sbss_w	00000004 bPhyCeToLogLun
003e18d2 g     F .text	0000009c FA_HighTempSocketInit
003daa62 g     F .text	00000036 HAL_CQCheckIOStatus
003dba7a g     F .text	0000004a HAL_PMCPBitMapCountExtFilter



Disassembly of section .nds32_init:

00000000 <_RELAX_END_>:
   0:	48 1e e5 3e 	j 3dca7c <_start>
   4:	48 1e e4 08 	j 3dc814 <OS_Trap_TLB_Fill>
   8:	48 1e e4 09 	j 3dc81a <OS_Trap_PTE_Not_Present>
   c:	48 1e e4 0a 	j 3dc820 <OS_Trap_TLB_Misc>
  10:	48 1e e4 0b 	j 3dc826 <OS_Trap_TLB_VLPT_Miss>
  14:	48 1e e4 0c 	j 3dc82c <OS_Trap_Machine_Error>
  18:	48 1e e4 0d 	j 3dc832 <OS_Trap_Debug_Related>
  1c:	48 1e e4 0e 	j 3dc838 <OS_Trap_General_Exception>
  20:	48 1e e4 3b 	j 3dc896 <OS_Trap_Syscall>
  24:	48 1e e4 a4 	j 3dc96c <OS_Trap_Interrupt_HW0>
  28:	48 1e e4 a6 	j 3dc974 <OS_Trap_Interrupt_HW1>
  2c:	48 1e e4 a8 	j 3dc97c <OS_Trap_Interrupt_HW2>
  30:	48 1e e4 aa 	j 3dc984 <OS_Trap_Interrupt_HW3>
  34:	48 1e e4 ac 	j 3dc98c <OS_Trap_Interrupt_HW4>
  38:	48 1e e4 ae 	j 3dc994 <OS_Trap_Interrupt_HW5>
  3c:	48 1e e4 b0 	j 3dc99c <OS_Trap_Interrupt_HW6>
  40:	48 1e e4 b2 	j 3dc9a4 <OS_Trap_Interrupt_HW7>
  44:	48 1e e4 b4 	j 3dc9ac <OS_Trap_Interrupt_HW8>
  48:	48 1e e4 b6 	j 3dc9b4 <OS_Trap_Interrupt_HW9>
  4c:	48 1e e4 b8 	j 3dc9bc <OS_Trap_Interrupt_HW10>
  50:	48 1e e4 ba 	j 3dc9c4 <OS_Trap_Interrupt_HW11>
  54:	48 1e e4 bc 	j 3dc9cc <OS_Trap_Interrupt_HW12>
  58:	48 1e e4 be 	j 3dc9d4 <OS_Trap_Interrupt_HW13>
  5c:	48 1e e4 c0 	j 3dc9dc <OS_Trap_Interrupt_HW14>
  60:	48 1e e4 c2 	j 3dc9e4 <OS_Trap_Interrupt_HW15>
  64:	48 1e e4 c5 	j 3dc9ee <OS_Trap_Interrupt_HW16>
  68:	48 1e e4 c8 	j 3dc9f8 <OS_Trap_Interrupt_HW17>
  6c:	48 1e e4 cb 	j 3dca02 <OS_Trap_Interrupt_HW18>
  70:	48 1e e4 ce 	j 3dca0c <OS_Trap_Interrupt_HW19>
  74:	48 1e e4 d1 	j 3dca16 <OS_Trap_Interrupt_HW20>
  78:	48 1e e4 d4 	j 3dca20 <OS_Trap_Interrupt_HW21>
  7c:	48 1e e4 d7 	j 3dca2a <OS_Trap_Interrupt_HW22>
  80:	48 1e e4 da 	j 3dca34 <OS_Trap_Interrupt_HW23>
  84:	48 1e e4 dd 	j 3dca3e <OS_Trap_Interrupt_HW24>
  88:	48 1e e4 e0 	j 3dca48 <OS_Trap_Interrupt_HW25>
  8c:	48 1e e4 e3 	j 3dca52 <OS_Trap_Interrupt_HW26>
  90:	48 1e e4 e6 	j 3dca5c <OS_Trap_Interrupt_HW27>
  94:	48 1e e4 e9 	j 3dca66 <OS_Trap_Interrupt_HW28>
  98:	48 1e e4 ec 	j 3dca70 <OS_Trap_Interrupt_HW29>
  9c:	48 1e e4 67 	j 3dc96a <OS_Trap_Interrupt_UNDEF>
  a0:	48 1e e4 65 	j 3dc96a <OS_Trap_Interrupt_UNDEF>

Disassembly of section .text:

003d80a4 <Fdl_ConvertAddrInfo>:
  3d80a4:	3c 3d fd 62 	lwi.gp $r3,[+#-2680]
  3d80a8:	5a 28 01 1e 	bnec $r2,#0x1,3d80e4 <Fdl_ConvertAddrInfo+0x40>
  3d80ac:	a6 88       	lbi333 $r2,[$r1+#0x0]
  3d80ae:	88 43       	add45 $r2,$r3
  3d80b0:	00 21 02 44 	lbi $r2,[$r2+#0x244]
  3d80b4:	ae 86       	sbi333 $r2,[$r0+#0x6]
  3d80b6:	a7 09       	lbi333 $r4,[$r1+#0x1]
  3d80b8:	94 94       	slli333 $r2,$r2,#0x4
  3d80ba:	88 43       	add45 $r2,$r3
  3d80bc:	88 82       	add45 $r4,$r2
  3d80be:	00 42 02 58 	lbi $r4,[$r4+#0x258]
  3d80c2:	af 07       	sbi333 $r4,[$r0+#0x7]
  3d80c4:	a7 09       	lbi333 $r4,[$r1+#0x1]
  3d80c6:	88 44       	add45 $r2,$r4
  3d80c8:	00 21 02 98 	lbi $r2,[$r2+#0x298]
  3d80cc:	10 20 00 08 	sbi $r2,[$r0+#0x8]
  3d80d0:	a5 49       	lhi333 $r5,[$r1+#0x2]
  3d80d2:	02 11 80 cc 	lhi $r1,[$r3+#0x198]
  3d80d6:	04 41 80 68 	lwi $r4,[$r3+#0x1a0]
  3d80da:	fe 6c       	mul33 $r1,$r5
  3d80dc:	42 11 10 73 	maddr32 $r1,$r2,$r4
  3d80e0:	b6 20       	swi450 $r1,[$r0]
  3d80e2:	dd 9e       	ret5 $lp
  3d80e4:	a6 89       	lbi333 $r2,[$r1+#0x1]
  3d80e6:	88 43       	add45 $r2,$r3
  3d80e8:	00 21 02 44 	lbi $r2,[$r2+#0x244]
  3d80ec:	ae 86       	sbi333 $r2,[$r0+#0x6]
  3d80ee:	a7 0a       	lbi333 $r4,[$r1+#0x2]
  3d80f0:	94 94       	slli333 $r2,$r2,#0x4
  3d80f2:	88 43       	add45 $r2,$r3
  3d80f4:	88 82       	add45 $r4,$r2
  3d80f6:	00 42 02 58 	lbi $r4,[$r4+#0x258]
  3d80fa:	af 07       	sbi333 $r4,[$r0+#0x7]
  3d80fc:	a7 0a       	lbi333 $r4,[$r1+#0x2]
  3d80fe:	88 44       	add45 $r2,$r4
  3d8100:	00 41 02 98 	lbi $r4,[$r2+#0x298]
  3d8104:	10 40 00 08 	sbi $r4,[$r0+#0x8]
  3d8108:	04 51 80 68 	lwi $r5,[$r3+#0x1a0]
  3d810c:	a0 89       	lwi333 $r2,[$r1+#0x4]
  3d810e:	42 22 14 73 	maddr32 $r2,$r4,$r5
  3d8112:	b6 40       	swi450 $r2,[$r0]
  3d8114:	a6 88       	lbi333 $r2,[$r1+#0x0]
  3d8116:	a6 4b       	lbi333 $r1,[$r1+#0x3]
  3d8118:	5a 28 01 15 	bnec $r2,#0x1,3d8142 <Fdl_ConvertAddrInfo+0x9e>
  3d811c:	00 21 81 af 	lbi $r2,[$r3+#0x1af]
  3d8120:	fe 54       	mul33 $r1,$r2
  3d8122:	50 10 81 00 	addi $r1,$r1,#0x100
  3d8126:	38 11 85 01 	lh $r1,[$r3+($r1<<#0x1)]
  3d812a:	ac 42       	shi333 $r1,[$r0+#0x4]
  3d812c:	00 11 81 b9 	lbi $r1,[$r3+#0x1b9]
  3d8130:	10 10 00 09 	sbi $r1,[$r0+#0x9]
  3d8134:	00 11 81 a9 	lbi $r1,[$r3+#0x1a9]
  3d8138:	10 10 00 0a 	sbi $r1,[$r0+#0xa]
  3d813c:	00 11 81 ab 	lbi $r1,[$r3+#0x1ab]
  3d8140:	d5 13       	j8 3d8166 <Fdl_ConvertAddrInfo+0xc2>
  3d8142:	00 21 81 ae 	lbi $r2,[$r3+#0x1ae]
  3d8146:	fe 54       	mul33 $r1,$r2
  3d8148:	50 10 80 e0 	addi $r1,$r1,#0xe0
  3d814c:	38 11 85 01 	lh $r1,[$r3+($r1<<#0x1)]
  3d8150:	ac 42       	shi333 $r1,[$r0+#0x4]
  3d8152:	00 11 81 b8 	lbi $r1,[$r3+#0x1b8]
  3d8156:	10 10 00 09 	sbi $r1,[$r0+#0x9]
  3d815a:	00 11 81 a8 	lbi $r1,[$r3+#0x1a8]
  3d815e:	10 10 00 0a 	sbi $r1,[$r0+#0xa]
  3d8162:	00 11 81 aa 	lbi $r1,[$r3+#0x1aa]
  3d8166:	10 10 00 0b 	sbi $r1,[$r0+#0xb]
  3d816a:	dd 9e       	ret5 $lp

003d816c <Fdl_ConvertColAddr>:
  3d816c:	3c 2d fd 62 	lwi.gp $r2,[+#-2680]
  3d8170:	5a 08 01 09 	bnec $r0,#0x1,3d8182 <Fdl_ConvertColAddr+0x16>
  3d8174:	00 01 01 ac 	lbi $r0,[$r2+#0x1ac]
  3d8178:	40 10 80 37 	divr $r1,$r1,$r1,$r0
  3d817c:	50 10 81 00 	addi $r1,$r1,#0x100
  3d8180:	d5 07       	j8 3d818e <Fdl_ConvertColAddr+0x22>
  3d8182:	00 01 01 ac 	lbi $r0,[$r2+#0x1ac]
  3d8186:	40 10 80 37 	divr $r1,$r1,$r1,$r0
  3d818a:	50 10 80 e0 	addi $r1,$r1,#0xe0
  3d818e:	38 01 05 01 	lh $r0,[$r2+($r1<<#0x1)]
  3d8192:	dd 9e       	ret5 $lp

003d8194 <Fdl_ClearExceptionState>:
  3d8194:	fc 00       	push25 $r6,#0    ! {$r6, $fp, $gp, $lp}
  3d8196:	84 21       	movi55 $r1,#0x1
  3d8198:	80 c0       	mov55 $r6,$r0
  3d819a:	49 00 1a 29 	jal 3db5ec <HAL_NFGetOrClrChkStsHwFlag>
  3d819e:	3e 0d 24 a0 	addi.gp $r0,#-187232
  3d81a2:	38 10 1a 02 	lw $r1,[$r0+($r6<<#0x2)]
  3d81a6:	84 00       	movi55 $r0,#0x0
  3d81a8:	a8 0d       	swi333 $r0,[$r1+#0x14]
  3d81aa:	64 00 00 08 	dsb
  3d81ae:	3e 0d 24 90 	addi.gp $r0,#-187248
  3d81b2:	84 5e       	movi55 $r2,#-2
  3d81b4:	38 00 1a 02 	lw $r0,[$r0+($r6<<#0x2)]
  3d81b8:	83 80       	mov55 $fp,$r0
  3d81ba:	bb 24       	lwi37 $r3,[$fp+#0x90]
  3d81bc:	fe 9e       	and33 $r2,$r3
  3d81be:	ba a4       	swi37 $r2,[$fp+#0x90]
  3d81c0:	64 00 00 08 	dsb
  3d81c4:	bb 24       	lwi37 $r3,[$fp+#0x90]
  3d81c6:	44 2f ff df 	movi $r2,#-33
  3d81ca:	fe 9e       	and33 $r2,$r3
  3d81cc:	ba a4       	swi37 $r2,[$fp+#0x90]
  3d81ce:	64 00 00 08 	dsb
  3d81d2:	a0 8d       	lwi333 $r2,[$r1+#0x14]
  3d81d4:	44 0f bf ff 	movi $r0,#-16385
  3d81d8:	fe 16       	and33 $r0,$r2
  3d81da:	a8 0d       	swi333 $r0,[$r1+#0x14]
  3d81dc:	64 00 00 08 	dsb
  3d81e0:	a0 8d       	lwi333 $r2,[$r1+#0x14]
  3d81e2:	44 0f fb ff 	movi $r0,#-1025
  3d81e6:	fe 16       	and33 $r0,$r2
  3d81e8:	a8 0d       	swi333 $r0,[$r1+#0x14]
  3d81ea:	64 00 00 08 	dsb
  3d81ee:	fc 80       	pop25 $r6,#0    ! {$r6, $fp, $gp, $lp}

003d81f0 <Fdl_SearchOfstByAddr>:
  3d81f0:	fc 40       	push25 $r10,#0    ! {$r6~$r10, $fp, $gp, $lp}
  3d81f2:	95 9b       	slli333 $r6,$r3,#0x3
  3d81f4:	3c 5c 02 6c 	lwi.gp $r5,[+#0x9b0]
  3d81f8:	88 c5       	add45 $r6,$r5
  3d81fa:	3c 9d fd 62 	lwi.gp $r9,[+#-2680]
  3d81fe:	a7 71       	lbi333 $r5,[$r6+#0x1]
  3d8200:	88 a9       	add45 $r5,$r9
  3d8202:	00 52 82 44 	lbi $r5,[$r5+#0x244]
  3d8206:	cc 0f       	bnez38 $r4,3d8224 <Fdl_SearchOfstByAddr+0x34>
  3d8208:	d0 46       	beqs38 $r0,3d8294 <Fdl_SearchOfstByAddr+0xa4>
  3d820a:	a7 72       	lbi333 $r5,[$r6+#0x2]
  3d820c:	d1 44       	beqs38 $r1,3d8294 <Fdl_SearchOfstByAddr+0xa4>
  3d820e:	a1 71       	lwi333 $r5,[$r6+#0x4]
  3d8210:	d2 42       	beqs38 $r2,3d8294 <Fdl_SearchOfstByAddr+0xa4>
  3d8212:	c3 3f       	beqz38 $r3,3d8290 <Fdl_SearchOfstByAddr+0xa0>
  3d8214:	8e c8       	subi45 $r6,#0x8
  3d8216:	a7 31       	lbi333 $r4,[$r6+#0x1]
  3d8218:	8e 61       	subi45 $r3,#0x1
  3d821a:	88 89       	add45 $r4,$r9
  3d821c:	96 d9       	zeh33 $r3,$r3
  3d821e:	00 52 02 44 	lbi $r5,[$r4+#0x244]
  3d8222:	d5 f3       	j8 3d8208 <Fdl_SearchOfstByAddr+0x18>
  3d8224:	5a 48 02 0f 	bnec $r4,#0x2,3d8242 <Fdl_SearchOfstByAddr+0x52>
  3d8228:	d0 0a       	beqs38 $r0,3d823c <Fdl_SearchOfstByAddr+0x4c>
  3d822a:	c3 33       	beqz38 $r3,3d8290 <Fdl_SearchOfstByAddr+0xa0>
  3d822c:	8e c8       	subi45 $r6,#0x8
  3d822e:	a6 b1       	lbi333 $r2,[$r6+#0x1]
  3d8230:	8e 61       	subi45 $r3,#0x1
  3d8232:	88 49       	add45 $r2,$r9
  3d8234:	96 d9       	zeh33 $r3,$r3
  3d8236:	00 51 02 44 	lbi $r5,[$r2+#0x244]
  3d823a:	d5 f7       	j8 3d8228 <Fdl_SearchOfstByAddr+0x38>
  3d823c:	a7 72       	lbi333 $r5,[$r6+#0x2]
  3d823e:	d9 f6       	bnes38 $r1,3d822a <Fdl_SearchOfstByAddr+0x3a>
  3d8240:	d5 2a       	j8 3d8294 <Fdl_SearchOfstByAddr+0xa4>
  3d8242:	5a 48 01 13 	bnec $r4,#0x1,3d8268 <Fdl_SearchOfstByAddr+0x78>
  3d8246:	d0 27       	beqs38 $r0,3d8294 <Fdl_SearchOfstByAddr+0xa4>
  3d8248:	a7 72       	lbi333 $r5,[$r6+#0x2]
  3d824a:	d1 25       	beqs38 $r1,3d8294 <Fdl_SearchOfstByAddr+0xa4>
  3d824c:	a1 71       	lwi333 $r5,[$r6+#0x4]
  3d824e:	d2 23       	beqs38 $r2,3d8294 <Fdl_SearchOfstByAddr+0xa4>
  3d8250:	3c 4c 02 66 	lwi.gp $r4,[+#0x998]
  3d8254:	4c 32 00 1e 	beq $r3,$r4,3d8290 <Fdl_SearchOfstByAddr+0xa0>
  3d8258:	8c c8       	addi45 $r6,#0x8
  3d825a:	a7 31       	lbi333 $r4,[$r6+#0x1]
  3d825c:	8c 61       	addi45 $r3,#0x1
  3d825e:	88 89       	add45 $r4,$r9
  3d8260:	96 d9       	zeh33 $r3,$r3
  3d8262:	00 52 02 44 	lbi $r5,[$r4+#0x244]
  3d8266:	d5 f0       	j8 3d8246 <Fdl_SearchOfstByAddr+0x56>
  3d8268:	5a 48 03 16 	bnec $r4,#0x3,3d8294 <Fdl_SearchOfstByAddr+0xa4>
  3d826c:	4c 02 80 0f 	beq $r0,$r5,3d828a <Fdl_SearchOfstByAddr+0x9a>
  3d8270:	3c 2c 02 66 	lwi.gp $r2,[+#0x998]
  3d8274:	8e 41       	subi45 $r2,#0x1
  3d8276:	4c 31 00 0d 	beq $r3,$r2,3d8290 <Fdl_SearchOfstByAddr+0xa0>
  3d827a:	8c c8       	addi45 $r6,#0x8
  3d827c:	a6 b1       	lbi333 $r2,[$r6+#0x1]
  3d827e:	8c 61       	addi45 $r3,#0x1
  3d8280:	88 49       	add45 $r2,$r9
  3d8282:	96 d9       	zeh33 $r3,$r3
  3d8284:	00 51 02 44 	lbi $r5,[$r2+#0x244]
  3d8288:	d5 f2       	j8 3d826c <Fdl_SearchOfstByAddr+0x7c>
  3d828a:	a7 72       	lbi333 $r5,[$r6+#0x2]
  3d828c:	d9 f2       	bnes38 $r1,3d8270 <Fdl_SearchOfstByAddr+0x80>
  3d828e:	d5 03       	j8 3d8294 <Fdl_SearchOfstByAddr+0xa4>
  3d8290:	44 30 ff ff 	movi $r3,#0xffff
  3d8294:	80 03       	mov55 $r0,$r3
  3d8296:	fc c0       	pop25 $r10,#0    ! {$r6~$r10, $fp, $gp, $lp}

003d8298 <ExceptionWritePageToFlash>:
  3d8298:	dd 9e       	ret5 $lp

003d829a <FDL_FCCQIRQHandler>:
  3d829a:	fc 41       	push25 $r10,#8    ! {$r6~$r10, $fp, $gp, $lp}
  3d829c:	80 c0       	mov55 $r6,$r0
  3d829e:	80 01       	mov55 $r0,$r1
  3d82a0:	49 00 20 e5 	jal 3dc46a <NVIC_ClearPendingIRQ>
  3d82a4:	80 06       	mov55 $r0,$r6
  3d82a6:	84 20       	movi55 $r1,#0x0
  3d82a8:	49 00 19 a2 	jal 3db5ec <HAL_NFGetOrClrChkStsHwFlag>
  3d82ac:	3e 9d 25 4c 	addi.gp $r9,#-187060
  3d82b0:	c0 3f       	beqz38 $r0,3d832e <FDL_FCCQIRQHandler+0x94>
  3d82b2:	3c 1c 02 63 	lwi.gp $r1,[+#0x98c]
  3d82b6:	5a 18 01 13 	bnec $r1,#0x1,3d82dc <FDL_FCCQIRQHandler+0x42>
  3d82ba:	38 04 9a 02 	lw $r0,[$r9+($r6<<#0x2)]
  3d82be:	04 10 00 32 	lwi $r1,[$r0+#0xc8]
  3d82c2:	3e 0d 24 b0 	addi.gp $r0,#-187216
  3d82c6:	49 00 1f 60 	jal 3dc186 <PRINT_HEX>
  3d82ca:	80 26       	mov55 $r1,$r6
  3d82cc:	3e 0d 24 c4 	addi.gp $r0,#-187196
  3d82d0:	49 00 1f 9f 	jal 3dc20e <PRINT>
  3d82d4:	80 06       	mov55 $r0,$r6
  3d82d6:	49 00 0d 4c 	jal 3d9d6e <Fdl_EraseFailHandler>
  3d82da:	d5 1a       	j8 3d830e <FDL_FCCQIRQHandler+0x74>
  3d82dc:	3e 0d 25 5c 	addi.gp $r0,#-187044
  3d82e0:	38 00 1a 02 	lw $r0,[$r0+($r6<<#0x2)]
  3d82e4:	b4 e0       	lwi450 $r7,[$r0]
  3d82e6:	92 e2       	srli45 $r7,#0x2
  3d82e8:	97 c6       	bmski33 $r7,#0x0
  3d82ea:	cf 12       	bnez38 $r7,3d830e <FDL_FCCQIRQHandler+0x74>
  3d82ec:	84 1b       	movi55 $r0,#-5
  3d82ee:	fe 0e       	and33 $r0,$r1
  3d82f0:	5a 08 02 0f 	bnec $r0,#0x2,3d830e <FDL_FCCQIRQHandler+0x74>
  3d82f4:	3e 0d 24 d4 	addi.gp $r0,#-187180
  3d82f8:	49 00 1e f7 	jal 3dc0e6 <PRINT_TXT>
  3d82fc:	3c ad fd 71 	lwi.gp $r10,[+#-2620]
  3d8300:	80 06       	mov55 $r0,$r6
  3d8302:	49 00 0c e7 	jal 3d9cd0 <Fdl_GetWriteFailInfor>
  3d8306:	f0 81       	swi37.sp $r0,[+#0x4]
  3d8308:	f1 01       	lwi37.sp $r1,[+#0x4]
  3d830a:	80 07       	mov55 $r0,$r7
  3d830c:	dd 2a       	jral5 $r10
  3d830e:	38 04 9a 02 	lw $r0,[$r9+($r6<<#0x2)]
  3d8312:	04 00 00 32 	lwi $r0,[$r0+#0xc8]
  3d8316:	92 01       	srli45 $r0,#0x1
  3d8318:	96 06       	bmski33 $r0,#0x0
  3d831a:	c0 06       	beqz38 $r0,3d8326 <FDL_FCCQIRQHandler+0x8c>
  3d831c:	3e 0f e8 c4 	addi.gp $r0,#-5948
  3d8320:	84 21       	movi55 $r1,#0x1
  3d8322:	38 10 18 08 	sb $r1,[$r0+($r6<<#0x0)]
  3d8326:	80 06       	mov55 $r0,$r6
  3d8328:	84 21       	movi55 $r1,#0x1
  3d832a:	49 00 19 61 	jal 3db5ec <HAL_NFGetOrClrChkStsHwFlag>
  3d832e:	38 74 9a 02 	lw $r7,[$r9+($r6<<#0x2)]
  3d8332:	04 03 80 24 	lwi $r0,[$r7+#0x90]
  3d8336:	92 05       	srli45 $r0,#0x5
  3d8338:	96 06       	bmski33 $r0,#0x0
  3d833a:	c0 28       	beqz38 $r0,3d838a <FDL_FCCQIRQHandler+0xf0>
  3d833c:	3e 0d 24 dc 	addi.gp $r0,#-187172
  3d8340:	80 26       	mov55 $r1,$r6
  3d8342:	49 00 1f 66 	jal 3dc20e <PRINT>
  3d8346:	3c 0c 02 63 	lwi.gp $r0,[+#0x98c]
  3d834a:	5a 00 0b 05 	beqc $r0,#0xb,3d8354 <FDL_FCCQIRQHandler+0xba>
  3d834e:	80 06       	mov55 $r0,$r6
  3d8350:	49 00 08 9a 	jal 3d9484 <FDL_RetryRecordFailInfor>
  3d8354:	3e 0d 25 5c 	addi.gp $r0,#-187044
  3d8358:	84 20       	movi55 $r1,#0x0
  3d835a:	38 00 1a 02 	lw $r0,[$r0+($r6<<#0x2)]
  3d835e:	a8 45       	swi333 $r1,[$r0+#0x14]
  3d8360:	64 00 00 08 	dsb
  3d8364:	83 87       	mov55 $fp,$r7
  3d8366:	ba 24       	lwi37 $r2,[$fp+#0x90]
  3d8368:	84 3e       	movi55 $r1,#-2
  3d836a:	fe 56       	and33 $r1,$r2
  3d836c:	b9 a4       	swi37 $r1,[$fp+#0x90]
  3d836e:	64 00 00 08 	dsb
  3d8372:	ba 24       	lwi37 $r2,[$fp+#0x90]
  3d8374:	44 1f ff df 	movi $r1,#-33
  3d8378:	fe 56       	and33 $r1,$r2
  3d837a:	b9 a4       	swi37 $r1,[$fp+#0x90]
  3d837c:	a0 85       	lwi333 $r2,[$r0+#0x14]
  3d837e:	44 1f bf ff 	movi $r1,#-16385
  3d8382:	fe 56       	and33 $r1,$r2
  3d8384:	a8 45       	swi333 $r1,[$r0+#0x14]
  3d8386:	64 00 00 08 	dsb
  3d838a:	04 03 80 35 	lwi $r0,[$r7+#0xd4]
  3d838e:	92 06       	srli45 $r0,#0x6
  3d8390:	96 06       	bmski33 $r0,#0x0
  3d8392:	5a 08 01 31 	bnec $r0,#0x1,3d83f4 <FDL_FCCQIRQHandler+0x15a>
  3d8396:	46 20 05 ec 	sethi $r2,#0x5ec
  3d839a:	44 1f fd ff 	movi $r1,#-513
  3d839e:	04 01 00 15 	lwi $r0,[$r2+#0x54]
  3d83a2:	fe 0e       	and33 $r0,$r1
  3d83a4:	14 01 00 15 	swi $r0,[$r2+#0x54]
  3d83a8:	04 31 00 37 	lwi $r3,[$r2+#0xdc]
  3d83ac:	44 0f 7f ff 	movi $r0,#-32769
  3d83b0:	fe c6       	and33 $r3,$r0
  3d83b2:	14 31 00 37 	swi $r3,[$r2+#0xdc]
  3d83b6:	04 31 04 15 	lwi $r3,[$r2+#0x1054]
  3d83ba:	fe ce       	and33 $r3,$r1
  3d83bc:	14 31 04 15 	swi $r3,[$r2+#0x1054]
  3d83c0:	04 31 04 37 	lwi $r3,[$r2+#0x10dc]
  3d83c4:	fe c6       	and33 $r3,$r0
  3d83c6:	14 31 04 37 	swi $r3,[$r2+#0x10dc]
  3d83ca:	04 31 08 15 	lwi $r3,[$r2+#0x2054]
  3d83ce:	fe ce       	and33 $r3,$r1
  3d83d0:	14 31 08 15 	swi $r3,[$r2+#0x2054]
  3d83d4:	04 31 08 37 	lwi $r3,[$r2+#0x20dc]
  3d83d8:	fe c6       	and33 $r3,$r0
  3d83da:	14 31 08 37 	swi $r3,[$r2+#0x20dc]
  3d83de:	04 31 0c 15 	lwi $r3,[$r2+#0x3054]
  3d83e2:	fe 5e       	and33 $r1,$r3
  3d83e4:	14 11 0c 15 	swi $r1,[$r2+#0x3054]
  3d83e8:	04 11 0c 37 	lwi $r1,[$r2+#0x30dc]
  3d83ec:	fe 0e       	and33 $r0,$r1
  3d83ee:	14 01 0c 37 	swi $r0,[$r2+#0x30dc]
  3d83f2:	d5 0a       	j8 3d8406 <FDL_FCCQIRQHandler+0x16c>
  3d83f4:	04 03 80 35 	lwi $r0,[$r7+#0xd4]
  3d83f8:	96 06       	bmski33 $r0,#0x0
  3d83fa:	c0 09       	beqz38 $r0,3d840c <FDL_FCCQIRQHandler+0x172>
  3d83fc:	83 87       	mov55 $fp,$r7
  3d83fe:	b9 35       	lwi37 $r1,[$fp+#0xd4]
  3d8400:	84 1e       	movi55 $r0,#-2
  3d8402:	fe 0e       	and33 $r0,$r1
  3d8404:	b8 b5       	swi37 $r0,[$fp+#0xd4]
  3d8406:	84 02       	movi55 $r0,#0x2
  3d8408:	49 00 0a 4a 	jal 3d989c <RunFtlTaskErgodic>
  3d840c:	fc c1       	pop25 $r10,#8    ! {$r6~$r10, $fp, $gp, $lp}

003d840e <FDL_DMAIRQHandler>:
  3d840e:	fc 01       	push25 $r6,#8    ! {$r6, $fp, $gp, $lp}
  3d8410:	80 c0       	mov55 $r6,$r0
  3d8412:	f1 81       	swi37.sp $r1,[+#0x4]
  3d8414:	49 00 0f be 	jal 3da390 <HAL_ADMWaitDMADone>
  3d8418:	3e 1d 25 5c 	addi.gp $r1,#-187044
  3d841c:	38 10 9a 02 	lw $r1,[$r1+($r6<<#0x2)]
  3d8420:	a4 08       	lhi333 $r0,[$r1+#0x0]
  3d8422:	58 00 08 00 	ori $r0,$r0,#0x800
  3d8426:	ac 08       	shi333 $r0,[$r1+#0x0]
  3d8428:	f0 01       	lwi37.sp $r0,[+#0x4]
  3d842a:	49 00 20 20 	jal 3dc46a <NVIC_ClearPendingIRQ>
  3d842e:	fc 81       	pop25 $r6,#8    ! {$r6, $fp, $gp, $lp}

003d8430 <HW14_ISR>:
  3d8430:	fc 00       	push25 $r6,#0    ! {$r6, $fp, $gp, $lp}
  3d8432:	84 00       	movi55 $r0,#0x0
  3d8434:	84 2e       	movi55 $r1,#0xe
  3d8436:	49 ff ff 32 	jal 3d829a <FDL_FCCQIRQHandler>
  3d843a:	fc 80       	pop25 $r6,#0    ! {$r6, $fp, $gp, $lp}

003d843c <HW15_ISR>:
  3d843c:	fc 00       	push25 $r6,#0    ! {$r6, $fp, $gp, $lp}
  3d843e:	84 01       	movi55 $r0,#0x1
  3d8440:	84 2f       	movi55 $r1,#0xf
  3d8442:	49 ff ff 2c 	jal 3d829a <FDL_FCCQIRQHandler>
  3d8446:	fc 80       	pop25 $r6,#0    ! {$r6, $fp, $gp, $lp}

003d8448 <HW16_ISR>:
  3d8448:	fc 00       	push25 $r6,#0    ! {$r6, $fp, $gp, $lp}
  3d844a:	84 02       	movi55 $r0,#0x2
  3d844c:	fa 20       	movpi45 $r1,#0x10
  3d844e:	49 ff ff 26 	jal 3d829a <FDL_FCCQIRQHandler>
  3d8452:	fc 80       	pop25 $r6,#0    ! {$r6, $fp, $gp, $lp}

003d8454 <HW17_ISR>:
  3d8454:	fc 00       	push25 $r6,#0    ! {$r6, $fp, $gp, $lp}
  3d8456:	84 03       	movi55 $r0,#0x3
  3d8458:	fa 21       	movpi45 $r1,#0x11
  3d845a:	49 ff ff 20 	jal 3d829a <FDL_FCCQIRQHandler>
  3d845e:	fc 80       	pop25 $r6,#0    ! {$r6, $fp, $gp, $lp}

003d8460 <HW6_ISR>:
  3d8460:	fc 00       	push25 $r6,#0    ! {$r6, $fp, $gp, $lp}
  3d8462:	84 00       	movi55 $r0,#0x0
  3d8464:	84 26       	movi55 $r1,#0x6
  3d8466:	49 ff ff d4 	jal 3d840e <FDL_DMAIRQHandler>
  3d846a:	fc 80       	pop25 $r6,#0    ! {$r6, $fp, $gp, $lp}

003d846c <HW7_ISR>:
  3d846c:	fc 00       	push25 $r6,#0    ! {$r6, $fp, $gp, $lp}
  3d846e:	84 01       	movi55 $r0,#0x1
  3d8470:	84 27       	movi55 $r1,#0x7
  3d8472:	49 ff ff ce 	jal 3d840e <FDL_DMAIRQHandler>
  3d8476:	fc 80       	pop25 $r6,#0    ! {$r6, $fp, $gp, $lp}

003d8478 <HW8_ISR>:
  3d8478:	fc 00       	push25 $r6,#0    ! {$r6, $fp, $gp, $lp}
  3d847a:	84 02       	movi55 $r0,#0x2
  3d847c:	84 28       	movi55 $r1,#0x8
  3d847e:	49 ff ff c8 	jal 3d840e <FDL_DMAIRQHandler>
  3d8482:	fc 80       	pop25 $r6,#0    ! {$r6, $fp, $gp, $lp}

003d8484 <HW9_ISR>:
  3d8484:	fc 00       	push25 $r6,#0    ! {$r6, $fp, $gp, $lp}
  3d8486:	84 03       	movi55 $r0,#0x3
  3d8488:	84 29       	movi55 $r1,#0x9
  3d848a:	49 ff ff c2 	jal 3d840e <FDL_DMAIRQHandler>
  3d848e:	fc 80       	pop25 $r6,#0    ! {$r6, $fp, $gp, $lp}

003d8490 <HW5_ISR>:
  3d8490:	fc 00       	push25 $r6,#0    ! {$r6, $fp, $gp, $lp}
  3d8492:	49 00 1f 00 	jal 3dc292 <GIE_DISABLE>
  3d8496:	84 05       	movi55 $r0,#0x5
  3d8498:	49 00 1f e9 	jal 3dc46a <NVIC_ClearPendingIRQ>
  3d849c:	46 00 05 e2 	sethi $r0,#0x5e2
  3d84a0:	04 10 00 41 	lwi $r1,[$r0+#0x104]
  3d84a4:	92 38       	srli45 $r1,#0x18
  3d84a6:	96 46       	bmski33 $r1,#0x0
  3d84a8:	c1 0c       	beqz38 $r1,3d84c0 <HW5_ISR+0x30>
  3d84aa:	04 10 00 40 	lwi $r1,[$r0+#0x100]
  3d84ae:	92 21       	srli45 $r1,#0x1
  3d84b0:	96 46       	bmski33 $r1,#0x0
  3d84b2:	c9 07       	bnez38 $r1,3d84c0 <HW5_ISR+0x30>
  3d84b4:	2e 17 e8 a0 	lbi.gp $r1,[+#-5984]
  3d84b8:	58 10 80 02 	ori $r1,$r1,#0x2
  3d84bc:	3e 17 e8 a0 	sbi.gp $r1,[+#-5984]
  3d84c0:	84 20       	movi55 $r1,#0x0
  3d84c2:	14 10 00 41 	swi $r1,[$r0+#0x104]
  3d84c6:	49 00 1e e1 	jal 3dc288 <GIE_ENABLE>
  3d84ca:	fc 80       	pop25 $r6,#0    ! {$r6, $fp, $gp, $lp}

003d84cc <HW20_ISR>:
  3d84cc:	fc 00       	push25 $r6,#0    ! {$r6, $fp, $gp, $lp}
  3d84ce:	46 00 05 e0 	sethi $r0,#0x5e0
  3d84d2:	02 10 00 52 	lhi $r1,[$r0+#0xa4]
  3d84d6:	02 60 00 50 	lhi $r6,[$r0+#0xa0]
  3d84da:	ff 8e       	and33 $r6,$r1
  3d84dc:	54 13 00 01 	andi $r1,$r6,#0x1
  3d84e0:	c1 15       	beqz38 $r1,3d850a <HW20_ISR+0x3e>
  3d84e2:	02 20 00 52 	lhi $r2,[$r0+#0xa4]
  3d84e6:	84 3e       	movi55 $r1,#-2
  3d84e8:	fe 56       	and33 $r1,$r2
  3d84ea:	12 10 00 52 	shi $r1,[$r0+#0xa4]
  3d84ee:	84 20       	movi55 $r1,#0x0
  3d84f0:	12 10 00 54 	shi $r1,[$r0+#0xa8]
  3d84f4:	2e 07 f5 c0 	lbi.gp $r0,[+#-2624]
  3d84f8:	5a 00 02 05 	beqc $r0,#0x2,3d8502 <HW20_ISR+0x36>
  3d84fc:	84 01       	movi55 $r0,#0x1
  3d84fe:	3e 07 f5 c0 	sbi.gp $r0,[+#-2624]
  3d8502:	3e 0d 24 fc 	addi.gp $r0,#-187140
  3d8506:	49 00 1e 84 	jal 3dc20e <PRINT>
  3d850a:	40 03 18 09 	srli $r0,$r6,#0x6
  3d850e:	96 06       	bmski33 $r0,#0x0
  3d8510:	c0 3b       	beqz38 $r0,3d8586 <HW20_ISR+0xba>
  3d8512:	3e 0d 25 14 	addi.gp $r0,#-187116
  3d8516:	49 00 1d e8 	jal 3dc0e6 <PRINT_TXT>
  3d851a:	84 00       	movi55 $r0,#0x0
  3d851c:	3c 1d fd 72 	lwi.gp $r1,[+#-2616]
  3d8520:	dd 21       	jral5 $r1
  3d8522:	2e 07 e8 a0 	lbi.gp $r0,[+#-5984]
  3d8526:	5a 00 03 05 	beqc $r0,#0x3,3d8530 <HW20_ISR+0x64>
  3d852a:	84 02       	movi55 $r0,#0x2
  3d852c:	3e 07 f5 c0 	sbi.gp $r0,[+#-2624]
  3d8530:	46 10 05 e0 	sethi $r1,#0x5e0
  3d8534:	04 00 80 29 	lwi $r0,[$r1+#0xa4]
  3d8538:	92 01       	srli45 $r0,#0x1
  3d853a:	96 06       	bmski33 $r0,#0x0
  3d853c:	c0 fc       	beqz38 $r0,3d8534 <HW20_ISR+0x68>
  3d853e:	84 02       	movi55 $r0,#0x2
  3d8540:	49 00 1f f7 	jal 3dc52e <delay_ms>
  3d8544:	84 02       	movi55 $r0,#0x2
  3d8546:	3c 1d fd 72 	lwi.gp $r1,[+#-2616]
  3d854a:	dd 21       	jral5 $r1
  3d854c:	2e 07 f5 c0 	lbi.gp $r0,[+#-2624]
  3d8550:	5a 00 02 05 	beqc $r0,#0x2,3d855a <HW20_ISR+0x8e>
  3d8554:	84 00       	movi55 $r0,#0x0
  3d8556:	3e 07 f5 c0 	sbi.gp $r0,[+#-2624]
  3d855a:	46 00 05 e0 	sethi $r0,#0x5e0
  3d855e:	84 3d       	movi55 $r1,#-3
  3d8560:	02 20 00 52 	lhi $r2,[$r0+#0xa4]
  3d8564:	fe 56       	and33 $r1,$r2
  3d8566:	12 10 00 52 	shi $r1,[$r0+#0xa4]
  3d856a:	02 20 00 52 	lhi $r2,[$r0+#0xa4]
  3d856e:	44 1f ff bf 	movi $r1,#-65
  3d8572:	fe 56       	and33 $r1,$r2
  3d8574:	12 10 00 52 	shi $r1,[$r0+#0xa4]
  3d8578:	84 20       	movi55 $r1,#0x0
  3d857a:	12 10 00 54 	shi $r1,[$r0+#0xa8]
  3d857e:	3e 0d 25 1c 	addi.gp $r0,#-187108
  3d8582:	49 00 1e 46 	jal 3dc20e <PRINT>
  3d8586:	92 c1       	srli45 $r6,#0x1
  3d8588:	97 86       	bmski33 $r6,#0x0
  3d858a:	c6 14       	beqz38 $r6,3d85b2 <HW20_ISR+0xe6>
  3d858c:	2e 07 f5 c0 	lbi.gp $r0,[+#-2624]
  3d8590:	5a 00 02 05 	beqc $r0,#0x2,3d859a <HW20_ISR+0xce>
  3d8594:	84 00       	movi55 $r0,#0x0
  3d8596:	3e 07 f5 c0 	sbi.gp $r0,[+#-2624]
  3d859a:	46 10 05 e0 	sethi $r1,#0x5e0
  3d859e:	84 1d       	movi55 $r0,#-3
  3d85a0:	02 20 80 52 	lhi $r2,[$r1+#0xa4]
  3d85a4:	fe 16       	and33 $r0,$r2
  3d85a6:	12 00 80 52 	shi $r0,[$r1+#0xa4]
  3d85aa:	3e 0d 25 34 	addi.gp $r0,#-187084
  3d85ae:	49 00 1e 30 	jal 3dc20e <PRINT>
  3d85b2:	fa 04       	movpi45 $r0,#0x14
  3d85b4:	49 00 1f 5b 	jal 3dc46a <NVIC_ClearPendingIRQ>
  3d85b8:	fc 80       	pop25 $r6,#0    ! {$r6, $fp, $gp, $lp}

003d85ba <Fdl_MCUMultiPlnReadCmd>:
  3d85ba:	fc 21       	push25 $r8,#8    ! {$r6~$r8, $fp, $gp, $lp}
  3d85bc:	3f cf f5 88 	addi.gp $fp,#-2680
  3d85c0:	40 31 a0 08 	slli $r3,$r3,#0x8
  3d85c4:	bc 00       	lwi37 $r4,[$fp+#0x0]
  3d85c6:	40 61 a0 09 	srli $r6,$r3,#0x8
  3d85ca:	b6 1f       	swi450 $r0,[$sp]
  3d85cc:	00 22 01 95 	lbi $r2,[$r4+#0x195]
  3d85d0:	02 32 00 cc 	lhi $r3,[$r4+#0x198]
  3d85d4:	8e 41       	subi45 $r2,#0x1
  3d85d6:	fe 9c       	mul33 $r2,$r3
  3d85d8:	fe 93       	not33 $r2,$r2
  3d85da:	f1 81       	swi37.sp $r1,[+#0x4]
  3d85dc:	ff 96       	and33 $r6,$r2
  3d85de:	84 e0       	movi55 $r7,#0x0
  3d85e0:	49 00 19 3b 	jal 3db856 <HAL_MCUCheckStatus>
  3d85e4:	b8 00       	lwi37 $r0,[$fp+#0x0]
  3d85e6:	00 00 01 95 	lbi $r0,[$r0+#0x195]
  3d85ea:	e2 e0       	slt45 $r7,$r0
  3d85ec:	e8 2b       	beqzs8 3d8642 <Fdl_MCUMultiPlnReadCmd+0x88>
  3d85ee:	cf 04       	bnez38 $r7,3d85f6 <Fdl_MCUMultiPlnReadCmd+0x3c>
  3d85f0:	84 01       	movi55 $r0,#0x1
  3d85f2:	49 00 1f 87 	jal 3dc500 <delay_us>
  3d85f6:	b4 1f       	lwi450 $r0,[$sp]
  3d85f8:	84 20       	movi55 $r1,#0x0
  3d85fa:	49 00 18 ef 	jal 3db7d8 <HAL_MCU_SendCmd>
  3d85fe:	b4 1f       	lwi450 $r0,[$sp]
  3d8600:	84 20       	movi55 $r1,#0x0
  3d8602:	49 00 19 0b 	jal 3db818 <HAL_MCU_SendTwoAddr>
  3d8606:	b4 1f       	lwi450 $r0,[$sp]
  3d8608:	80 26       	mov55 $r1,$r6
  3d860a:	49 00 19 13 	jal 3db830 <HAL_MCU_SendThreeAddr>
  3d860e:	b8 00       	lwi37 $r0,[$fp+#0x0]
  3d8610:	00 00 01 95 	lbi $r0,[$r0+#0x195]
  3d8614:	8e 01       	subi45 $r0,#0x1
  3d8616:	4c 70 40 06 	bne $r7,$r0,3d8622 <Fdl_MCUMultiPlnReadCmd+0x68>
  3d861a:	b4 1f       	lwi450 $r0,[$sp]
  3d861c:	44 10 00 30 	movi $r1,#0x30
  3d8620:	d5 04       	j8 3d8628 <Fdl_MCUMultiPlnReadCmd+0x6e>
  3d8622:	b4 1f       	lwi450 $r0,[$sp]
  3d8624:	44 10 00 32 	movi $r1,#0x32
  3d8628:	49 00 18 d8 	jal 3db7d8 <HAL_MCU_SendCmd>
  3d862c:	b4 1f       	lwi450 $r0,[$sp]
  3d862e:	f1 01       	lwi37.sp $r1,[+#0x4]
  3d8630:	49 00 19 13 	jal 3db856 <HAL_MCUCheckStatus>
  3d8634:	8c e1       	addi45 $r7,#0x1
  3d8636:	b8 00       	lwi37 $r0,[$fp+#0x0]
  3d8638:	97 f8       	zeb33 $r7,$r7
  3d863a:	04 00 00 67 	lwi $r0,[$r0+#0x19c]
  3d863e:	88 c0       	add45 $r6,$r0
  3d8640:	d5 d2       	j8 3d85e4 <Fdl_MCUMultiPlnReadCmd+0x2a>
  3d8642:	fc a1       	pop25 $r8,#8    ! {$r6~$r8, $fp, $gp, $lp}

003d8644 <Fdl_MCUReadCmd>:
  3d8644:	fc 02       	push25 $r6,#16    ! {$r6, $fp, $gp, $lp}
  3d8646:	f2 81       	swi37.sp $r2,[+#0x4]
  3d8648:	f3 82       	swi37.sp $r3,[+#0x8]
  3d864a:	f1 83       	swi37.sp $r1,[+#0xc]
  3d864c:	b6 1f       	swi450 $r0,[$sp]
  3d864e:	49 00 19 04 	jal 3db856 <HAL_MCUCheckStatus>
  3d8652:	84 05       	movi55 $r0,#0x5
  3d8654:	49 00 20 7d 	jal 3dc74e <Delay>
  3d8658:	84 01       	movi55 $r0,#0x1
  3d865a:	49 00 1f 53 	jal 3dc500 <delay_us>
  3d865e:	84 05       	movi55 $r0,#0x5
  3d8660:	49 00 20 77 	jal 3dc74e <Delay>
  3d8664:	b4 1f       	lwi450 $r0,[$sp]
  3d8666:	84 20       	movi55 $r1,#0x0
  3d8668:	49 00 18 b8 	jal 3db7d8 <HAL_MCU_SendCmd>
  3d866c:	b4 1f       	lwi450 $r0,[$sp]
  3d866e:	f1 02       	lwi37.sp $r1,[+#0x8]
  3d8670:	49 00 18 d4 	jal 3db818 <HAL_MCU_SendTwoAddr>
  3d8674:	b4 1f       	lwi450 $r0,[$sp]
  3d8676:	f1 01       	lwi37.sp $r1,[+#0x4]
  3d8678:	49 00 18 dc 	jal 3db830 <HAL_MCU_SendThreeAddr>
  3d867c:	b4 1f       	lwi450 $r0,[$sp]
  3d867e:	44 10 00 30 	movi $r1,#0x30
  3d8682:	49 00 18 ab 	jal 3db7d8 <HAL_MCU_SendCmd>
  3d8686:	84 0a       	movi55 $r0,#0xa
  3d8688:	49 00 20 63 	jal 3dc74e <Delay>
  3d868c:	f1 03       	lwi37.sp $r1,[+#0xc]
  3d868e:	b4 1f       	lwi450 $r0,[$sp]
  3d8690:	49 00 18 e3 	jal 3db856 <HAL_MCUCheckStatus>
  3d8694:	84 05       	movi55 $r0,#0x5
  3d8696:	49 00 20 5c 	jal 3dc74e <Delay>
  3d869a:	b4 1f       	lwi450 $r0,[$sp]
  3d869c:	84 20       	movi55 $r1,#0x0
  3d869e:	49 00 18 9d 	jal 3db7d8 <HAL_MCU_SendCmd>
  3d86a2:	b4 1f       	lwi450 $r0,[$sp]
  3d86a4:	84 25       	movi55 $r1,#0x5
  3d86a6:	49 00 18 99 	jal 3db7d8 <HAL_MCU_SendCmd>
  3d86aa:	b4 1f       	lwi450 $r0,[$sp]
  3d86ac:	f1 02       	lwi37.sp $r1,[+#0x8]
  3d86ae:	49 00 18 b5 	jal 3db818 <HAL_MCU_SendTwoAddr>
  3d86b2:	b4 1f       	lwi450 $r0,[$sp]
  3d86b4:	f1 01       	lwi37.sp $r1,[+#0x4]
  3d86b6:	49 00 18 bd 	jal 3db830 <HAL_MCU_SendThreeAddr>
  3d86ba:	b4 1f       	lwi450 $r0,[$sp]
  3d86bc:	44 10 00 e0 	movi $r1,#0xe0
  3d86c0:	49 00 18 8c 	jal 3db7d8 <HAL_MCU_SendCmd>
  3d86c4:	44 00 00 32 	movi $r0,#0x32
  3d86c8:	49 00 20 43 	jal 3dc74e <Delay>
  3d86cc:	fc 82       	pop25 $r6,#16    ! {$r6, $fp, $gp, $lp}

003d86ce <Fdl_MCUSendPreReadCmd>:
  3d86ce:	fc 02       	push25 $r6,#16    ! {$r6, $fp, $gp, $lp}
  3d86d0:	f2 82       	swi37.sp $r2,[+#0x8]
  3d86d2:	f3 83       	swi37.sp $r3,[+#0xc]
  3d86d4:	f0 81       	swi37.sp $r0,[+#0x4]
  3d86d6:	49 00 18 c0 	jal 3db856 <HAL_MCUCheckStatus>
  3d86da:	84 01       	movi55 $r0,#0x1
  3d86dc:	49 00 1f 12 	jal 3dc500 <delay_us>
  3d86e0:	f0 01       	lwi37.sp $r0,[+#0x4]
  3d86e2:	84 20       	movi55 $r1,#0x0
  3d86e4:	49 00 18 7a 	jal 3db7d8 <HAL_MCU_SendCmd>
  3d86e8:	f0 01       	lwi37.sp $r0,[+#0x4]
  3d86ea:	f1 03       	lwi37.sp $r1,[+#0xc]
  3d86ec:	49 00 18 96 	jal 3db818 <HAL_MCU_SendTwoAddr>
  3d86f0:	f0 01       	lwi37.sp $r0,[+#0x4]
  3d86f2:	f1 02       	lwi37.sp $r1,[+#0x8]
  3d86f4:	49 00 18 9e 	jal 3db830 <HAL_MCU_SendThreeAddr>
  3d86f8:	f0 01       	lwi37.sp $r0,[+#0x4]
  3d86fa:	44 10 00 30 	movi $r1,#0x30
  3d86fe:	49 00 18 6d 	jal 3db7d8 <HAL_MCU_SendCmd>
  3d8702:	84 0a       	movi55 $r0,#0xa
  3d8704:	49 00 20 25 	jal 3dc74e <Delay>
  3d8708:	fc 82       	pop25 $r6,#16    ! {$r6, $fp, $gp, $lp}

003d870a <Fdl_MCUReadCacheCmd>:
  3d870a:	fc 01       	push25 $r6,#8    ! {$r6, $fp, $gp, $lp}
  3d870c:	f2 81       	swi37.sp $r2,[+#0x4]
  3d870e:	b6 1f       	swi450 $r0,[$sp]
  3d8710:	49 00 18 a3 	jal 3db856 <HAL_MCUCheckStatus>
  3d8714:	b4 1f       	lwi450 $r0,[$sp]
  3d8716:	84 25       	movi55 $r1,#0x5
  3d8718:	49 00 18 60 	jal 3db7d8 <HAL_MCU_SendCmd>
  3d871c:	b4 1f       	lwi450 $r0,[$sp]
  3d871e:	f1 01       	lwi37.sp $r1,[+#0x4]
  3d8720:	49 00 18 7c 	jal 3db818 <HAL_MCU_SendTwoAddr>
  3d8724:	b4 1f       	lwi450 $r0,[$sp]
  3d8726:	44 10 00 e0 	movi $r1,#0xe0
  3d872a:	49 00 18 57 	jal 3db7d8 <HAL_MCU_SendCmd>
  3d872e:	84 0a       	movi55 $r0,#0xa
  3d8730:	49 00 20 0f 	jal 3dc74e <Delay>
  3d8734:	fc 81       	pop25 $r6,#8    ! {$r6, $fp, $gp, $lp}

003d8736 <Task_MultiCEForContinue>:
  3d8736:	3c 2d fd 62 	lwi.gp $r2,[+#-2680]
  3d873a:	02 31 01 78 	lhi $r3,[$r2+#0x2f0]
  3d873e:	c3 14       	beqz38 $r3,3d8766 <Task_MultiCEForContinue+0x30>
  3d8740:	5a 18 01 13 	bnec $r1,#0x1,3d8766 <Task_MultiCEForContinue+0x30>
  3d8744:	00 11 02 f1 	lbi $r1,[$r2+#0x2f1]
  3d8748:	c1 0f       	beqz38 $r1,3d8766 <Task_MultiCEForContinue+0x30>
  3d874a:	3c 1c 02 63 	lwi.gp $r1,[+#0x98c]
  3d874e:	5a 18 09 0c 	bnec $r1,#0x9,3d8766 <Task_MultiCEForContinue+0x30>
  3d8752:	44 20 04 c8 	movi $r2,#0x4c8
  3d8756:	3e 1f f6 68 	addi.gp $r1,#-2456
  3d875a:	42 10 08 73 	maddr32 $r1,$r0,$r2
  3d875e:	80 01       	mov55 $r0,$r1
  3d8760:	84 23       	movi55 $r1,#0x3
  3d8762:	10 10 04 8c 	sbi $r1,[$r0+#0x48c]
  3d8766:	dd 9e       	ret5 $lp

003d8768 <Retry_SaveTaskException>:
  3d8768:	3c 3c 02 ae 	lwi.gp $r3,[+#0xab8]
  3d876c:	c3 06       	beqz38 $r3,3d8778 <Retry_SaveTaskException+0x10>
  3d876e:	fc 00       	push25 $r6,#0    ! {$r6, $fp, $gp, $lp}
  3d8770:	96 09       	zeh33 $r0,$r1
  3d8772:	84 21       	movi55 $r1,#0x1
  3d8774:	dd 23       	jral5 $r3
  3d8776:	fc 80       	pop25 $r6,#0    ! {$r6, $fp, $gp, $lp}
  3d8778:	dd 9e       	ret5 $lp

003d877a <Retry_JudgeDmaMask>:
  3d877a:	3c 3c 02 74 	lwi.gp $r3,[+#0x9d0]
  3d877e:	c3 31       	beqz38 $r3,3d87e0 <Retry_JudgeDmaMask+0x66>
  3d8780:	40 10 04 17 	divr $r1,$r0,$r0,$r1
  3d8784:	96 00       	zeb33 $r0,$r0
  3d8786:	3c 5c 02 63 	lwi.gp $r5,[+#0x98c]
  3d878a:	40 40 0c 09 	srli $r4,$r0,#0x3
  3d878e:	3c 1d fd 62 	lwi.gp $r1,[+#-2680]
  3d8792:	96 17       	fexti33 $r0,#0x2
  3d8794:	5a 50 09 04 	beqc $r5,#0x9,3d879c <Retry_JudgeDmaMask+0x22>
  3d8798:	5a 58 07 13 	bnec $r5,#0x7,3d87be <Retry_JudgeDmaMask+0x44>
  3d879c:	c2 0b       	beqz38 $r2,3d87b2 <Retry_JudgeDmaMask+0x38>
  3d879e:	3c 5c 02 66 	lwi.gp $r5,[+#0x998]
  3d87a2:	8e a1       	subi45 $r5,#0x1
  3d87a4:	4c 22 c0 14 	bne $r2,$r5,3d87cc <Retry_JudgeDmaMask+0x52>
  3d87a8:	00 50 81 ba 	lbi $r5,[$r1+#0x1ba]
  3d87ac:	84 47       	movi55 $r2,#0x7
  3d87ae:	42 42 88 73 	maddr32 $r4,$r5,$r2
  3d87b2:	38 21 90 00 	lb $r2,[$r3+($r4<<#0x0)]
  3d87b6:	40 01 00 0e 	sra $r0,$r2,$r0
  3d87ba:	96 00       	zeb33 $r0,$r0
  3d87bc:	d5 09       	j8 3d87ce <Retry_JudgeDmaMask+0x54>
  3d87be:	00 50 81 ba 	lbi $r5,[$r1+#0x1ba]
  3d87c2:	88 64       	add45 $r3,$r4
  3d87c4:	42 31 14 73 	maddr32 $r3,$r2,$r5
  3d87c8:	a6 98       	lbi333 $r2,[$r3+#0x0]
  3d87ca:	d5 f6       	j8 3d87b6 <Retry_JudgeDmaMask+0x3c>
  3d87cc:	84 00       	movi55 $r0,#0x0
  3d87ce:	00 50 81 ac 	lbi $r5,[$r1+#0x1ac]
  3d87d2:	84 21       	movi55 $r1,#0x1
  3d87d4:	40 50 94 0c 	sll $r5,$r1,$r5
  3d87d8:	8e a1       	subi45 $r5,#0x1
  3d87da:	fe 2e       	and33 $r0,$r5
  3d87dc:	d0 04       	beqs38 $r0,3d87e4 <Retry_JudgeDmaMask+0x6a>
  3d87de:	dd 9e       	ret5 $lp
  3d87e0:	80 03       	mov55 $r0,$r3
  3d87e2:	dd 9e       	ret5 $lp
  3d87e4:	44 00 00 ff 	movi $r0,#0xff
  3d87e8:	dd 9e       	ret5 $lp

003d87ea <Retry_AnalyzeExceptionInfo>:
  3d87ea:	40 50 b4 09 	srli $r5,$r1,#0xd
  3d87ee:	40 52 b4 08 	slli $r5,$r5,#0xd
  3d87f2:	c5 0c       	beqz38 $r5,3d880a <Retry_AnalyzeExceptionInfo+0x20>
  3d87f4:	44 00 e0 00 	movi $r0,#0xe000
  3d87f8:	d0 1b       	beqs38 $r0,3d882e <Retry_AnalyzeExceptionInfo+0x44>
  3d87fa:	54 50 e0 00 	andi $r5,$r1,#0x6000
  3d87fe:	44 00 60 00 	movi $r0,#0x6000
  3d8802:	d0 14       	beqs38 $r0,3d882a <Retry_AnalyzeExceptionInfo+0x40>
  3d8804:	44 00 00 40 	movi $r0,#0x40
  3d8808:	dd 9e       	ret5 $lp
  3d880a:	3c 0c 02 af 	lwi.gp $r0,[+#0xabc]
  3d880e:	a6 06       	lbi333 $r0,[$r0+#0x6]
  3d8810:	5a 08 05 08 	bnec $r0,#0x5,3d8820 <Retry_AnalyzeExceptionInfo+0x36>
  3d8814:	54 10 8f ff 	andi $r1,$r1,#0xfff
  3d8818:	94 49       	slli333 $r1,$r1,#0x1
  3d881a:	5e f0 81 81 	sltsi $r15,$r1,#0x181
  3d881e:	e8 08       	beqzs8 3d882e <Retry_AnalyzeExceptionInfo+0x44>
  3d8820:	84 01       	movi55 $r0,#0x1
  3d8822:	40 00 08 0c 	sll $r0,$r0,$r2
  3d8826:	96 00       	zeb33 $r0,$r0
  3d8828:	dd 9e       	ret5 $lp
  3d882a:	fa 10       	movpi45 $r0,#0x20
  3d882c:	dd 9e       	ret5 $lp
  3d882e:	44 00 00 80 	movi $r0,#0x80
  3d8832:	dd 9e       	ret5 $lp

003d8834 <Retry_ReadGetDmaInfor>:
  3d8834:	fc 42       	push25 $r10,#16    ! {$r6~$r10, $fp, $gp, $lp}
  3d8836:	80 e0       	mov55 $r7,$r0
  3d8838:	80 c1       	mov55 $r6,$r1
  3d883a:	3c 9c 02 68 	lwi.gp $r9,[+#0x9a0]
  3d883e:	00 00 80 1c 	lbi $r0,[$r1+#0x1c]
  3d8842:	40 a3 81 57 	divr $r10,$r10,$r7,$r0
  3d8846:	3c 00 04 ce 	lhi.gp $r0,[+#0x99c]
  3d884a:	40 85 00 17 	divr $r8,$r0,$r10,$r0
  3d884e:	3c 8c 02 6c 	lwi.gp $r8,[+#0x9b0]
  3d8852:	94 03       	slli333 $r0,$r0,#0x3
  3d8854:	89 00       	add45 $r8,$r0
  3d8856:	80 28       	mov55 $r1,$r8
  3d8858:	00 04 00 02 	lbi $r0,[$r8+#0x2]
  3d885c:	ae 10       	sbi333 $r0,[$r2+#0x0]
  3d885e:	b0 01       	addri36.sp $r0,#0x4
  3d8860:	84 40       	movi55 $r2,#0x0
  3d8862:	49 ff fc 21 	jal 3d80a4 <Fdl_ConvertAddrInfo>
  3d8866:	f0 01       	lwi37.sp $r0,[+#0x4]
  3d8868:	a8 31       	swi333 $r0,[$r6+#0x4]
  3d886a:	2e 10 09 dc 	lbi.gp $r1,[+#0x9dc]
  3d886e:	00 03 00 1c 	lbi $r0,[$r6+#0x1c]
  3d8872:	5a 18 01 0b 	bnec $r1,#0x1,3d8888 <Retry_ReadGetDmaInfor+0x54>
  3d8876:	3c 1c 02 76 	lwi.gp $r1,[+#0x9d8]
  3d887a:	38 20 a9 01 	lh $r2,[$r1+($r10<<#0x1)]
  3d887e:	40 33 80 37 	divr $r3,$r1,$r7,$r0
  3d8882:	88 22       	add45 $r1,$r2
  3d8884:	a8 72       	swi333 $r1,[$r6+#0x8]
  3d8886:	d5 02       	j8 3d888a <Retry_ReadGetDmaInfor+0x56>
  3d8888:	a9 f2       	swi333 $r7,[$r6+#0x8]
  3d888a:	3c 1c 02 6a 	lwi.gp $r1,[+#0x9a8]
  3d888e:	a8 74       	swi333 $r1,[$r6+#0x10]
  3d8890:	40 23 80 37 	divr $r2,$r1,$r7,$r0
  3d8894:	00 24 00 03 	lbi $r2,[$r8+#0x3]
  3d8898:	42 10 08 73 	maddr32 $r1,$r0,$r2
  3d889c:	96 48       	zeb33 $r1,$r1
  3d889e:	10 13 00 18 	sbi $r1,[$r6+#0x18]
  3d88a2:	2e 00 0a a1 	lbi.gp $r0,[+#0xaa1]
  3d88a6:	49 ff fc 63 	jal 3d816c <Fdl_ConvertColAddr>
  3d88aa:	ac 30       	shi333 $r0,[$r6+#0x0]
  3d88ac:	00 13 00 1c 	lbi $r1,[$r6+#0x1c]
  3d88b0:	80 07       	mov55 $r0,$r7
  3d88b2:	80 4a       	mov55 $r2,$r10
  3d88b4:	49 ff ff 63 	jal 3d877a <Retry_JudgeDmaMask>
  3d88b8:	10 03 00 19 	sbi $r0,[$r6+#0x19]
  3d88bc:	84 1f       	movi55 $r0,#-1
  3d88be:	ac 31       	shi333 $r0,[$r6+#0x2]
  3d88c0:	3c 0c 02 75 	lwi.gp $r0,[+#0x9d4]
  3d88c4:	c0 04       	beqz38 $r0,3d88cc <Retry_ReadGetDmaInfor+0x98>
  3d88c6:	38 00 29 01 	lh $r0,[$r0+($r10<<#0x1)]
  3d88ca:	ac 31       	shi333 $r0,[$r6+#0x2]
  3d88cc:	3c 0c 02 70 	lwi.gp $r0,[+#0x9c0]
  3d88d0:	c8 04       	bnez38 $r0,3d88d8 <Retry_ReadGetDmaInfor+0xa4>
  3d88d2:	3e 08 0a 1c 	addi.gp $r0,#0xa1c
  3d88d6:	d5 09       	j8 3d88e8 <Retry_ReadGetDmaInfor+0xb4>
  3d88d8:	00 1f 80 0d 	lbi $r1,[$sp+#0xd]
  3d88dc:	00 24 00 03 	lbi $r2,[$r8+#0x3]
  3d88e0:	42 01 04 75 	msubr32 $r0,$r2,$r1
  3d88e4:	42 05 04 73 	maddr32 $r0,$r10,$r1
  3d88e8:	a8 33       	swi333 $r0,[$r6+#0xc]
  3d88ea:	3c 0d fd 62 	lwi.gp $r0,[+#-2680]
  3d88ee:	00 00 01 ac 	lbi $r0,[$r0+#0x1ac]
  3d88f2:	40 73 80 f7 	divr $r7,$r7,$r7,$r0
  3d88f6:	95 f9       	slli333 $r7,$r7,#0x1
  3d88f8:	3c 0d fd 64 	lwi.gp $r0,[+#-2672]
  3d88fc:	40 03 80 f7 	divr $r0,$r7,$r7,$r0
  3d8900:	00 0f 80 0d 	lbi $r0,[$sp+#0xd]
  3d8904:	88 e9       	add45 $r7,$r9
  3d8906:	a9 f5       	swi333 $r7,[$r6+#0x14]
  3d8908:	10 03 00 1a 	sbi $r0,[$r6+#0x1a]
  3d890c:	fc c2       	pop25 $r10,#16    ! {$r6~$r10, $fp, $gp, $lp}

003d890e <Retry_CopybackGetDmaInfor>:
  3d890e:	fc 00       	push25 $r6,#0    ! {$r6, $fp, $gp, $lp}
  3d8910:	80 c3       	mov55 $r6,$r3
  3d8912:	94 02       	slli333 $r0,$r0,#0x2
  3d8914:	3e 3f ea 90 	addi.gp $r3,#-5488
  3d8918:	88 03       	add45 $r0,$r3
  3d891a:	88 20       	add45 $r1,$r0
  3d891c:	00 00 80 20 	lbi $r0,[$r1+#0x20]
  3d8920:	80 23       	mov55 $r1,$r3
  3d8922:	88 40       	add45 $r2,$r0
  3d8924:	84 0c       	movi55 $r0,#0xc
  3d8926:	42 11 00 73 	maddr32 $r1,$r2,$r0
  3d892a:	50 00 84 30 	addi $r0,$r1,#0x430
  3d892e:	50 10 84 34 	addi $r1,$r1,#0x434
  3d8932:	00 20 00 0d 	lbi $r2,[$r0+#0xd]
  3d8936:	a1 41       	lwi333 $r5,[$r0+#0x4]
  3d8938:	a1 09       	lwi333 $r4,[$r1+#0x4]
  3d893a:	00 00 00 0c 	lbi $r0,[$r0+#0xc]
  3d893e:	00 11 8a be 	lbi $r1,[$r3+#0xabe]
  3d8942:	fe 44       	mul33 $r1,$r0
  3d8944:	96 48       	zeb33 $r1,$r1
  3d8946:	10 13 00 18 	sbi $r1,[$r6+#0x18]
  3d894a:	00 01 8a bc 	lbi $r0,[$r3+#0xabc]
  3d894e:	10 03 00 1a 	sbi $r0,[$r6+#0x1a]
  3d8952:	00 01 8a bd 	lbi $r0,[$r3+#0xabd]
  3d8956:	10 03 00 1c 	sbi $r0,[$r6+#0x1c]
  3d895a:	00 01 8a be 	lbi $r0,[$r3+#0xabe]
  3d895e:	10 03 00 1b 	sbi $r0,[$r6+#0x1b]
  3d8962:	00 01 8a be 	lbi $r0,[$r3+#0xabe]
  3d8966:	fe 14       	mul33 $r0,$r2
  3d8968:	a8 32       	swi333 $r0,[$r6+#0x8]
  3d896a:	3c 2d fd 62 	lwi.gp $r2,[+#-2680]
  3d896e:	00 21 01 ac 	lbi $r2,[$r2+#0x1ac]
  3d8972:	40 00 08 17 	divr $r0,$r0,$r0,$r2
  3d8976:	04 21 82 ae 	lwi $r2,[$r3+#0xab8]
  3d897a:	94 01       	slli333 $r0,$r0,#0x1
  3d897c:	88 02       	add45 $r0,$r2
  3d897e:	a8 35       	swi333 $r0,[$r6+#0x14]
  3d8980:	04 01 82 ad 	lwi $r0,[$r3+#0xab4]
  3d8984:	a9 71       	swi333 $r5,[$r6+#0x4]
  3d8986:	a8 34       	swi333 $r0,[$r6+#0x10]
  3d8988:	84 1f       	movi55 $r0,#-1
  3d898a:	a9 33       	swi333 $r4,[$r6+#0xc]
  3d898c:	ac 31       	shi333 $r0,[$r6+#0x2]
  3d898e:	00 01 8a bf 	lbi $r0,[$r3+#0xabf]
  3d8992:	49 ff fb ed 	jal 3d816c <Fdl_ConvertColAddr>
  3d8996:	ac 30       	shi333 $r0,[$r6+#0x0]
  3d8998:	84 00       	movi55 $r0,#0x0
  3d899a:	10 03 00 19 	sbi $r0,[$r6+#0x19]
  3d899e:	fc 80       	pop25 $r6,#0    ! {$r6, $fp, $gp, $lp}

003d89a0 <Retry_PreReadGetDmaInfo>:
  3d89a0:	fc 42       	push25 $r10,#16    ! {$r6~$r10, $fp, $gp, $lp}
  3d89a2:	80 e0       	mov55 $r7,$r0
  3d89a4:	80 c1       	mov55 $r6,$r1
  3d89a6:	2e 10 0a a1 	lbi.gp $r1,[+#0xaa1]
  3d89aa:	3c 0d fd 62 	lwi.gp $r0,[+#-2680]
  3d89ae:	5a 18 01 09 	bnec $r1,#0x1,3d89c0 <Retry_PreReadGetDmaInfo+0x20>
  3d89b2:	00 10 01 a9 	lbi $r1,[$r0+#0x1a9]
  3d89b6:	10 13 00 1c 	sbi $r1,[$r6+#0x1c]
  3d89ba:	00 00 01 ad 	lbi $r0,[$r0+#0x1ad]
  3d89be:	d5 07       	j8 3d89cc <Retry_PreReadGetDmaInfo+0x2c>
  3d89c0:	00 10 01 a8 	lbi $r1,[$r0+#0x1a8]
  3d89c4:	10 13 00 1c 	sbi $r1,[$r6+#0x1c]
  3d89c8:	00 00 01 ac 	lbi $r0,[$r0+#0x1ac]
  3d89cc:	10 03 00 1b 	sbi $r0,[$r6+#0x1b]
  3d89d0:	3e 0d 25 d4 	addi.gp $r0,#-186924
  3d89d4:	38 10 0a 02 	lw $r1,[$r0+($r2<<#0x2)]
  3d89d8:	84 1d       	movi55 $r0,#-3
  3d89da:	83 81       	mov55 $fp,$r1
  3d89dc:	ba 24       	lwi37 $r2,[$fp+#0x90]
  3d89de:	fe 16       	and33 $r0,$r2
  3d89e0:	b8 a4       	swi37 $r0,[$fp+#0x90]
  3d89e2:	64 00 00 08 	dsb
  3d89e6:	3c ac 02 68 	lwi.gp $r10,[+#0x9a0]
  3d89ea:	00 03 00 1c 	lbi $r0,[$r6+#0x1c]
  3d89ee:	84 40       	movi55 $r2,#0x0
  3d89f0:	40 93 81 37 	divr $r9,$r9,$r7,$r0
  3d89f4:	3c 00 04 ce 	lhi.gp $r0,[+#0x99c]
  3d89f8:	40 84 80 17 	divr $r8,$r0,$r9,$r0
  3d89fc:	3c 8c 02 6c 	lwi.gp $r8,[+#0x9b0]
  3d8a00:	94 03       	slli333 $r0,$r0,#0x3
  3d8a02:	89 00       	add45 $r8,$r0
  3d8a04:	80 28       	mov55 $r1,$r8
  3d8a06:	00 04 00 02 	lbi $r0,[$r8+#0x2]
  3d8a0a:	ae 18       	sbi333 $r0,[$r3+#0x0]
  3d8a0c:	b0 01       	addri36.sp $r0,#0x4
  3d8a0e:	49 ff fb 4b 	jal 3d80a4 <Fdl_ConvertAddrInfo>
  3d8a12:	f0 01       	lwi37.sp $r0,[+#0x4]
  3d8a14:	a8 31       	swi333 $r0,[$r6+#0x4]
  3d8a16:	00 03 00 1c 	lbi $r0,[$r6+#0x1c]
  3d8a1a:	40 13 80 57 	divr $r1,$r2,$r7,$r0
  3d8a1e:	3c 1c 02 76 	lwi.gp $r1,[+#0x9d8]
  3d8a22:	38 10 a5 01 	lh $r1,[$r1+($r9<<#0x1)]
  3d8a26:	88 22       	add45 $r1,$r2
  3d8a28:	a8 72       	swi333 $r1,[$r6+#0x8]
  3d8a2a:	3c 1c 02 6a 	lwi.gp $r1,[+#0x9a8]
  3d8a2e:	a8 74       	swi333 $r1,[$r6+#0x10]
  3d8a30:	00 14 00 03 	lbi $r1,[$r8+#0x3]
  3d8a34:	42 20 04 73 	maddr32 $r2,$r0,$r1
  3d8a38:	96 50       	zeb33 $r1,$r2
  3d8a3a:	10 13 00 18 	sbi $r1,[$r6+#0x18]
  3d8a3e:	2e 00 0a a1 	lbi.gp $r0,[+#0xaa1]
  3d8a42:	49 ff fb 95 	jal 3d816c <Fdl_ConvertColAddr>
  3d8a46:	ac 30       	shi333 $r0,[$r6+#0x0]
  3d8a48:	00 13 00 1c 	lbi $r1,[$r6+#0x1c]
  3d8a4c:	80 07       	mov55 $r0,$r7
  3d8a4e:	80 49       	mov55 $r2,$r9
  3d8a50:	49 ff fe 95 	jal 3d877a <Retry_JudgeDmaMask>
  3d8a54:	10 03 00 19 	sbi $r0,[$r6+#0x19]
  3d8a58:	84 1f       	movi55 $r0,#-1
  3d8a5a:	ac 31       	shi333 $r0,[$r6+#0x2]
  3d8a5c:	3c 0c 02 75 	lwi.gp $r0,[+#0x9d4]
  3d8a60:	c0 04       	beqz38 $r0,3d8a68 <Retry_PreReadGetDmaInfo+0xc8>
  3d8a62:	38 00 25 01 	lh $r0,[$r0+($r9<<#0x1)]
  3d8a66:	ac 31       	shi333 $r0,[$r6+#0x2]
  3d8a68:	3c 0c 02 70 	lwi.gp $r0,[+#0x9c0]
  3d8a6c:	c8 04       	bnez38 $r0,3d8a74 <Retry_PreReadGetDmaInfo+0xd4>
  3d8a6e:	3e 08 0a 1c 	addi.gp $r0,#0xa1c
  3d8a72:	d5 09       	j8 3d8a84 <Retry_PreReadGetDmaInfo+0xe4>
  3d8a74:	00 1f 80 0d 	lbi $r1,[$sp+#0xd]
  3d8a78:	00 24 00 03 	lbi $r2,[$r8+#0x3]
  3d8a7c:	42 01 04 75 	msubr32 $r0,$r2,$r1
  3d8a80:	42 04 84 73 	maddr32 $r0,$r9,$r1
  3d8a84:	a8 33       	swi333 $r0,[$r6+#0xc]
  3d8a86:	3c 0d fd 62 	lwi.gp $r0,[+#-2680]
  3d8a8a:	00 00 01 ac 	lbi $r0,[$r0+#0x1ac]
  3d8a8e:	40 73 80 f7 	divr $r7,$r7,$r7,$r0
  3d8a92:	95 f9       	slli333 $r7,$r7,#0x1
  3d8a94:	3c 0d fd 64 	lwi.gp $r0,[+#-2672]
  3d8a98:	40 03 80 f7 	divr $r0,$r7,$r7,$r0
  3d8a9c:	00 0f 80 0d 	lbi $r0,[$sp+#0xd]
  3d8aa0:	88 ea       	add45 $r7,$r10
  3d8aa2:	a9 f5       	swi333 $r7,[$r6+#0x14]
  3d8aa4:	10 03 00 1a 	sbi $r0,[$r6+#0x1a]
  3d8aa8:	fc c2       	pop25 $r10,#16    ! {$r6~$r10, $fp, $gp, $lp}

003d8aaa <Retry_GetDmaInfor>:
  3d8aaa:	fc 41       	push25 $r10,#8    ! {$r6~$r10, $fp, $gp, $lp}
  3d8aac:	3e af ea 90 	addi.gp $r10,#-5488
  3d8ab0:	2e 47 f5 50 	lbi.gp $r4,[+#-2736]
  3d8ab4:	cc 04       	bnez38 $r4,3d8abc <Retry_GetDmaInfor+0x12>
  3d8ab6:	49 ff ff 2c 	jal 3d890e <Retry_CopybackGetDmaInfor>
  3d8aba:	fc c1       	pop25 $r10,#8    ! {$r6~$r10, $fp, $gp, $lp}
  3d8abc:	81 20       	mov55 $r9,$r0
  3d8abe:	95 02       	slli333 $r4,$r0,#0x2
  3d8ac0:	80 a1       	mov55 $r5,$r1
  3d8ac2:	3c 0c 02 63 	lwi.gp $r0,[+#0x98c]
  3d8ac6:	fd 31       	movd44 $r6,$r2
  3d8ac8:	5a 08 08 10 	bnec $r0,#0x8,3d8ae8 <Retry_GetDmaInfor+0x3e>
  3d8acc:	88 a4       	add45 $r5,$r4
  3d8ace:	95 6c       	slli333 $r5,$r5,#0x4
  3d8ad0:	99 2a       	add333 $r4,$r5,$r2
  3d8ad2:	8c 8c       	addi45 $r4,#0xc
  3d8ad4:	95 22       	slli333 $r4,$r4,#0x2
  3d8ad6:	88 8a       	add45 $r4,$r10
  3d8ad8:	80 23       	mov55 $r1,$r3
  3d8ada:	a0 21       	lwi333 $r0,[$r4+#0x4]
  3d8adc:	80 49       	mov55 $r2,$r9
  3d8ade:	50 3f 80 07 	addi $r3,$sp,#0x7
  3d8ae2:	49 ff ff 5f 	jal 3d89a0 <Retry_PreReadGetDmaInfo>
  3d8ae6:	fc c1       	pop25 $r10,#8    ! {$r6~$r10, $fp, $gp, $lp}
  3d8ae8:	81 0a       	mov55 $r8,$r10
  3d8aea:	2e 10 0a a1 	lbi.gp $r1,[+#0xaa1]
  3d8aee:	3c 0d fd 62 	lwi.gp $r0,[+#-2680]
  3d8af2:	5a 18 01 09 	bnec $r1,#0x1,3d8b04 <Retry_GetDmaInfor+0x5a>
  3d8af6:	00 10 01 a9 	lbi $r1,[$r0+#0x1a9]
  3d8afa:	10 11 80 1c 	sbi $r1,[$r3+#0x1c]
  3d8afe:	00 00 01 ad 	lbi $r0,[$r0+#0x1ad]
  3d8b02:	d5 07       	j8 3d8b10 <Retry_GetDmaInfor+0x66>
  3d8b04:	00 10 01 a8 	lbi $r1,[$r0+#0x1a8]
  3d8b08:	10 11 80 1c 	sbi $r1,[$r3+#0x1c]
  3d8b0c:	00 00 01 ac 	lbi $r0,[$r0+#0x1ac]
  3d8b10:	10 03 80 1b 	sbi $r0,[$r7+#0x1b]
  3d8b14:	3e 0d 25 d4 	addi.gp $r0,#-186924
  3d8b18:	38 10 26 02 	lw $r1,[$r0+($r9<<#0x2)]
  3d8b1c:	84 1d       	movi55 $r0,#-3
  3d8b1e:	83 81       	mov55 $fp,$r1
  3d8b20:	ba 24       	lwi37 $r2,[$fp+#0x90]
  3d8b22:	fe 16       	and33 $r0,$r2
  3d8b24:	b8 a4       	swi37 $r0,[$fp+#0x90]
  3d8b26:	64 00 00 08 	dsb
  3d8b2a:	88 a4       	add45 $r5,$r4
  3d8b2c:	95 2c       	slli333 $r4,$r5,#0x4
  3d8b2e:	88 c4       	add45 $r6,$r4
  3d8b30:	8c cc       	addi45 $r6,#0xc
  3d8b32:	95 b2       	slli333 $r6,$r6,#0x2
  3d8b34:	88 c8       	add45 $r6,$r8
  3d8b36:	80 27       	mov55 $r1,$r7
  3d8b38:	a0 31       	lwi333 $r0,[$r6+#0x4]
  3d8b3a:	50 2f 80 07 	addi $r2,$sp,#0x7
  3d8b3e:	49 ff fe 7b 	jal 3d8834 <Retry_ReadGetDmaInfor>
  3d8b42:	fc c1       	pop25 $r10,#8    ! {$r6~$r10, $fp, $gp, $lp}

003d8b44 <Retry_ReadDMA>:
  3d8b44:	fc 21       	push25 $r8,#8    ! {$r6~$r8, $fp, $gp, $lp}
  3d8b46:	80 c2       	mov55 $r6,$r2
  3d8b48:	a4 90       	lhi333 $r2,[$r2+#0x0]
  3d8b4a:	80 e0       	mov55 $r7,$r0
  3d8b4c:	49 ff fd df 	jal 3d870a <Fdl_MCUReadCacheCmd>
  3d8b50:	84 60       	movi55 $r3,#0x0
  3d8b52:	3c 2d fd 62 	lwi.gp $r2,[+#-2680]
  3d8b56:	80 07       	mov55 $r0,$r7
  3d8b58:	00 13 00 19 	lbi $r1,[$r6+#0x19]
  3d8b5c:	00 21 01 ba 	lbi $r2,[$r2+#0x1ba]
  3d8b60:	49 00 11 2e 	jal 3dadbc <HAL_McuSetMask>
  3d8b64:	80 07       	mov55 $r0,$r7
  3d8b66:	a0 71       	lwi333 $r1,[$r6+#0x4]
  3d8b68:	a4 b1       	lhi333 $r2,[$r6+#0x2]
  3d8b6a:	49 00 11 32 	jal 3dadce <HAL_McuSetRndSeed>
  3d8b6e:	a0 73       	lwi333 $r1,[$r6+#0xc]
  3d8b70:	00 23 00 1c 	lbi $r2,[$r6+#0x1c]
  3d8b74:	00 33 00 1a 	lbi $r3,[$r6+#0x1a]
  3d8b78:	84 81       	movi55 $r4,#0x1
  3d8b7a:	80 07       	mov55 $r0,$r7
  3d8b7c:	49 00 10 f3 	jal 3dad62 <HAL_McuSetUd>
  3d8b80:	80 07       	mov55 $r0,$r7
  3d8b82:	49 00 0b 34 	jal 3da1ea <HAL_ADMGetJointMode>
  3d8b86:	00 13 00 1b 	lbi $r1,[$r6+#0x1b]
  3d8b8a:	f0 81       	swi37.sp $r0,[+#0x4]
  3d8b8c:	b6 3f       	swi450 $r1,[$sp]
  3d8b8e:	80 07       	mov55 $r0,$r7
  3d8b90:	a0 74       	lwi333 $r1,[$r6+#0x10]
  3d8b92:	00 53 00 18 	lbi $r5,[$r6+#0x18]
  3d8b96:	a0 b5       	lwi333 $r2,[$r6+#0x14]
  3d8b98:	84 61       	movi55 $r3,#0x1
  3d8b9a:	a1 32       	lwi333 $r4,[$r6+#0x8]
  3d8b9c:	49 00 0b 99 	jal 3da2ce <HAL_ADMStartDMA2>
  3d8ba0:	3e 0d 25 e4 	addi.gp $r0,#-186908
  3d8ba4:	38 10 1e 02 	lw $r1,[$r0+($r7<<#0x2)]
  3d8ba8:	a0 0d       	lwi333 $r0,[$r1+#0x14]
  3d8baa:	92 01       	srli45 $r0,#0x1
  3d8bac:	96 06       	bmski33 $r0,#0x0
  3d8bae:	c0 fd       	beqz38 $r0,3d8ba8 <Retry_ReadDMA+0x64>
  3d8bb0:	fc a1       	pop25 $r8,#8    ! {$r6~$r8, $fp, $gp, $lp}

003d8bb2 <RetryInfoRcd>:
  3d8bb2:	40 00 60 08 	slli $r0,$r0,#0x18
  3d8bb6:	40 10 e8 08 	slli $r1,$r1,#0x1a
  3d8bba:	fe 47       	or33 $r1,$r0
  3d8bbc:	3c 0d fd 62 	lwi.gp $r0,[+#-2680]
  3d8bc0:	00 40 01 a9 	lbi $r4,[$r0+#0x1a9]
  3d8bc4:	40 01 a0 08 	slli $r0,$r3,#0x8
  3d8bc8:	fe a5       	xor33 $r2,$r4
  3d8bca:	e6 41       	slti45 $r2,#0x1
  3d8bcc:	40 f7 f8 08 	slli $r15,$r15,#0x1e
  3d8bd0:	92 78       	srli45 $r3,#0x18
  3d8bd2:	40 10 bc 04 	or $r1,$r1,$r15
  3d8bd6:	92 08       	srli45 $r0,#0x8
  3d8bd8:	96 cf       	fexti33 $r3,#0x1
  3d8bda:	fe 0f       	or33 $r0,$r1
  3d8bdc:	40 31 f0 08 	slli $r3,$r3,#0x1c
  3d8be0:	fe 1f       	or33 $r0,$r3
  3d8be2:	dd 9e       	ret5 $lp

003d8be4 <Retry_MultiDMA>:
  3d8be4:	fc 4a       	push25 $r10,#80    ! {$r6~$r10, $fp, $gp, $lp}
  3d8be6:	f0 87       	swi37.sp $r0,[+#0x1c]
  3d8be8:	f1 82       	swi37.sp $r1,[+#0x8]
  3d8bea:	f2 88       	swi37.sp $r2,[+#0x20]
  3d8bec:	c8 03       	bnez38 $r0,3d8bf2 <Retry_MultiDMA+0xe>
  3d8bee:	84 01       	movi55 $r0,#0x1
  3d8bf0:	f0 87       	swi37.sp $r0,[+#0x1c]
  3d8bf2:	84 e0       	movi55 $r7,#0x0
  3d8bf4:	81 27       	mov55 $r9,$r7
  3d8bf6:	3e af e9 60 	addi.gp $r10,#-5792
  3d8bfa:	84 00       	movi55 $r0,#0x0
  3d8bfc:	80 20       	mov55 $r1,$r0
  3d8bfe:	49 00 16 6e 	jal 3db8da <HAL_MCU_GetOwnership>
  3d8c02:	95 bc       	slli333 $r6,$r7,#0x4
  3d8c04:	3e 0f e9 76 	addi.gp $r0,#-5770
  3d8c08:	88 c0       	add45 $r6,$r0
  3d8c0a:	87 80       	movi55 $fp,#0x0
  3d8c0c:	3e 8f ea 90 	addi.gp $r8,#-5488
  3d8c10:	40 0e 28 00 	add $r0,$fp,$r10
  3d8c14:	54 4e 00 ff 	andi $r4,$fp,#0xff
  3d8c18:	38 10 1c 00 	lb $r1,[$r0+($r7<<#0x0)]
  3d8c1c:	c9 2e       	bnez38 $r1,3d8c78 <Retry_MultiDMA+0x94>
  3d8c1e:	40 1e 20 00 	add $r1,$fp,$r8
  3d8c22:	38 10 9c 00 	lb $r1,[$r1+($r7<<#0x0)]
  3d8c26:	c1 29       	beqz38 $r1,3d8c78 <Retry_MultiDMA+0x94>
  3d8c28:	84 21       	movi55 $r1,#0x1
  3d8c2a:	38 10 1c 08 	sb $r1,[$r0+($r7<<#0x0)]
  3d8c2e:	00 23 7f fa 	lbi $r2,[$r6+#-6]
  3d8c32:	80 09       	mov55 $r0,$r9
  3d8c34:	80 24       	mov55 $r1,$r4
  3d8c36:	b0 cc       	addri36.sp $r3,#0x30
  3d8c38:	b6 9f       	swi450 $r4,[$sp]
  3d8c3a:	49 ff ff 38 	jal 3d8aaa <Retry_GetDmaInfor>
  3d8c3e:	a6 31       	lbi333 $r0,[$r6+#0x1]
  3d8c40:	b4 9f       	lwi450 $r4,[$sp]
  3d8c42:	c8 0f       	bnez38 $r0,3d8c60 <Retry_MultiDMA+0x7c>
  3d8c44:	a6 30       	lbi333 $r0,[$r6+#0x0]
  3d8c46:	c0 0d       	beqz38 $r0,3d8c60 <Retry_MultiDMA+0x7c>
  3d8c48:	00 03 7f fe 	lbi $r0,[$r6+#-2]
  3d8c4c:	c8 0a       	bnez38 $r0,3d8c60 <Retry_MultiDMA+0x7c>
  3d8c4e:	3e 0f ea 70 	addi.gp $r0,#-5520
  3d8c52:	88 1c       	add45 $r0,$fp
  3d8c54:	38 00 1c 00 	lb $r0,[$r0+($r7<<#0x0)]
  3d8c58:	10 03 7f ff 	sbi $r0,[$r6+#-1]
  3d8c5c:	84 1f       	movi55 $r0,#-1
  3d8c5e:	ac 32       	shi333 $r0,[$r6+#0x4]
  3d8c60:	f2 0d       	lwi37.sp $r2,[+#0x34]
  3d8c62:	80 24       	mov55 $r1,$r4
  3d8c64:	40 21 20 08 	slli $r2,$r2,#0x8
  3d8c68:	80 09       	mov55 $r0,$r9
  3d8c6a:	92 48       	srli45 $r2,#0x8
  3d8c6c:	02 3f 80 18 	lhi $r3,[$sp+#0x30]
  3d8c70:	00 4f 80 37 	lbi $r4,[$sp+#0x37]
  3d8c74:	49 ff fd 2d 	jal 3d86ce <Fdl_MCUSendPreReadCmd>
  3d8c78:	51 ce 00 01 	addi $fp,$fp,#0x1
  3d8c7c:	8c d0       	addi45 $r6,#0x10
  3d8c7e:	5b c8 04 c9 	bnec $fp,#0x4,3d8c10 <Retry_MultiDMA+0x2c>
  3d8c82:	84 00       	movi55 $r0,#0x0
  3d8c84:	80 20       	mov55 $r1,$r0
  3d8c86:	49 00 16 47 	jal 3db914 <HAL_MCU_ReleaseOwnership>
  3d8c8a:	50 04 80 01 	addi $r0,$r9,#0x1
  3d8c8e:	54 90 00 ff 	andi $r9,$r0,#0xff
  3d8c92:	8c e4       	addi45 $r7,#0x4
  3d8c94:	5a 98 04 b3 	bnec $r9,#0x4,3d8bfa <Retry_MultiDMA+0x16>
  3d8c98:	85 00       	movi55 $r8,#0x0
  3d8c9a:	80 c8       	mov55 $r6,$r8
  3d8c9c:	40 14 10 08 	slli $r1,$r8,#0x4
  3d8ca0:	3e 0f e9 70 	addi.gp $r0,#-5776
  3d8ca4:	40 a0 80 00 	add $r10,$r1,$r0
  3d8ca8:	84 e0       	movi55 $r7,#0x0
  3d8caa:	3f cf ea 90 	addi.gp $fp,#-5488
  3d8cae:	3e 0f e9 60 	addi.gp $r0,#-5792
  3d8cb2:	88 07       	add45 $r0,$r7
  3d8cb4:	54 93 80 ff 	andi $r9,$r7,#0xff
  3d8cb8:	38 10 20 00 	lb $r1,[$r0+($r8<<#0x0)]
  3d8cbc:	5a 18 01 31 	bnec $r1,#0x1,3d8d1e <Retry_MultiDMA+0x13a>
  3d8cc0:	40 13 f0 00 	add $r1,$r7,$fp
  3d8cc4:	38 10 a0 00 	lb $r1,[$r1+($r8<<#0x0)]
  3d8cc8:	c1 2b       	beqz38 $r1,3d8d1e <Retry_MultiDMA+0x13a>
  3d8cca:	84 22       	movi55 $r1,#0x2
  3d8ccc:	38 10 20 08 	sb $r1,[$r0+($r8<<#0x0)]
  3d8cd0:	80 29       	mov55 $r1,$r9
  3d8cd2:	80 06       	mov55 $r0,$r6
  3d8cd4:	49 00 15 c1 	jal 3db856 <HAL_MCUCheckStatus>
  3d8cd8:	94 bc       	slli333 $r2,$r7,#0x4
  3d8cda:	b6 1f       	swi450 $r0,[$sp]
  3d8cdc:	80 29       	mov55 $r1,$r9
  3d8cde:	80 06       	mov55 $r0,$r6
  3d8ce0:	38 25 08 00 	lb $r2,[$r10+($r2<<#0x0)]
  3d8ce4:	b0 cc       	addri36.sp $r3,#0x30
  3d8ce6:	49 ff fe e2 	jal 3d8aaa <Retry_GetDmaInfor>
  3d8cea:	b4 1f       	lwi450 $r0,[$sp]
  3d8cec:	c8 11       	bnez38 $r0,3d8d0e <Retry_MultiDMA+0x12a>
  3d8cee:	f2 0d       	lwi37.sp $r2,[+#0x34]
  3d8cf0:	80 06       	mov55 $r0,$r6
  3d8cf2:	40 21 20 08 	slli $r2,$r2,#0x8
  3d8cf6:	80 29       	mov55 $r1,$r9
  3d8cf8:	92 48       	srli45 $r2,#0x8
  3d8cfa:	02 3f 80 18 	lhi $r3,[$sp+#0x30]
  3d8cfe:	00 4f 80 37 	lbi $r4,[$sp+#0x37]
  3d8d02:	49 ff fc e6 	jal 3d86ce <Fdl_MCUSendPreReadCmd>
  3d8d06:	80 06       	mov55 $r0,$r6
  3d8d08:	80 29       	mov55 $r1,$r9
  3d8d0a:	49 00 15 a6 	jal 3db856 <HAL_MCUCheckStatus>
  3d8d0e:	84 01       	movi55 $r0,#0x1
  3d8d10:	49 00 1b f8 	jal 3dc500 <delay_us>
  3d8d14:	80 06       	mov55 $r0,$r6
  3d8d16:	80 29       	mov55 $r1,$r9
  3d8d18:	b0 8c       	addri36.sp $r2,#0x30
  3d8d1a:	49 ff ff 15 	jal 3d8b44 <Retry_ReadDMA>
  3d8d1e:	8c e1       	addi45 $r7,#0x1
  3d8d20:	5a 78 04 c7 	bnec $r7,#0x4,3d8cae <Retry_MultiDMA+0xca>
  3d8d24:	8c c1       	addi45 $r6,#0x1
  3d8d26:	97 b0       	zeb33 $r6,$r6
  3d8d28:	8d 04       	addi45 $r8,#0x4
  3d8d2a:	5a 68 04 b9 	bnec $r6,#0x4,3d8c9c <Retry_MultiDMA+0xb8>
  3d8d2e:	85 20       	movi55 $r9,#0x0
  3d8d30:	54 04 80 ff 	andi $r0,$r9,#0xff
  3d8d34:	f0 85       	swi37.sp $r0,[+#0x14]
  3d8d36:	40 04 88 08 	slli $r0,$r9,#0x2
  3d8d3a:	f0 81       	swi37.sp $r0,[+#0x4]
  3d8d3c:	f1 01       	lwi37.sp $r1,[+#0x4]
  3d8d3e:	3e 0f ea 80 	addi.gp $r0,#-5504
  3d8d42:	88 01       	add45 $r0,$r1
  3d8d44:	f0 84       	swi37.sp $r0,[+#0x10]
  3d8d46:	40 64 98 08 	slli $r6,$r9,#0x6
  3d8d4a:	3e 0f e9 74 	addi.gp $r0,#-5772
  3d8d4e:	88 c0       	add45 $r6,$r0
  3d8d50:	3e 0f ea 70 	addi.gp $r0,#-5520
  3d8d54:	88 01       	add45 $r0,$r1
  3d8d56:	f0 83       	swi37.sp $r0,[+#0xc]
  3d8d58:	3e 0f ea 90 	addi.gp $r0,#-5488
  3d8d5c:	88 01       	add45 $r0,$r1
  3d8d5e:	b6 1f       	swi450 $r0,[$sp]
  3d8d60:	85 40       	movi55 $r10,#0x0
  3d8d62:	3e 0f e9 60 	addi.gp $r0,#-5792
  3d8d66:	f1 01       	lwi37.sp $r1,[+#0x4]
  3d8d68:	88 0a       	add45 $r0,$r10
  3d8d6a:	54 45 00 ff 	andi $r4,$r10,#0xff
  3d8d6e:	38 10 04 00 	lb $r1,[$r0+($r1<<#0x0)]
  3d8d72:	5a 10 02 04 	beqc $r1,#0x2,3d8d7a <Retry_MultiDMA+0x196>
  3d8d76:	48 00 01 8c 	j 3d908e <Retry_MultiDMA+0x4aa>
  3d8d7a:	b4 3f       	lwi450 $r1,[$sp]
  3d8d7c:	a6 48       	lbi333 $r1,[$r1+#0x0]
  3d8d7e:	4e 12 01 88 	beqz $r1,3d908e <Retry_MultiDMA+0x4aa>
  3d8d82:	f2 01       	lwi37.sp $r2,[+#0x4]
  3d8d84:	84 20       	movi55 $r1,#0x0
  3d8d86:	b0 cc       	addri36.sp $r3,#0x30
  3d8d88:	38 10 08 08 	sb $r1,[$r0+($r2<<#0x0)]
  3d8d8c:	80 24       	mov55 $r1,$r4
  3d8d8e:	f0 05       	lwi37.sp $r0,[+#0x14]
  3d8d90:	00 23 7f fc 	lbi $r2,[$r6+#-4]
  3d8d94:	f4 89       	swi37.sp $r4,[+#0x24]
  3d8d96:	49 ff fe 8a 	jal 3d8aaa <Retry_GetDmaInfor>
  3d8d9a:	f1 01       	lwi37.sp $r1,[+#0x4]
  3d8d9c:	3e 0d 25 e4 	addi.gp $r0,#-186908
  3d8da0:	f4 09       	lwi37.sp $r4,[+#0x24]
  3d8da2:	38 00 04 02 	lw $r0,[$r0+($r1<<#0x0)]
  3d8da6:	f0 86       	swi37.sp $r0,[+#0x18]
  3d8da8:	f0 06       	lwi37.sp $r0,[+#0x18]
  3d8daa:	a0 05       	lwi333 $r0,[$r0+#0x14]
  3d8dac:	92 02       	srli45 $r0,#0x2
  3d8dae:	96 06       	bmski33 $r0,#0x0
  3d8db0:	c0 fc       	beqz38 $r0,3d8da8 <Retry_MultiDMA+0x1c4>
  3d8db2:	f2 11       	lwi37.sp $r2,[+#0x44]
  3d8db4:	a5 d0       	lhi333 $r7,[$r2+#0x0]
  3d8db6:	40 53 b4 09 	srli $r5,$r7,#0xd
  3d8dba:	40 52 b4 08 	slli $r5,$r5,#0xd
  3d8dbe:	cd 10       	bnez38 $r5,3d8dde <Retry_MultiDMA+0x1fa>
  3d8dc0:	54 13 8f ff 	andi $r1,$r7,#0xfff
  3d8dc4:	94 49       	slli333 $r1,$r1,#0x1
  3d8dc6:	44 00 01 80 	movi $r0,#0x180
  3d8dca:	e0 01       	slts45 $r0,$r1
  3d8dcc:	4e f2 01 04 	beqz $r15,3d8fd4 <Retry_MultiDMA+0x3f0>
  3d8dd0:	3c 0c 02 af 	lwi.gp $r0,[+#0xabc]
  3d8dd4:	a6 06       	lbi333 $r0,[$r0+#0x6]
  3d8dd6:	5a 00 05 04 	beqc $r0,#0x5,3d8dde <Retry_MultiDMA+0x1fa>
  3d8dda:	48 00 00 fd 	j 3d8fd4 <Retry_MultiDMA+0x3f0>
  3d8dde:	a6 33       	lbi333 $r0,[$r6+#0x3]
  3d8de0:	5a 00 01 26 	beqc $r0,#0x1,3d8e2c <Retry_MultiDMA+0x248>
  3d8de4:	a6 35       	lbi333 $r0,[$r6+#0x5]
  3d8de6:	c0 11       	beqz38 $r0,3d8e08 <Retry_MultiDMA+0x224>
  3d8de8:	a4 73       	lhi333 $r1,[$r6+#0x6]
  3d8dea:	54 03 9f ff 	andi $r0,$r7,#0x1fff
  3d8dee:	e0 01       	slts45 $r0,$r1
  3d8df0:	e8 21       	beqzs8 3d8e32 <Retry_MultiDMA+0x24e>
  3d8df2:	ac 33       	shi333 $r0,[$r6+#0x6]
  3d8df4:	a6 71       	lbi333 $r1,[$r6+#0x1]
  3d8df6:	a6 30       	lbi333 $r0,[$r6+#0x0]
  3d8df8:	88 20       	add45 $r1,$r0
  3d8dfa:	84 00       	movi55 $r0,#0x0
  3d8dfc:	40 10 80 76 	divsr $r1,$r3,$r1,$r0
  3d8e00:	f1 03       	lwi37.sp $r1,[+#0xc]
  3d8e02:	81 e0       	mov55 $r15,$r0
  3d8e04:	ae c8       	sbi333 $r3,[$r1+#0x0]
  3d8e06:	d5 1d       	j8 3d8e40 <Retry_MultiDMA+0x25c>
  3d8e08:	a6 32       	lbi333 $r0,[$r6+#0x2]
  3d8e0a:	5a 08 01 16 	bnec $r0,#0x1,3d8e36 <Retry_MultiDMA+0x252>
  3d8e0e:	a4 73       	lhi333 $r1,[$r6+#0x6]
  3d8e10:	54 03 9f ff 	andi $r0,$r7,#0x1fff
  3d8e14:	e0 01       	slts45 $r0,$r1
  3d8e16:	e8 13       	beqzs8 3d8e3c <Retry_MultiDMA+0x258>
  3d8e18:	a6 71       	lbi333 $r1,[$r6+#0x1]
  3d8e1a:	ac 33       	shi333 $r0,[$r6+#0x6]
  3d8e1c:	a6 30       	lbi333 $r0,[$r6+#0x0]
  3d8e1e:	88 01       	add45 $r0,$r1
  3d8e20:	f1 02       	lwi37.sp $r1,[+#0x8]
  3d8e22:	40 00 04 36 	divsr $r0,$r1,$r0,$r1
  3d8e26:	f0 03       	lwi37.sp $r0,[+#0xc]
  3d8e28:	ae 40       	sbi333 $r1,[$r0+#0x0]
  3d8e2a:	d5 09       	j8 3d8e3c <Retry_MultiDMA+0x258>
  3d8e2c:	04 ff 80 08 	lwi $r15,[$sp+#0x20]
  3d8e30:	d5 08       	j8 3d8e40 <Retry_MultiDMA+0x25c>
  3d8e32:	85 e0       	movi55 $r15,#0x0
  3d8e34:	d5 06       	j8 3d8e40 <Retry_MultiDMA+0x25c>
  3d8e36:	04 ff 80 07 	lwi $r15,[$sp+#0x1c]
  3d8e3a:	d5 03       	j8 3d8e40 <Retry_MultiDMA+0x25c>
  3d8e3c:	04 ff 80 02 	lwi $r15,[$sp+#0x8]
  3d8e40:	a6 70       	lbi333 $r1,[$r6+#0x0]
  3d8e42:	8c 21       	addi45 $r1,#0x1
  3d8e44:	96 48       	zeb33 $r1,$r1
  3d8e46:	e2 2f       	slt45 $r1,$r15
  3d8e48:	ae 70       	sbi333 $r1,[$r6+#0x0]
  3d8e4a:	4e f3 01 22 	bnez $r15,3d908e <Retry_MultiDMA+0x4aa>
  3d8e4e:	44 00 a0 00 	movi $r0,#0xa000
  3d8e52:	4c 50 41 e5 	bne $r5,$r0,3d921c <Retry_MultiDMA+0x638>
  3d8e56:	3c 0c 02 af 	lwi.gp $r0,[+#0xabc]
  3d8e5a:	a6 06       	lbi333 $r0,[$r0+#0x6]
  3d8e5c:	5a 00 04 04 	beqc $r0,#0x4,3d8e64 <Retry_MultiDMA+0x280>
  3d8e60:	48 00 01 0e 	j 3d907c <Retry_MultiDMA+0x498>
  3d8e64:	d5 04       	j8 3d8e6c <Retry_MultiDMA+0x288>
  3d8e66:	44 00 a0 00 	movi $r0,#0xa000
  3d8e6a:	d8 07       	bnes38 $r0,3d8e78 <Retry_MultiDMA+0x294>
  3d8e6c:	85 00       	movi55 $r8,#0x0
  3d8e6e:	3c 0c 02 af 	lwi.gp $r0,[+#0xabc]
  3d8e72:	a6 06       	lbi333 $r0,[$r0+#0x6]
  3d8e74:	5a 00 04 16 	beqc $r0,#0x4,3d8ea0 <Retry_MultiDMA+0x2bc>
  3d8e78:	a5 d0       	lhi333 $r7,[$r2+#0x0]
  3d8e7a:	97 f9       	zeh33 $r7,$r7
  3d8e7c:	40 03 b4 09 	srli $r0,$r7,#0xd
  3d8e80:	c8 0f       	bnez38 $r0,3d8e9e <Retry_MultiDMA+0x2ba>
  3d8e82:	54 13 8f ff 	andi $r1,$r7,#0xfff
  3d8e86:	94 49       	slli333 $r1,$r1,#0x1
  3d8e88:	44 00 01 80 	movi $r0,#0x180
  3d8e8c:	e0 01       	slts45 $r0,$r1
  3d8e8e:	e8 06       	beqzs8 3d8e9a <Retry_MultiDMA+0x2b6>
  3d8e90:	3c 0c 02 af 	lwi.gp $r0,[+#0xabc]
  3d8e94:	a6 06       	lbi333 $r0,[$r0+#0x6]
  3d8e96:	5a 00 05 04 	beqc $r0,#0x5,3d8e9e <Retry_MultiDMA+0x2ba>
  3d8e9a:	85 04       	movi55 $r8,#0x4
  3d8e9c:	d5 02       	j8 3d8ea0 <Retry_MultiDMA+0x2bc>
  3d8e9e:	85 07       	movi55 $r8,#0x7
  3d8ea0:	41 c3 b4 09 	srli $fp,$r7,#0xd
  3d8ea4:	41 ce 34 08 	slli $fp,$fp,#0xd
  3d8ea8:	4f c2 00 70 	beqz $fp,3d8f88 <Retry_MultiDMA+0x3a4>
  3d8eac:	00 13 00 08 	lbi $r1,[$r6+#0x8]
  3d8eb0:	c1 10       	beqz38 $r1,3d8ed0 <Retry_MultiDMA+0x2ec>
  3d8eb2:	84 00       	movi55 $r0,#0x0
  3d8eb4:	8e 21       	subi45 $r1,#0x1
  3d8eb6:	ae 34       	sbi333 $r0,[$r6+#0x4]
  3d8eb8:	ae 33       	sbi333 $r0,[$r6+#0x3]
  3d8eba:	ae 30       	sbi333 $r0,[$r6+#0x0]
  3d8ebc:	ae 32       	sbi333 $r0,[$r6+#0x2]
  3d8ebe:	ae 35       	sbi333 $r0,[$r6+#0x5]
  3d8ec0:	10 13 00 08 	sbi $r1,[$r6+#0x8]
  3d8ec4:	f0 05       	lwi37.sp $r0,[+#0x14]
  3d8ec6:	80 24       	mov55 $r1,$r4
  3d8ec8:	49 00 07 fa 	jal 3d9ebc <FDL_FlashIFModeInit>
  3d8ecc:	48 00 00 e1 	j 3d908e <Retry_MultiDMA+0x4aa>
  3d8ed0:	f0 06       	lwi37.sp $r0,[+#0x18]
  3d8ed2:	b4 00       	lwi450 $r0,[$r0]
  3d8ed4:	92 04       	srli45 $r0,#0x4
  3d8ed6:	96 0f       	fexti33 $r0,#0x1
  3d8ed8:	c0 39       	beqz38 $r0,3d8f4a <Retry_MultiDMA+0x366>
  3d8eda:	b0 8c       	addri36.sp $r2,#0x30
  3d8edc:	00 01 00 19 	lbi $r0,[$r2+#0x19]
  3d8ee0:	c8 15       	bnez38 $r0,3d8f0a <Retry_MultiDMA+0x326>
  3d8ee2:	46 00 05 e2 	sethi $r0,#0x5e2
  3d8ee6:	02 10 00 10 	lhi $r1,[$r0+#0x20]
  3d8eea:	a0 12       	lwi333 $r0,[$r2+#0x8]
  3d8eec:	40 10 04 17 	divr $r1,$r0,$r0,$r1
  3d8ef0:	96 01       	zeh33 $r0,$r0
  3d8ef2:	3c 1d fd 62 	lwi.gp $r1,[+#-2680]
  3d8ef6:	00 20 81 ac 	lbi $r2,[$r1+#0x1ac]
  3d8efa:	84 21       	movi55 $r1,#0x1
  3d8efc:	40 10 88 0c 	sll $r1,$r1,$r2
  3d8f00:	8e 21       	subi45 $r1,#0x1
  3d8f02:	96 49       	zeh33 $r1,$r1
  3d8f04:	49 00 0a b3 	jal 3da46a <HAL_RTY_BFCSetBuffStatus>
  3d8f08:	d5 21       	j8 3d8f4a <Retry_MultiDMA+0x366>
  3d8f0a:	46 30 05 e2 	sethi $r3,#0x5e2
  3d8f0e:	3c 0d fd 62 	lwi.gp $r0,[+#-2680]
  3d8f12:	00 00 01 ac 	lbi $r0,[$r0+#0x1ac]
  3d8f16:	e2 20       	slt45 $r1,$r0
  3d8f18:	e8 19       	beqzs8 3d8f4a <Retry_MultiDMA+0x366>
  3d8f1a:	00 01 00 19 	lbi $r0,[$r2+#0x19]
  3d8f1e:	40 00 04 0e 	sra $r0,$r0,$r1
  3d8f22:	96 06       	bmski33 $r0,#0x0
  3d8f24:	c8 10       	bnez38 $r0,3d8f44 <Retry_MultiDMA+0x360>
  3d8f26:	a1 12       	lwi333 $r4,[$r2+#0x8]
  3d8f28:	02 51 80 10 	lhi $r5,[$r3+#0x20]
  3d8f2c:	98 0c       	add333 $r0,$r1,$r4
  3d8f2e:	40 40 14 17 	divr $r4,$r0,$r0,$r5
  3d8f32:	96 01       	zeh33 $r0,$r0
  3d8f34:	f3 8b       	swi37.sp $r3,[+#0x2c]
  3d8f36:	f2 8a       	swi37.sp $r2,[+#0x28]
  3d8f38:	f1 89       	swi37.sp $r1,[+#0x24]
  3d8f3a:	49 00 0a bb 	jal 3da4b0 <HAL_RTY_BFCSetBuffStatusBit>
  3d8f3e:	f3 0b       	lwi37.sp $r3,[+#0x2c]
  3d8f40:	f2 0a       	lwi37.sp $r2,[+#0x28]
  3d8f42:	f1 09       	lwi37.sp $r1,[+#0x24]
  3d8f44:	8c 21       	addi45 $r1,#0x1
  3d8f46:	96 48       	zeb33 $r1,$r1
  3d8f48:	d5 e3       	j8 3d8f0e <Retry_MultiDMA+0x32a>
  3d8f4a:	2e 00 0a a1 	lbi.gp $r0,[+#0xaa1]
  3d8f4e:	5a 08 01 1d 	bnec $r0,#0x1,3d8f88 <Retry_MultiDMA+0x3a4>
  3d8f52:	3c 0c 02 63 	lwi.gp $r0,[+#0x98c]
  3d8f56:	5a 08 04 19 	bnec $r0,#0x4,3d8f88 <Retry_MultiDMA+0x3a4>
  3d8f5a:	f0 0e       	lwi37.sp $r0,[+#0x38]
  3d8f5c:	f1 10       	lwi37.sp $r1,[+#0x40]
  3d8f5e:	00 2f 80 4b 	lbi $r2,[$sp+#0x4b]
  3d8f62:	40 00 24 08 	slli $r0,$r0,#0x9
  3d8f66:	88 01       	add45 $r0,$r1
  3d8f68:	40 21 24 08 	slli $r2,$r2,#0x9
  3d8f6c:	44 10 00 ff 	movi $r1,#0xff
  3d8f70:	49 00 1b fc 	jal 3dc768 <U08MemSet>
  3d8f74:	f1 0f       	lwi37.sp $r1,[+#0x3c]
  3d8f76:	00 0f 80 48 	lbi $r0,[$sp+#0x48]
  3d8f7a:	00 2f 80 4a 	lbi $r2,[$sp+#0x4a]
  3d8f7e:	88 01       	add45 $r0,$r1
  3d8f80:	44 10 00 ff 	movi $r1,#0xff
  3d8f84:	49 00 1b f2 	jal 3dc768 <U08MemSet>
  3d8f88:	f1 06       	lwi37.sp $r1,[+#0x18]
  3d8f8a:	84 00       	movi55 $r0,#0x0
  3d8f8c:	a8 0d       	swi333 $r0,[$r1+#0x14]
  3d8f8e:	3e 0f ea 90 	addi.gp $r0,#-5488
  3d8f92:	2e 17 f5 50 	lbi.gp $r1,[+#-2736]
  3d8f96:	c9 51       	bnez38 $r1,3d9038 <Retry_MultiDMA+0x454>
  3d8f98:	b4 3f       	lwi450 $r1,[$sp]
  3d8f9a:	04 23 7f ff 	lwi $r2,[$r6+#-4]
  3d8f9e:	00 10 80 20 	lbi $r1,[$r1+#0x20]
  3d8fa2:	88 22       	add45 $r1,$r2
  3d8fa4:	44 20 a0 00 	movi $r2,#0xa000
  3d8fa8:	96 48       	zeb33 $r1,$r1
  3d8faa:	4d c1 40 07 	bne $fp,$r2,3d8fb8 <Retry_MultiDMA+0x3d4>
  3d8fae:	84 4c       	movi55 $r2,#0xc
  3d8fb0:	42 00 88 73 	maddr32 $r0,$r1,$r2
  3d8fb4:	84 3f       	movi55 $r1,#-1
  3d8fb6:	d5 07       	j8 3d8fc4 <Retry_MultiDMA+0x3e0>
  3d8fb8:	4f c3 00 08 	bnez $fp,3d8fc8 <Retry_MultiDMA+0x3e4>
  3d8fbc:	84 4c       	movi55 $r2,#0xc
  3d8fbe:	42 00 88 73 	maddr32 $r0,$r1,$r2
  3d8fc2:	84 34       	movi55 $r1,#-12
  3d8fc4:	10 10 04 3d 	sbi $r1,[$r0+#0x43d]
  3d8fc8:	3c 0d fa b0 	lwi.gp $r0,[+#-5440]
  3d8fcc:	8e 01       	subi45 $r0,#0x1
  3d8fce:	3c 0f fa b0 	swi.gp $r0,[+#-5440]
  3d8fd2:	d5 33       	j8 3d9038 <Retry_MultiDMA+0x454>
  3d8fd4:	a6 73       	lbi333 $r1,[$r6+#0x3]
  3d8fd6:	5a 10 01 0a 	beqc $r1,#0x1,3d8fea <Retry_MultiDMA+0x406>
  3d8fda:	a6 35       	lbi333 $r0,[$r6+#0x5]
  3d8fdc:	c8 07       	bnez38 $r0,3d8fea <Retry_MultiDMA+0x406>
  3d8fde:	a6 32       	lbi333 $r0,[$r6+#0x2]
  3d8fe0:	85 01       	movi55 $r8,#0x1
  3d8fe2:	5a 08 01 05 	bnec $r0,#0x1,3d8fec <Retry_MultiDMA+0x408>
  3d8fe6:	85 02       	movi55 $r8,#0x2
  3d8fe8:	d5 02       	j8 3d8fec <Retry_MultiDMA+0x408>
  3d8fea:	85 03       	movi55 $r8,#0x3
  3d8fec:	2e 07 f5 50 	lbi.gp $r0,[+#-2736]
  3d8ff0:	c8 17       	bnez38 $r0,3d901e <Retry_MultiDMA+0x43a>
  3d8ff2:	b4 1f       	lwi450 $r0,[$sp]
  3d8ff4:	04 23 7f ff 	lwi $r2,[$r6+#-4]
  3d8ff8:	84 6c       	movi55 $r3,#0xc
  3d8ffa:	00 00 00 20 	lbi $r0,[$r0+#0x20]
  3d8ffe:	88 02       	add45 $r0,$r2
  3d9000:	96 00       	zeb33 $r0,$r0
  3d9002:	3e 2f ea 90 	addi.gp $r2,#-5488
  3d9006:	42 20 0c 73 	maddr32 $r2,$r0,$r3
  3d900a:	80 02       	mov55 $r0,$r2
  3d900c:	50 24 7f f0 	addi $r2,$r8,#-16
  3d9010:	10 20 04 3d 	sbi $r2,[$r0+#0x43d]
  3d9014:	3c 0d fa b0 	lwi.gp $r0,[+#-5440]
  3d9018:	8e 01       	subi45 $r0,#0x1
  3d901a:	3c 0f fa b0 	swi.gp $r0,[+#-5440]
  3d901e:	a6 32       	lbi333 $r0,[$r6+#0x2]
  3d9020:	5a 08 01 0c 	bnec $r0,#0x1,3d9038 <Retry_MultiDMA+0x454>
  3d9024:	5a 10 01 0a 	beqc $r1,#0x1,3d9038 <Retry_MultiDMA+0x454>
  3d9028:	a6 71       	lbi333 $r1,[$r6+#0x1]
  3d902a:	a6 30       	lbi333 $r0,[$r6+#0x0]
  3d902c:	88 01       	add45 $r0,$r1
  3d902e:	f1 02       	lwi37.sp $r1,[+#0x8]
  3d9030:	40 00 04 36 	divsr $r0,$r1,$r0,$r1
  3d9034:	f0 03       	lwi37.sp $r0,[+#0xc]
  3d9036:	ae 40       	sbi333 $r1,[$r0+#0x0]
  3d9038:	b4 1f       	lwi450 $r0,[$sp]
  3d903a:	b4 3f       	lwi450 $r1,[$sp]
  3d903c:	41 c3 b4 09 	srli $fp,$r7,#0xd
  3d9040:	a6 00       	lbi333 $r0,[$r0+#0x0]
  3d9042:	41 ce 34 08 	slli $fp,$fp,#0xd
  3d9046:	8e 01       	subi45 $r0,#0x1
  3d9048:	ae 08       	sbi333 $r0,[$r1+#0x0]
  3d904a:	04 03 7f ff 	lwi $r0,[$r6+#-4]
  3d904e:	8c 01       	addi45 $r0,#0x1
  3d9050:	14 03 7f ff 	swi $r0,[$r6+#-4]
  3d9054:	4f c3 00 32 	bnez $fp,3d90b8 <Retry_MultiDMA+0x4d4>
  3d9058:	5a 80 01 30 	beqc $r8,#0x1,3d90b8 <Retry_MultiDMA+0x4d4>
  3d905c:	3e 0f e8 c8 	addi.gp $r0,#-5944
  3d9060:	3e 1f e8 cc 	addi.gp $r1,#-5940
  3d9064:	38 00 24 00 	lb $r0,[$r0+($r9<<#0x0)]
  3d9068:	38 10 a8 00 	lb $r1,[$r1+($r10<<#0x0)]
  3d906c:	94 02       	slli333 $r0,$r0,#0x2
  3d906e:	88 01       	add45 $r0,$r1
  3d9070:	3e 1f e8 f4 	addi.gp $r1,#-5900
  3d9074:	88 01       	add45 $r0,$r1
  3d9076:	84 21       	movi55 $r1,#0x1
  3d9078:	ae 40       	sbi333 $r1,[$r0+#0x0]
  3d907a:	d5 1f       	j8 3d90b8 <Retry_MultiDMA+0x4d4>
  3d907c:	f0 02       	lwi37.sp $r0,[+#0x8]
  3d907e:	4e 02 fe f7 	beqz $r0,3d8e6c <Retry_MultiDMA+0x288>
  3d9082:	a6 32       	lbi333 $r0,[$r6+#0x2]
  3d9084:	4e 03 fe f1 	bnez $r0,3d8e66 <Retry_MultiDMA+0x282>
  3d9088:	84 21       	movi55 $r1,#0x1
  3d908a:	ae 72       	sbi333 $r1,[$r6+#0x2]
  3d908c:	ae 30       	sbi333 $r0,[$r6+#0x0]
  3d908e:	f0 04       	lwi37.sp $r0,[+#0x10]
  3d9090:	8d 41       	addi45 $r10,#0x1
  3d9092:	8c 01       	addi45 $r0,#0x1
  3d9094:	f0 84       	swi37.sp $r0,[+#0x10]
  3d9096:	f0 03       	lwi37.sp $r0,[+#0xc]
  3d9098:	8c d0       	addi45 $r6,#0x10
  3d909a:	8c 01       	addi45 $r0,#0x1
  3d909c:	f0 83       	swi37.sp $r0,[+#0xc]
  3d909e:	b4 1f       	lwi450 $r0,[$sp]
  3d90a0:	8c 01       	addi45 $r0,#0x1
  3d90a2:	b6 1f       	swi450 $r0,[$sp]
  3d90a4:	5a a0 04 04 	beqc $r10,#0x4,3d90ac <Retry_MultiDMA+0x4c8>
  3d90a8:	48 ff fe 5d 	j 3d8d62 <Retry_MultiDMA+0x17e>
  3d90ac:	8d 21       	addi45 $r9,#0x1
  3d90ae:	5a 90 04 04 	beqc $r9,#0x4,3d90b6 <Retry_MultiDMA+0x4d2>
  3d90b2:	48 ff fe 3f 	j 3d8d30 <Retry_MultiDMA+0x14c>
  3d90b6:	fc ca       	pop25 $r10,#80    ! {$r6~$r10, $fp, $gp, $lp}
  3d90b8:	f1 11       	lwi37.sp $r1,[+#0x44]
  3d90ba:	84 00       	movi55 $r0,#0x0
  3d90bc:	ae 32       	sbi333 $r0,[$r6+#0x2]
  3d90be:	ae 30       	sbi333 $r0,[$r6+#0x0]
  3d90c0:	ae 33       	sbi333 $r0,[$r6+#0x3]
  3d90c2:	ae 34       	sbi333 $r0,[$r6+#0x4]
  3d90c4:	ae 35       	sbi333 $r0,[$r6+#0x5]
  3d90c6:	a4 08       	lhi333 $r0,[$r1+#0x0]
  3d90c8:	54 00 3f ff 	andi $r0,$r0,#0x3fff
  3d90cc:	ac 08       	shi333 $r0,[$r1+#0x0]
  3d90ce:	5a 88 01 04 	bnec $r8,#0x1,3d90d6 <Retry_MultiDMA+0x4f2>
  3d90d2:	48 00 00 6e 	j 3d91ae <Retry_MultiDMA+0x5ca>
  3d90d6:	3e 0d 25 6c 	addi.gp $r0,#-187028
  3d90da:	f1 0d       	lwi37.sp $r1,[+#0x34]
  3d90dc:	49 00 18 55 	jal 3dc186 <PRINT_HEX>
  3d90e0:	3e 5f e8 cc 	addi.gp $r5,#-5940
  3d90e4:	3e 3f e8 c8 	addi.gp $r3,#-5944
  3d90e8:	80 4a       	mov55 $r2,$r10
  3d90ea:	38 42 a8 00 	lb $r4,[$r5+($r10<<#0x0)]
  3d90ee:	3e 0d 25 74 	addi.gp $r0,#-187020
  3d90f2:	80 29       	mov55 $r1,$r9
  3d90f4:	38 31 a4 00 	lb $r3,[$r3+($r9<<#0x0)]
  3d90f8:	f5 86       	swi37.sp $r5,[+#0x18]
  3d90fa:	49 00 18 8a 	jal 3dc20e <PRINT>
  3d90fe:	f5 06       	lwi37.sp $r5,[+#0x18]
  3d9100:	3c 0c 02 af 	lwi.gp $r0,[+#0xabc]
  3d9104:	a6 86       	lbi333 $r2,[$r0+#0x6]
  3d9106:	4e 23 00 54 	bnez $r2,3d91ae <Retry_MultiDMA+0x5ca>
  3d910a:	3e 0f e8 c8 	addi.gp $r0,#-5944
  3d910e:	3c 4d fd 73 	lwi.gp $r4,[+#-2612]
  3d9112:	38 00 24 00 	lb $r0,[$r0+($r9<<#0x0)]
  3d9116:	38 12 a8 00 	lb $r1,[$r5+($r10<<#0x0)]
  3d911a:	80 62       	mov55 $r3,$r2
  3d911c:	dd 24       	jral5 $r4
  3d911e:	4f c3 00 0e 	bnez $fp,3d913a <Retry_MultiDMA+0x556>
  3d9122:	54 13 8f ff 	andi $r1,$r7,#0xfff
  3d9126:	94 49       	slli333 $r1,$r1,#0x1
  3d9128:	44 00 01 80 	movi $r0,#0x180
  3d912c:	e0 01       	slts45 $r0,$r1
  3d912e:	e8 40       	beqzs8 3d91ae <Retry_MultiDMA+0x5ca>
  3d9130:	3c 0c 02 af 	lwi.gp $r0,[+#0xabc]
  3d9134:	a6 06       	lbi333 $r0,[$r0+#0x6]
  3d9136:	5a 08 05 3c 	bnec $r0,#0x5,3d91ae <Retry_MultiDMA+0x5ca>
  3d913a:	3f cf e8 cc 	addi.gp $fp,#-5940
  3d913e:	3e 0f e8 c8 	addi.gp $r0,#-5944
  3d9142:	00 2f 80 4c 	lbi $r2,[$sp+#0x4c]
  3d9146:	f3 0d       	lwi37.sp $r3,[+#0x34]
  3d9148:	38 1e 28 00 	lb $r1,[$fp+($r10<<#0x0)]
  3d914c:	38 00 24 00 	lb $r0,[$r0+($r9<<#0x0)]
  3d9150:	49 ff fd 31 	jal 3d8bb2 <RetryInfoRcd>
  3d9154:	f0 86       	swi37.sp $r0,[+#0x18]
  3d9156:	f1 06       	lwi37.sp $r1,[+#0x18]
  3d9158:	3e 0d 25 b0 	addi.gp $r0,#-186960
  3d915c:	49 00 18 15 	jal 3dc186 <PRINT_HEX>
  3d9160:	3e 0d 25 b8 	addi.gp $r0,#-186952
  3d9164:	02 1f 80 18 	lhi $r1,[$sp+#0x30]
  3d9168:	49 00 18 0f 	jal 3dc186 <PRINT_HEX>
  3d916c:	3e 0d 25 bc 	addi.gp $r0,#-186948
  3d9170:	3c 1c 02 63 	lwi.gp $r1,[+#0x98c]
  3d9174:	49 00 18 09 	jal 3dc186 <PRINT_HEX>
  3d9178:	3e 0d 25 c0 	addi.gp $r0,#-186944
  3d917c:	80 27       	mov55 $r1,$r7
  3d917e:	49 00 18 04 	jal 3dc186 <PRINT_HEX>
  3d9182:	84 43       	movi55 $r2,#0x3
  3d9184:	2e 07 f5 50 	lbi.gp $r0,[+#-2736]
  3d9188:	5a 00 02 03 	beqc $r0,#0x2,3d918e <Retry_MultiDMA+0x5aa>
  3d918c:	84 42       	movi55 $r2,#0x2
  3d918e:	3c 0c 02 63 	lwi.gp $r0,[+#0x98c]
  3d9192:	e6 0b       	slti45 $r0,#0xb
  3d9194:	e9 03       	bnezs8 3d919a <Retry_MultiDMA+0x5b6>
  3d9196:	58 21 00 10 	ori $r2,$r2,#0x10
  3d919a:	3e 0f e8 c8 	addi.gp $r0,#-5944
  3d919e:	3c 4d fd 73 	lwi.gp $r4,[+#-2612]
  3d91a2:	38 00 24 00 	lb $r0,[$r0+($r9<<#0x0)]
  3d91a6:	38 1e 28 00 	lb $r1,[$fp+($r10<<#0x0)]
  3d91aa:	f3 06       	lwi37.sp $r3,[+#0x18]
  3d91ac:	dd 24       	jral5 $r4
  3d91ae:	3f cf ea 90 	addi.gp $fp,#-5488
  3d91b2:	2e 07 f5 50 	lbi.gp $r0,[+#-2736]
  3d91b6:	4e 02 ff 6c 	beqz $r0,3d908e <Retry_MultiDMA+0x4aa>
  3d91ba:	80 27       	mov55 $r1,$r7
  3d91bc:	80 48       	mov55 $r2,$r8
  3d91be:	f0 05       	lwi37.sp $r0,[+#0x14]
  3d91c0:	49 ff fb 15 	jal 3d87ea <Retry_AnalyzeExceptionInfo>
  3d91c4:	f1 04       	lwi37.sp $r1,[+#0x10]
  3d91c6:	40 34 88 08 	slli $r3,$r9,#0x2
  3d91ca:	88 6a       	add45 $r3,$r10
  3d91cc:	a6 88       	lbi333 $r2,[$r1+#0x0]
  3d91ce:	94 dc       	slli333 $r3,$r3,#0x4
  3d91d0:	fe 17       	or33 $r0,$r2
  3d91d2:	96 80       	zeb33 $r2,$r0
  3d91d4:	ae 88       	sbi333 $r2,[$r1+#0x0]
  3d91d6:	04 13 7f ff 	lwi $r1,[$r6+#-4]
  3d91da:	b4 9f       	lwi450 $r4,[$sp]
  3d91dc:	88 61       	add45 $r3,$r1
  3d91de:	50 11 80 0b 	addi $r1,$r3,#0xb
  3d91e2:	94 4a       	slli333 $r1,$r1,#0x2
  3d91e4:	88 3c       	add45 $r1,$fp
  3d91e6:	00 0f 80 4c 	lbi $r0,[$sp+#0x4c]
  3d91ea:	a0 49       	lwi333 $r1,[$r1+#0x4]
  3d91ec:	a7 20       	lbi333 $r4,[$r4+#0x0]
  3d91ee:	40 10 80 37 	divr $r1,$r1,$r1,$r0
  3d91f2:	c4 08       	beqz38 $r4,3d9202 <Retry_MultiDMA+0x61e>
  3d91f4:	8c 6c       	addi45 $r3,#0xc
  3d91f6:	94 da       	slli333 $r3,$r3,#0x2
  3d91f8:	88 7c       	add45 $r3,$fp
  3d91fa:	a0 d9       	lwi333 $r3,[$r3+#0x4]
  3d91fc:	40 01 80 17 	divr $r0,$r0,$r3,$r0
  3d9200:	d5 02       	j8 3d9204 <Retry_MultiDMA+0x620>
  3d9202:	84 1f       	movi55 $r0,#-1
  3d9204:	4c 10 3f 45 	beq $r1,$r0,3d908e <Retry_MultiDMA+0x4aa>
  3d9208:	4e 22 ff 43 	beqz $r2,3d908e <Retry_MultiDMA+0x4aa>
  3d920c:	f0 05       	lwi37.sp $r0,[+#0x14]
  3d920e:	49 ff fa ad 	jal 3d8768 <Retry_SaveTaskException>
  3d9212:	f1 04       	lwi37.sp $r1,[+#0x10]
  3d9214:	84 00       	movi55 $r0,#0x0
  3d9216:	ae 08       	sbi333 $r0,[$r1+#0x0]
  3d9218:	48 ff ff 3b 	j 3d908e <Retry_MultiDMA+0x4aa>
  3d921c:	f0 02       	lwi37.sp $r0,[+#0x8]
  3d921e:	4e 03 ff 32 	bnez $r0,3d9082 <Retry_MultiDMA+0x49e>
  3d9222:	48 ff fe 2b 	j 3d8e78 <Retry_MultiDMA+0x294>

003d9226 <Retry_FailDmaCnt>:
  3d9226:	3e 1f ea 90 	addi.gp $r1,#-5488
  3d922a:	38 20 82 00 	lb $r2,[$r1+($r0<<#0x2)]
  3d922e:	ca 0b       	bnez38 $r2,3d9244 <Retry_FailDmaCnt+0x1e>
  3d9230:	94 02       	slli333 $r0,$r0,#0x2
  3d9232:	88 20       	add45 $r1,$r0
  3d9234:	a6 09       	lbi333 $r0,[$r1+#0x1]
  3d9236:	c8 09       	bnez38 $r0,3d9248 <Retry_FailDmaCnt+0x22>
  3d9238:	a6 8a       	lbi333 $r2,[$r1+#0x2]
  3d923a:	ca 08       	bnez38 $r2,3d924a <Retry_FailDmaCnt+0x24>
  3d923c:	a6 0b       	lbi333 $r0,[$r1+#0x3]
  3d923e:	5c 00 00 01 	slti $r0,$r0,#0x1
  3d9242:	dd 9e       	ret5 $lp
  3d9244:	84 00       	movi55 $r0,#0x0
  3d9246:	dd 9e       	ret5 $lp
  3d9248:	80 02       	mov55 $r0,$r2
  3d924a:	dd 9e       	ret5 $lp

003d924c <Retry_CQPauseHandle>:
  3d924c:	fc 20       	push25 $r8,#0    ! {$r6~$r8, $fp, $gp, $lp}
  3d924e:	80 c0       	mov55 $r6,$r0
  3d9250:	3e 0d 25 e4 	addi.gp $r0,#-186908
  3d9254:	84 e0       	movi55 $r7,#0x0
  3d9256:	38 10 1a 02 	lw $r1,[$r0+($r6<<#0x2)]
  3d925a:	a9 cd       	swi333 $r7,[$r1+#0x14]
  3d925c:	64 00 00 08 	dsb
  3d9260:	3e 0d 25 d4 	addi.gp $r0,#-186924
  3d9264:	84 5e       	movi55 $r2,#-2
  3d9266:	38 00 1a 02 	lw $r0,[$r0+($r6<<#0x2)]
  3d926a:	83 80       	mov55 $fp,$r0
  3d926c:	bb 24       	lwi37 $r3,[$fp+#0x90]
  3d926e:	fe 9e       	and33 $r2,$r3
  3d9270:	ba a4       	swi37 $r2,[$fp+#0x90]
  3d9272:	64 00 00 08 	dsb
  3d9276:	bb 24       	lwi37 $r3,[$fp+#0x90]
  3d9278:	44 2f ff df 	movi $r2,#-33
  3d927c:	fe 9e       	and33 $r2,$r3
  3d927e:	ba a4       	swi37 $r2,[$fp+#0x90]
  3d9280:	64 00 00 08 	dsb
  3d9284:	ba 24       	lwi37 $r2,[$fp+#0x90]
  3d9286:	58 21 00 02 	ori $r2,$r2,#0x2
  3d928a:	ba a4       	swi37 $r2,[$fp+#0x90]
  3d928c:	64 00 00 08 	dsb
  3d9290:	04 20 80 12 	lwi $r2,[$r1+#0x48]
  3d9294:	44 0f ef ff 	movi $r0,#-4097
  3d9298:	fe 16       	and33 $r0,$r2
  3d929a:	14 00 80 12 	swi $r0,[$r1+#0x48]
  3d929e:	94 36       	slli333 $r0,$r6,#0x6
  3d92a0:	3e 1f e9 70 	addi.gp $r1,#-5776
  3d92a4:	88 01       	add45 $r0,$r1
  3d92a6:	44 20 00 40 	movi $r2,#0x40
  3d92aa:	80 27       	mov55 $r1,$r7
  3d92ac:	49 00 1a 5e 	jal 3dc768 <U08MemSet>
  3d92b0:	95 b2       	slli333 $r6,$r6,#0x2
  3d92b2:	3e 0f e9 60 	addi.gp $r0,#-5792
  3d92b6:	88 06       	add45 $r0,$r6
  3d92b8:	80 27       	mov55 $r1,$r7
  3d92ba:	84 44       	movi55 $r2,#0x4
  3d92bc:	49 00 1a 56 	jal 3dc768 <U08MemSet>
  3d92c0:	fc a0       	pop25 $r8,#0    ! {$r6~$r8, $fp, $gp, $lp}

003d92c2 <Retry_FailRcdType>:
  3d92c2:	3e 2d 25 e4 	addi.gp $r2,#-186908
  3d92c6:	9d 04       	addi333 $r4,$r0,#0x4
  3d92c8:	38 21 02 02 	lw $r2,[$r2+($r0<<#0x2)]
  3d92cc:	04 31 00 12 	lwi $r3,[$r2+#0x48]
  3d92d0:	58 31 90 00 	ori $r3,$r3,#0x1000
  3d92d4:	14 31 00 12 	swi $r3,[$r2+#0x48]
  3d92d8:	3e 3f f5 54 	addi.gp $r3,#-2732
  3d92dc:	a1 56       	lwi333 $r5,[$r2+#0x18]
  3d92de:	38 51 92 0a 	sw $r5,[$r3+($r4<<#0x2)]
  3d92e2:	02 41 00 0e 	lhi $r4,[$r2+#0x1c]
  3d92e6:	50 20 00 08 	addi $r2,$r0,#0x8
  3d92ea:	38 41 8a 0a 	sw $r4,[$r3+($r2<<#0x2)]
  3d92ee:	3e 2d 25 d4 	addi.gp $r2,#-186924
  3d92f2:	38 41 02 02 	lw $r4,[$r2+($r0<<#0x2)]
  3d92f6:	04 22 00 24 	lwi $r2,[$r4+#0x90]
  3d92fa:	58 21 00 04 	ori $r2,$r2,#0x4
  3d92fe:	14 22 00 24 	swi $r2,[$r4+#0x90]
  3d9302:	64 00 00 08 	dsb
  3d9306:	88 03       	add45 $r0,$r3
  3d9308:	3e 17 f5 50 	sbi.gp $r1,[+#-2736]
  3d930c:	84 21       	movi55 $r1,#0x1
  3d930e:	10 10 00 30 	sbi $r1,[$r0+#0x30]
  3d9312:	dd 9e       	ret5 $lp

003d9314 <Retry_CQRecover>:
  3d9314:	3e 1d 25 e4 	addi.gp $r1,#-186908
  3d9318:	9c c4       	addi333 $r3,$r0,#0x4
  3d931a:	38 20 82 02 	lw $r2,[$r1+($r0<<#0x2)]
  3d931e:	3e 1f f5 54 	addi.gp $r1,#-2732
  3d9322:	38 30 8e 02 	lw $r3,[$r1+($r3<<#0x2)]
  3d9326:	a8 d6       	swi333 $r3,[$r2+#0x18]
  3d9328:	50 30 00 08 	addi $r3,$r0,#0x8
  3d932c:	38 30 8e 01 	lh $r3,[$r1+($r3<<#0x2)]
  3d9330:	88 20       	add45 $r1,$r0
  3d9332:	12 31 00 0e 	shi $r3,[$r2+#0x1c]
  3d9336:	84 40       	movi55 $r2,#0x0
  3d9338:	10 20 80 30 	sbi $r2,[$r1+#0x30]
  3d933c:	3e 1d 25 d4 	addi.gp $r1,#-186924
  3d9340:	38 10 82 02 	lw $r1,[$r1+($r0<<#0x2)]
  3d9344:	84 1b       	movi55 $r0,#-5
  3d9346:	04 20 80 24 	lwi $r2,[$r1+#0x90]
  3d934a:	fe 16       	and33 $r0,$r2
  3d934c:	14 00 80 24 	swi $r0,[$r1+#0x90]
  3d9350:	64 00 00 08 	dsb
  3d9354:	dd 9e       	ret5 $lp

003d9356 <Retry_RestartCQ>:
  3d9356:	fc 42       	push25 $r10,#16    ! {$r6~$r10, $fp, $gp, $lp}
  3d9358:	85 40       	movi55 $r10,#0x0
  3d935a:	46 80 0f ff 	sethi $r8,#0xfff
  3d935e:	3e 7f f5 5c 	addi.gp $r7,#-2724
  3d9362:	80 ca       	mov55 $r6,$r10
  3d9364:	50 84 0f ff 	addi $r8,$r8,#0xfff
  3d9368:	84 00       	movi55 $r0,#0x0
  3d936a:	80 20       	mov55 $r1,$r0
  3d936c:	49 00 12 b7 	jal 3db8da <HAL_MCU_GetOwnership>
  3d9370:	80 06       	mov55 $r0,$r6
  3d9372:	49 ff ff 5a 	jal 3d9226 <Retry_FailDmaCnt>
  3d9376:	4e 02 00 63 	beqz $r0,3d943c <Retry_RestartCQ+0xe6>
  3d937a:	3e 0d 25 d4 	addi.gp $r0,#-186924
  3d937e:	38 00 2a 02 	lw $r0,[$r0+($r10<<#0x2)]
  3d9382:	04 00 00 24 	lwi $r0,[$r0+#0x90]
  3d9386:	92 02       	srli45 $r0,#0x2
  3d9388:	96 06       	bmski33 $r0,#0x0
  3d938a:	5a 08 01 59 	bnec $r0,#0x1,3d943c <Retry_RestartCQ+0xe6>
  3d938e:	80 06       	mov55 $r0,$r6
  3d9390:	49 ff ff 5e 	jal 3d924c <Retry_CQPauseHandle>
  3d9394:	a4 38       	lhi333 $r0,[$r7+#0x0]
  3d9396:	c0 50       	beqz38 $r0,3d9436 <Retry_RestartCQ+0xe0>
  3d9398:	44 00 04 c8 	movi $r0,#0x4c8
  3d939c:	43 c5 00 24 	mul $fp,$r10,$r0
  3d93a0:	85 20       	movi55 $r9,#0x0
  3d93a2:	a4 38       	lhi333 $r0,[$r7+#0x0]
  3d93a4:	54 14 80 ff 	andi $r1,$r9,#0xff
  3d93a8:	40 00 24 0e 	sra $r0,$r0,$r9
  3d93ac:	96 06       	bmski33 $r0,#0x0
  3d93ae:	c0 3f       	beqz38 $r0,3d942c <Retry_RestartCQ+0xd6>
  3d93b0:	02 33 ff fc 	lhi $r3,[$r7+#-8]
  3d93b4:	3c 0c 02 66 	lwi.gp $r0,[+#0x998]
  3d93b8:	e2 60       	slt45 $r3,$r0
  3d93ba:	e8 39       	beqzs8 3d942c <Retry_RestartCQ+0xd6>
  3d93bc:	80 06       	mov55 $r0,$r6
  3d93be:	84 40       	movi55 $r2,#0x0
  3d93c0:	84 83       	movi55 $r4,#0x3
  3d93c2:	49 ff f7 17 	jal 3d81f0 <Fdl_SearchOfstByAddr>
  3d93c6:	44 10 ff ff 	movi $r1,#0xffff
  3d93ca:	4c 00 80 27 	beq $r0,$r1,3d9418 <Retry_RestartCQ+0xc2>
  3d93ce:	3c 10 04 ce 	lhi.gp $r1,[+#0x99c]
  3d93d2:	3c 2c 02 6c 	lwi.gp $r2,[+#0x9b0]
  3d93d6:	40 00 04 37 	divr $r0,$r1,$r0,$r1
  3d93da:	96 49       	zeh33 $r1,$r1
  3d93dc:	94 4b       	slli333 $r1,$r1,#0x3
  3d93de:	88 22       	add45 $r1,$r2
  3d93e0:	b0 01       	addri36.sp $r0,#0x4
  3d93e2:	84 40       	movi55 $r2,#0x0
  3d93e4:	49 ff f6 60 	jal 3d80a4 <Fdl_ConvertAddrInfo>
  3d93e8:	84 3b       	movi55 $r1,#-5
  3d93ea:	3c 0c 02 63 	lwi.gp $r0,[+#0x98c]
  3d93ee:	fe 0e       	and33 $r0,$r1
  3d93f0:	00 1f 80 0b 	lbi $r1,[$sp+#0xb]
  3d93f4:	5a 08 03 0b 	bnec $r0,#0x3,3d940a <Retry_RestartCQ+0xb4>
  3d93f8:	f2 01       	lwi37.sp $r2,[+#0x4]
  3d93fa:	80 06       	mov55 $r0,$r6
  3d93fc:	02 3f 80 04 	lhi $r3,[$sp+#0x8]
  3d9400:	40 41 60 09 	srli $r4,$r2,#0x18
  3d9404:	49 ff f9 20 	jal 3d8644 <Fdl_MCUReadCmd>
  3d9408:	d5 12       	j8 3d942c <Retry_RestartCQ+0xd6>
  3d940a:	80 06       	mov55 $r0,$r6
  3d940c:	00 2f 80 0c 	lbi $r2,[$sp+#0xc]
  3d9410:	f3 01       	lwi37.sp $r3,[+#0x4]
  3d9412:	49 ff f8 d4 	jal 3d85ba <Fdl_MCUMultiPlnReadCmd>
  3d9416:	d5 0b       	j8 3d942c <Retry_RestartCQ+0xd6>
  3d9418:	44 00 00 ec 	movi $r0,#0xec
  3d941c:	80 3c       	mov55 $r1,$fp
  3d941e:	42 14 80 73 	maddr32 $r1,$r9,$r0
  3d9422:	3e 0f f6 68 	addi.gp $r0,#-2456
  3d9426:	88 01       	add45 $r0,$r1
  3d9428:	14 80 00 6f 	swi $r8,[$r0+#0x1bc]
  3d942c:	8d 21       	addi45 $r9,#0x1
  3d942e:	5a 98 10 ba 	bnec $r9,#0x10,3d93a2 <Retry_RestartCQ+0x4c>
  3d9432:	84 00       	movi55 $r0,#0x0
  3d9434:	ac 38       	shi333 $r0,[$r7+#0x0]
  3d9436:	80 06       	mov55 $r0,$r6
  3d9438:	49 ff ff 6e 	jal 3d9314 <Retry_CQRecover>
  3d943c:	84 00       	movi55 $r0,#0x0
  3d943e:	8c c1       	addi45 $r6,#0x1
  3d9440:	80 20       	mov55 $r1,$r0
  3d9442:	97 b0       	zeb33 $r6,$r6
  3d9444:	49 00 12 68 	jal 3db914 <HAL_MCU_ReleaseOwnership>
  3d9448:	8d 41       	addi45 $r10,#0x1
  3d944a:	8c e2       	addi45 $r7,#0x2
  3d944c:	5a 60 04 04 	beqc $r6,#0x4,3d9454 <Retry_RestartCQ+0xfe>
  3d9450:	48 ff ff 8c 	j 3d9368 <Retry_RestartCQ+0x12>
  3d9454:	fc c2       	pop25 $r10,#16    ! {$r6~$r10, $fp, $gp, $lp}

003d9456 <FDL_ReadRetry>:
  3d9456:	fc 01       	push25 $r6,#8    ! {$r6, $fp, $gp, $lp}
  3d9458:	49 00 17 37 	jal 3dc2c6 <__get_sda_base>
  3d945c:	f0 81       	swi37.sp $r0,[+#0x4]
  3d945e:	3c 0d fd 61 	lwi.gp $r0,[+#-2684]
  3d9462:	c0 0d       	beqz38 $r0,3d947c <FDL_ReadRetry+0x26>
  3d9464:	84 28       	movi55 $r1,#0x8
  3d9466:	2e 07 f5 be 	lbi.gp $r0,[+#-2626]
  3d946a:	84 40       	movi55 $r2,#0x0
  3d946c:	49 ff fb bc 	jal 3d8be4 <Retry_MultiDMA>
  3d9470:	2e 07 f5 50 	lbi.gp $r0,[+#-2736]
  3d9474:	5a 08 01 04 	bnec $r0,#0x1,3d947c <FDL_ReadRetry+0x26>
  3d9478:	49 ff ff 6f 	jal 3d9356 <Retry_RestartCQ>
  3d947c:	f0 01       	lwi37.sp $r0,[+#0x4]
  3d947e:	49 00 17 2b 	jal 3dc2d4 <__restore_sda_base>
  3d9482:	fc 81       	pop25 $r6,#8    ! {$r6, $fp, $gp, $lp}

003d9484 <FDL_RetryRecordFailInfor>:
  3d9484:	fc 47       	push25 $r10,#56    ! {$r6~$r10, $fp, $gp, $lp}
  3d9486:	3f c8 09 a0 	addi.gp $fp,#0x9a0
  3d948a:	81 00       	mov55 $r8,$r0
  3d948c:	3e 0d 25 d4 	addi.gp $r0,#-186924
  3d9490:	38 00 22 02 	lw $r0,[$r0+($r8<<#0x2)]
  3d9494:	04 10 00 39 	lwi $r1,[$r0+#0xe4]
  3d9498:	96 09       	zeh33 $r0,$r1
  3d949a:	f0 84       	swi37.sp $r0,[+#0x10]
  3d949c:	b8 00       	lwi37 $r0,[$fp+#0x0]
  3d949e:	f0 85       	swi37.sp $r0,[+#0x14]
  3d94a0:	2e 20 0a a1 	lbi.gp $r2,[+#0xaa1]
  3d94a4:	3c 0d fd 62 	lwi.gp $r0,[+#-2680]
  3d94a8:	5a 28 01 05 	bnec $r2,#0x1,3d94b2 <FDL_RetryRecordFailInfor+0x2e>
  3d94ac:	00 60 01 a9 	lbi $r6,[$r0+#0x1a9]
  3d94b0:	d5 03       	j8 3d94b6 <FDL_RetryRecordFailInfor+0x32>
  3d94b2:	00 60 01 a8 	lbi $r6,[$r0+#0x1a8]
  3d94b6:	3e 0d 25 e4 	addi.gp $r0,#-186908
  3d94ba:	38 00 22 02 	lw $r0,[$r0+($r8<<#0x2)]
  3d94be:	a0 85       	lwi333 $r2,[$r0+#0x14]
  3d94c0:	92 42       	srli45 $r2,#0x2
  3d94c2:	96 86       	bmski33 $r2,#0x0
  3d94c4:	c2 fd       	beqz38 $r2,3d94be <FDL_RetryRecordFailInfor+0x3a>
  3d94c6:	3e 2f f6 68 	addi.gp $r2,#-2456
  3d94ca:	44 40 04 c8 	movi $r4,#0x4c8
  3d94ce:	80 62       	mov55 $r3,$r2
  3d94d0:	42 34 10 73 	maddr32 $r3,$r8,$r4
  3d94d4:	04 a1 81 2d 	lwi $r10,[$r3+#0x4b4]
  3d94d8:	f2 87       	swi37.sp $r2,[+#0x1c]
  3d94da:	2e 40 09 dc 	lbi.gp $r4,[+#0x9dc]
  3d94de:	5a 48 01 0e 	bnec $r4,#0x1,3d94fa <FDL_RetryRecordFailInfor+0x76>
  3d94e2:	96 49       	zeh33 $r1,$r1
  3d94e4:	bc 0e       	lwi37 $r4,[$fp+#0x38]
  3d94e6:	42 90 98 24 	mul $r9,$r1,$r6
  3d94ea:	04 50 00 19 	lwi $r5,[$r0+#0x64]
  3d94ee:	38 12 05 01 	lh $r1,[$r4+($r1<<#0x1)]
  3d94f2:	88 26       	add45 $r1,$r6
  3d94f4:	d9 05       	bnes38 $r1,3d94fe <FDL_RetryRecordFailInfor+0x7a>
  3d94f6:	89 26       	add45 $r9,$r6
  3d94f8:	d5 03       	j8 3d94fe <FDL_RetryRecordFailInfor+0x7a>
  3d94fa:	04 90 00 19 	lwi $r9,[$r0+#0x64]
  3d94fe:	b4 20       	lwi450 $r1,[$r0]
  3d9500:	92 24       	srli45 $r1,#0x4
  3d9502:	96 4f       	fexti33 $r1,#0x1
  3d9504:	e4 22       	sltsi45 $r1,#0x2
  3d9506:	e9 11       	bnezs8 3d9528 <FDL_RetryRecordFailInfor+0xa4>
  3d9508:	46 10 05 e2 	sethi $r1,#0x5e2
  3d950c:	04 20 00 19 	lwi $r2,[$r0+#0x64]
  3d9510:	02 40 80 10 	lhi $r4,[$r1+#0x20]
  3d9514:	e2 82       	slt45 $r4,$r2
  3d9516:	e8 09       	beqzs8 3d9528 <FDL_RetryRecordFailInfor+0xa4>
  3d9518:	04 00 00 19 	lwi $r0,[$r0+#0x64]
  3d951c:	02 10 80 10 	lhi $r1,[$r1+#0x20]
  3d9520:	8a 01       	sub45 $r0,$r1
  3d9522:	e3 40       	slt45 $r10,$r0
  3d9524:	40 a0 3c 1b 	cmovn $r10,$r0,$r15
  3d9528:	84 00       	movi55 $r0,#0x0
  3d952a:	84 21       	movi55 $r1,#0x1
  3d952c:	49 00 11 d7 	jal 3db8da <HAL_MCU_GetOwnership>
  3d9530:	84 1f       	movi55 $r0,#-1
  3d9532:	f0 82       	swi37.sp $r0,[+#0x8]
  3d9534:	3e 0f f5 54 	addi.gp $r0,#-2732
  3d9538:	88 08       	add45 $r0,$r8
  3d953a:	84 81       	movi55 $r4,#0x1
  3d953c:	f0 88       	swi37.sp $r0,[+#0x20]
  3d953e:	e3 49       	slt45 $r10,$r9
  3d9540:	4e f2 00 96 	beqz $r15,3d966c <FDL_RetryRecordFailInfor+0x1e8>
  3d9544:	40 75 18 f7 	divr $r7,$r7,$r10,$r6
  3d9548:	3c 0d fd 62 	lwi.gp $r0,[+#-2680]
  3d954c:	f4 89       	swi37.sp $r4,[+#0x24]
  3d954e:	00 10 01 ac 	lbi $r1,[$r0+#0x1ac]
  3d9552:	40 25 04 57 	divr $r2,$r2,$r10,$r1
  3d9556:	3c 1d fd 64 	lwi.gp $r1,[+#-2672]
  3d955a:	40 00 84 09 	srli $r0,$r1,#0x1
  3d955e:	40 01 00 37 	divr $r0,$r1,$r2,$r0
  3d9562:	f0 05       	lwi37.sp $r0,[+#0x14]
  3d9564:	80 47       	mov55 $r2,$r7
  3d9566:	38 00 05 01 	lh $r0,[$r0+($r1<<#0x1)]
  3d956a:	80 26       	mov55 $r1,$r6
  3d956c:	f0 83       	swi37.sp $r0,[+#0xc]
  3d956e:	80 0a       	mov55 $r0,$r10
  3d9570:	49 ff f9 05 	jal 3d877a <Retry_JudgeDmaMask>
  3d9574:	f0 86       	swi37.sp $r0,[+#0x18]
  3d9576:	f4 09       	lwi37.sp $r4,[+#0x24]
  3d9578:	3c 00 04 ce 	lhi.gp $r0,[+#0x99c]
  3d957c:	40 13 80 17 	divr $r1,$r0,$r7,$r0
  3d9580:	94 03       	slli333 $r0,$r0,#0x3
  3d9582:	b9 04       	lwi37 $r1,[$fp+#0x10]
  3d9584:	88 01       	add45 $r0,$r1
  3d9586:	f0 81       	swi37.sp $r0,[+#0x4]
  3d9588:	a6 01       	lbi333 $r0,[$r0+#0x1]
  3d958a:	5a 08 ff 06 	bnec $r0,#0xff,3d9596 <FDL_RetryRecordFailInfor+0x112>
  3d958e:	84 1f       	movi55 $r0,#-1
  3d9590:	10 0f 80 32 	sbi $r0,[$sp+#0x32]
  3d9594:	d5 08       	j8 3d95a4 <FDL_RetryRecordFailInfor+0x120>
  3d9596:	b0 0b       	addri36.sp $r0,#0x2c
  3d9598:	f1 01       	lwi37.sp $r1,[+#0x4]
  3d959a:	84 40       	movi55 $r2,#0x0
  3d959c:	f4 89       	swi37.sp $r4,[+#0x24]
  3d959e:	49 ff f5 83 	jal 3d80a4 <Fdl_ConvertAddrInfo>
  3d95a2:	f4 09       	lwi37.sp $r4,[+#0x24]
  3d95a4:	00 5f 80 32 	lbi $r5,[$sp+#0x32]
  3d95a8:	4c 54 40 5b 	bne $r5,$r8,3d965e <FDL_RetryRecordFailInfor+0x1da>
  3d95ac:	f0 06       	lwi37.sp $r0,[+#0x18]
  3d95ae:	5a 00 ff 58 	beqc $r0,#0xff,3d965e <FDL_RetryRecordFailInfor+0x1da>
  3d95b2:	f1 03       	lwi37.sp $r1,[+#0xc]
  3d95b4:	b8 47       	lwi37 $r0,[$fp+#0x11c]
  3d95b6:	40 30 b4 09 	srli $r3,$r1,#0xd
  3d95ba:	a6 06       	lbi333 $r0,[$r0+#0x6]
  3d95bc:	5a 08 03 12 	bnec $r0,#0x3,3d95e0 <FDL_RetryRecordFailInfor+0x15c>
  3d95c0:	84 81       	movi55 $r4,#0x1
  3d95c2:	5a 38 05 0f 	bnec $r3,#0x5,3d95e0 <FDL_RetryRecordFailInfor+0x15c>
  3d95c6:	f5 02       	lwi37.sp $r5,[+#0x8]
  3d95c8:	84 80       	movi55 $r4,#0x0
  3d95ca:	d7 0b       	beqs38 $r7,3d95e0 <FDL_RetryRecordFailInfor+0x15c>
  3d95cc:	80 08       	mov55 $r0,$r8
  3d95ce:	80 27       	mov55 $r1,$r7
  3d95d0:	44 20 00 40 	movi $r2,#0x40
  3d95d4:	f3 86       	swi37.sp $r3,[+#0x18]
  3d95d6:	49 ff f8 c9 	jal 3d8768 <Retry_SaveTaskException>
  3d95da:	f7 82       	swi37.sp $r7,[+#0x8]
  3d95dc:	84 80       	movi55 $r4,#0x0
  3d95de:	f3 06       	lwi37.sp $r3,[+#0x18]
  3d95e0:	cb 0d       	bnez38 $r3,3d95fa <FDL_RetryRecordFailInfor+0x176>
  3d95e2:	f0 03       	lwi37.sp $r0,[+#0xc]
  3d95e4:	44 10 01 80 	movi $r1,#0x180
  3d95e8:	54 00 0f ff 	andi $r0,$r0,#0xfff
  3d95ec:	94 01       	slli333 $r0,$r0,#0x1
  3d95ee:	e0 20       	slts45 $r1,$r0
  3d95f0:	e8 37       	beqzs8 3d965e <FDL_RetryRecordFailInfor+0x1da>
  3d95f2:	b8 47       	lwi37 $r0,[$fp+#0x11c]
  3d95f4:	a6 06       	lbi333 $r0,[$r0+#0x6]
  3d95f6:	5a 08 05 34 	bnec $r0,#0x5,3d965e <FDL_RetryRecordFailInfor+0x1da>
  3d95fa:	c4 32       	beqz38 $r4,3d965e <FDL_RetryRecordFailInfor+0x1da>
  3d95fc:	f0 01       	lwi37.sp $r0,[+#0x4]
  3d95fe:	50 14 00 04 	addi $r1,$r8,#0x4
  3d9602:	3e 2f f5 54 	addi.gp $r2,#-2732
  3d9606:	a6 02       	lbi333 $r0,[$r0+#0x2]
  3d9608:	38 21 05 01 	lh $r2,[$r2+($r1<<#0x1)]
  3d960c:	84 e1       	movi55 $r7,#0x1
  3d960e:	40 03 80 0c 	sll $r0,$r7,$r0
  3d9612:	fe 17       	or33 $r0,$r2
  3d9614:	3e 2f f5 54 	addi.gp $r2,#-2732
  3d9618:	3e 4f ea 90 	addi.gp $r4,#-5488
  3d961c:	38 01 05 09 	sh $r0,[$r2+($r1<<#0x1)]
  3d9620:	00 0f 80 33 	lbi $r0,[$sp+#0x33]
  3d9624:	40 14 08 08 	slli $r1,$r8,#0x2
  3d9628:	88 01       	add45 $r0,$r1
  3d962a:	98 a0       	add333 $r2,$r4,$r0
  3d962c:	94 04       	slli333 $r0,$r0,#0x4
  3d962e:	a6 50       	lbi333 $r1,[$r2+#0x0]
  3d9630:	88 01       	add45 $r0,$r1
  3d9632:	8c 0c       	addi45 $r0,#0xc
  3d9634:	94 02       	slli333 $r0,$r0,#0x2
  3d9636:	88 04       	add45 $r0,$r4
  3d9638:	88 27       	add45 $r1,$r7
  3d963a:	14 a0 00 01 	swi $r10,[$r0+#0x4]
  3d963e:	f0 08       	lwi37.sp $r0,[+#0x20]
  3d9640:	ae 50       	sbi333 $r1,[$r2+#0x0]
  3d9642:	00 00 00 30 	lbi $r0,[$r0+#0x30]
  3d9646:	c8 0b       	bnez38 $r0,3d965c <FDL_RetryRecordFailInfor+0x1d8>
  3d9648:	3e 0f f5 54 	addi.gp $r0,#-2732
  3d964c:	02 1f 80 08 	lhi $r1,[$sp+#0x10]
  3d9650:	38 10 21 09 	sh $r1,[$r0+($r8<<#0x1)]
  3d9654:	80 08       	mov55 $r0,$r8
  3d9656:	80 27       	mov55 $r1,$r7
  3d9658:	49 ff fe 35 	jal 3d92c2 <Retry_FailRcdType>
  3d965c:	80 87       	mov55 $r4,$r7
  3d965e:	3c 0d fd 62 	lwi.gp $r0,[+#-2680]
  3d9662:	00 00 01 ac 	lbi $r0,[$r0+#0x1ac]
  3d9666:	89 40       	add45 $r10,$r0
  3d9668:	48 ff ff 6b 	j 3d953e <FDL_RetryRecordFailInfor+0xba>
  3d966c:	f1 07       	lwi37.sp $r1,[+#0x1c]
  3d966e:	44 00 04 c8 	movi $r0,#0x4c8
  3d9672:	42 14 00 73 	maddr32 $r1,$r8,$r0
  3d9676:	84 00       	movi55 $r0,#0x0
  3d9678:	14 90 81 2d 	swi $r9,[$r1+#0x4b4]
  3d967c:	84 21       	movi55 $r1,#0x1
  3d967e:	49 00 11 4b 	jal 3db914 <HAL_MCU_ReleaseOwnership>
  3d9682:	fc c7       	pop25 $r10,#56    ! {$r6~$r10, $fp, $gp, $lp}

003d9684 <ChanTaskErgodic>:
  3d9684:	fc 40       	push25 $r10,#0    ! {$r6~$r10, $fp, $gp, $lp}
  3d9686:	3e 1f f6 68 	addi.gp $r1,#-2456
  3d968a:	44 20 04 c8 	movi $r2,#0x4c8
  3d968e:	80 61       	mov55 $r3,$r1
  3d9690:	42 30 08 73 	maddr32 $r3,$r0,$r2
  3d9694:	a0 9a       	lwi333 $r2,[$r3+#0x8]
  3d9696:	80 c0       	mov55 $r6,$r0
  3d9698:	c2 5e       	beqz38 $r2,3d9754 <ChanTaskErgodic+0xd0>
  3d969a:	81 21       	mov55 $r9,$r1
  3d969c:	49 00 08 b1 	jal 3da7fe <HAL_CQGetIdleSpace>
  3d96a0:	3e 7d 26 6c 	addi.gp $r7,#-186772
  3d96a4:	2e 20 09 88 	lbi.gp $r2,[+#0x988]
  3d96a8:	e2 02       	slt45 $r0,$r2
  3d96aa:	e8 0b       	beqzs8 3d96c0 <ChanTaskErgodic+0x3c>
  3d96ac:	38 13 9a 02 	lw $r1,[$r7+($r6<<#0x2)]
  3d96b0:	83 81       	mov55 $fp,$r1
  3d96b2:	b8 2f       	lwi37 $r0,[$fp+#0xbc]
  3d96b4:	92 0a       	srli45 $r0,#0xa
  3d96b6:	40 00 28 08 	slli $r0,$r0,#0xa
  3d96ba:	fe 17       	or33 $r0,$r2
  3d96bc:	b8 af       	swi37 $r0,[$fp+#0xbc]
  3d96be:	d5 46       	j8 3d974a <ChanTaskErgodic+0xc6>
  3d96c0:	80 06       	mov55 $r0,$r6
  3d96c2:	3c 1c 02 ad 	lwi.gp $r1,[+#0xab4]
  3d96c6:	dd 21       	jral5 $r1
  3d96c8:	3c 0c 02 63 	lwi.gp $r0,[+#0x98c]
  3d96cc:	5a 00 09 08 	beqc $r0,#0x9,3d96dc <ChanTaskErgodic+0x58>
  3d96d0:	2e 10 09 dc 	lbi.gp $r1,[+#0x9dc]
  3d96d4:	5a 10 01 12 	beqc $r1,#0x1,3d96f8 <ChanTaskErgodic+0x74>
  3d96d8:	5a 08 04 10 	bnec $r0,#0x4,3d96f8 <ChanTaskErgodic+0x74>
  3d96dc:	44 00 04 c8 	movi $r0,#0x4c8
  3d96e0:	80 29       	mov55 $r1,$r9
  3d96e2:	42 13 00 73 	maddr32 $r1,$r6,$r0
  3d96e6:	80 01       	mov55 $r0,$r1
  3d96e8:	0c 20 00 24 	lwi.bi $r2,[$r0],#0x90
  3d96ec:	a6 c1       	lbi333 $r3,[$r0+#0x1]
  3d96ee:	88 43       	add45 $r2,$r3
  3d96f0:	b6 41       	swi450 $r2,[$r1]
  3d96f2:	a0 0a       	lwi333 $r0,[$r1+#0x8]
  3d96f4:	8a 03       	sub45 $r0,$r3
  3d96f6:	d5 0b       	j8 3d970c <ChanTaskErgodic+0x88>
  3d96f8:	44 00 04 c8 	movi $r0,#0x4c8
  3d96fc:	80 29       	mov55 $r1,$r9
  3d96fe:	42 13 00 73 	maddr32 $r1,$r6,$r0
  3d9702:	b4 01       	lwi450 $r0,[$r1]
  3d9704:	8c 01       	addi45 $r0,#0x1
  3d9706:	b6 01       	swi450 $r0,[$r1]
  3d9708:	a0 0a       	lwi333 $r0,[$r1+#0x8]
  3d970a:	8e 01       	subi45 $r0,#0x1
  3d970c:	a8 0a       	swi333 $r0,[$r1+#0x8]
  3d970e:	80 06       	mov55 $r0,$r6
  3d9710:	49 00 08 77 	jal 3da7fe <HAL_CQGetIdleSpace>
  3d9714:	5c f0 02 00 	slti $r15,$r0,#0x200
  3d9718:	e8 0d       	beqzs8 3d9732 <ChanTaskErgodic+0xae>
  3d971a:	38 23 9a 02 	lw $r2,[$r7+($r6<<#0x2)]
  3d971e:	83 82       	mov55 $fp,$r2
  3d9720:	b9 2f       	lwi37 $r1,[$fp+#0xbc]
  3d9722:	2e 00 09 88 	lbi.gp $r0,[+#0x988]
  3d9726:	92 2a       	srli45 $r1,#0xa
  3d9728:	40 10 a8 08 	slli $r1,$r1,#0xa
  3d972c:	fe 47       	or33 $r1,$r0
  3d972e:	b9 af       	swi37 $r1,[$fp+#0xbc]
  3d9730:	d5 0b       	j8 3d9746 <ChanTaskErgodic+0xc2>
  3d9732:	38 03 9a 02 	lw $r0,[$r7+($r6<<#0x2)]
  3d9736:	83 80       	mov55 $fp,$r0
  3d9738:	b9 2f       	lwi37 $r1,[$fp+#0xbc]
  3d973a:	92 2a       	srli45 $r1,#0xa
  3d973c:	40 10 a8 08 	slli $r1,$r1,#0xa
  3d9740:	58 10 83 e8 	ori $r1,$r1,#0x3e8
  3d9744:	b9 af       	swi37 $r1,[$fp+#0xbc]
  3d9746:	38 13 9a 02 	lw $r1,[$r7+($r6<<#0x2)]
  3d974a:	83 81       	mov55 $fp,$r1
  3d974c:	b8 15       	lwi37 $r0,[$fp+#0x54]
  3d974e:	58 00 02 00 	ori $r0,$r0,#0x200
  3d9752:	b8 95       	swi37 $r0,[$fp+#0x54]
  3d9754:	fc c0       	pop25 $r10,#0    ! {$r6~$r10, $fp, $gp, $lp}

003d9756 <TaskErgodicReadWrite>:
  3d9756:	fc 40       	push25 $r10,#0    ! {$r6~$r10, $fp, $gp, $lp}
  3d9758:	3e 7f f6 68 	addi.gp $r7,#-2456
  3d975c:	80 c0       	mov55 $r6,$r0
  3d975e:	3c 1c 02 65 	lwi.gp $r1,[+#0x994]
  3d9762:	3c 0c 02 66 	lwi.gp $r0,[+#0x998]
  3d9766:	e2 20       	slt45 $r1,$r0
  3d9768:	e8 27       	beqzs8 3d97b6 <TaskErgodicReadWrite+0x60>
  3d976a:	3c 30 04 ce 	lhi.gp $r3,[+#0x99c]
  3d976e:	3c 0c 02 65 	lwi.gp $r0,[+#0x994]
  3d9772:	8e 61       	subi45 $r3,#0x1
  3d9774:	fe c6       	and33 $r3,$r0
  3d9776:	94 db       	slli333 $r3,$r3,#0x3
  3d9778:	3c 0c 02 6c 	lwi.gp $r0,[+#0x9b0]
  3d977c:	88 60       	add45 $r3,$r0
  3d977e:	a6 99       	lbi333 $r2,[$r3+#0x1]
  3d9780:	00 a1 80 02 	lbi $r10,[$r3+#0x2]
  3d9784:	5a 28 ff 08 	bnec $r2,#0xff,3d9794 <TaskErgodicReadWrite+0x3e>
  3d9788:	3c 0c 02 65 	lwi.gp $r0,[+#0x994]
  3d978c:	8c 01       	addi45 $r0,#0x1
  3d978e:	3c 0e 02 65 	swi.gp $r0,[+#0x994]
  3d9792:	d5 e6       	j8 3d975e <TaskErgodicReadWrite+0x8>
  3d9794:	3c 0d fd 62 	lwi.gp $r0,[+#-2680]
  3d9798:	88 02       	add45 $r0,$r2
  3d979a:	00 10 02 44 	lbi $r1,[$r0+#0x244]
  3d979e:	e6 24       	slti45 $r1,#0x4
  3d97a0:	e8 4e       	beqzs8 3d983c <TaskErgodicReadWrite+0xe6>
  3d97a2:	44 20 04 c8 	movi $r2,#0x4c8
  3d97a6:	fe 8c       	mul33 $r2,$r1
  3d97a8:	98 3a       	add333 $r0,$r7,$r2
  3d97aa:	a1 41       	lwi333 $r5,[$r0+#0x4]
  3d97ac:	b4 80       	lwi450 $r4,[$r0]
  3d97ae:	50 f2 00 20 	addi $r15,$r4,#0x20
  3d97b2:	e2 af       	slt45 $r5,$r15
  3d97b4:	e9 03       	bnezs8 3d97ba <TaskErgodicReadWrite+0x64>
  3d97b6:	84 e0       	movi55 $r7,#0x0
  3d97b8:	d5 61       	j8 3d987a <TaskErgodicReadWrite+0x124>
  3d97ba:	a1 41       	lwi333 $r5,[$r0+#0x4]
  3d97bc:	3c 9c 02 65 	lwi.gp $r9,[+#0x994]
  3d97c0:	44 40 01 32 	movi $r4,#0x132
  3d97c4:	ff 0c       	mul33 $r4,$r1
  3d97c6:	97 67       	fexti33 $r5,#0x4
  3d97c8:	88 a4       	add45 $r5,$r4
  3d97ca:	8c a4       	addi45 $r5,#0x4
  3d97cc:	44 f0 00 3b 	movi $r15,#0x3b
  3d97d0:	38 93 96 0a 	sw $r9,[$r7+($r5<<#0x2)]
  3d97d4:	a1 42       	lwi333 $r5,[$r0+#0x8]
  3d97d6:	42 45 3c 73 	maddr32 $r4,$r10,$r15
  3d97da:	8c a1       	addi45 $r5,#0x1
  3d97dc:	a9 42       	swi333 $r5,[$r0+#0x8]
  3d97de:	a1 41       	lwi333 $r5,[$r0+#0x4]
  3d97e0:	8c a1       	addi45 $r5,#0x1
  3d97e2:	a9 41       	swi333 $r5,[$r0+#0x4]
  3d97e4:	44 00 00 ec 	movi $r0,#0xec
  3d97e8:	42 25 00 73 	maddr32 $r2,$r10,$r0
  3d97ec:	88 47       	add45 $r2,$r7
  3d97ee:	50 81 01 b8 	addi $r8,$r2,#0x1b8
  3d97f2:	02 94 00 01 	lhi $r9,[$r8+#0x2]
  3d97f6:	a1 59       	lwi333 $r5,[$r3+#0x4]
  3d97f8:	54 04 80 1f 	andi $r0,$r9,#0x1f
  3d97fc:	88 80       	add45 $r4,$r0
  3d97fe:	50 42 00 36 	addi $r4,$r4,#0x36
  3d9802:	8d 21       	addi45 $r9,#0x1
  3d9804:	38 53 92 0a 	sw $r5,[$r7+($r4<<#0x2)]
  3d9808:	a7 1b       	lbi333 $r4,[$r3+#0x3]
  3d980a:	98 d0       	add333 $r3,$r2,$r0
  3d980c:	12 94 00 01 	shi $r9,[$r8+#0x2]
  3d9810:	10 41 81 58 	sbi $r4,[$r3+#0x158]
  3d9814:	3c 4c 02 65 	lwi.gp $r4,[+#0x994]
  3d9818:	44 30 02 64 	movi $r3,#0x264
  3d981c:	fe 5c       	mul33 $r1,$r3
  3d981e:	44 30 00 76 	movi $r3,#0x76
  3d9822:	42 15 0c 73 	maddr32 $r1,$r10,$r3
  3d9826:	88 01       	add45 $r0,$r1
  3d9828:	50 00 00 bc 	addi $r0,$r0,#0xbc
  3d982c:	38 43 81 09 	sh $r4,[$r7+($r0<<#0x1)]
  3d9830:	00 01 01 c0 	lbi $r0,[$r2+#0x1c0]
  3d9834:	8c 01       	addi45 $r0,#0x1
  3d9836:	10 01 01 c0 	sbi $r0,[$r2+#0x1c0]
  3d983a:	d5 05       	j8 3d9844 <TaskErgodicReadWrite+0xee>
  3d983c:	3e 0d 25 f4 	addi.gp $r0,#-186892
  3d9840:	49 00 14 e7 	jal 3dc20e <PRINT>
  3d9844:	3c 0c 02 65 	lwi.gp $r0,[+#0x994]
  3d9848:	8c 01       	addi45 $r0,#0x1
  3d984a:	3c 0e 02 65 	swi.gp $r0,[+#0x994]
  3d984e:	4e 63 ff 88 	bnez $r6,3d975e <TaskErgodicReadWrite+0x8>
  3d9852:	3c 0c 02 65 	lwi.gp $r0,[+#0x994]
  3d9856:	3c 50 04 d3 	lhi.gp $r5,[+#0x9a6]
  3d985a:	4c 50 7f 82 	bne $r5,$r0,3d975e <TaskErgodicReadWrite+0x8>
  3d985e:	d5 ac       	j8 3d97b6 <TaskErgodicReadWrite+0x60>
  3d9860:	88 07       	add45 $r0,$r7
  3d9862:	80 26       	mov55 $r1,$r6
  3d9864:	00 90 02 44 	lbi $r9,[$r0+#0x244]
  3d9868:	80 09       	mov55 $r0,$r9
  3d986a:	49 ff f7 66 	jal 3d8736 <Task_MultiCEForContinue>
  3d986e:	c6 0d       	beqz38 $r6,3d9888 <TaskErgodicReadWrite+0x132>
  3d9870:	80 09       	mov55 $r0,$r9
  3d9872:	8c e1       	addi45 $r7,#0x1
  3d9874:	49 ff ff 08 	jal 3d9684 <ChanTaskErgodic>
  3d9878:	97 f8       	zeb33 $r7,$r7
  3d987a:	3c 0d fd 62 	lwi.gp $r0,[+#-2680]
  3d987e:	00 10 01 90 	lbi $r1,[$r0+#0x190]
  3d9882:	e2 e1       	slt45 $r7,$r1
  3d9884:	e9 ee       	bnezs8 3d9860 <TaskErgodicReadWrite+0x10a>
  3d9886:	d5 09       	j8 3d9898 <TaskErgodicReadWrite+0x142>
  3d9888:	80 09       	mov55 $r0,$r9
  3d988a:	49 00 07 ba 	jal 3da7fe <HAL_CQGetIdleSpace>
  3d988e:	2e 10 09 88 	lbi.gp $r1,[+#0x988]
  3d9892:	e2 01       	slt45 $r0,$r1
  3d9894:	e9 fa       	bnezs8 3d9888 <TaskErgodicReadWrite+0x132>
  3d9896:	d5 ed       	j8 3d9870 <TaskErgodicReadWrite+0x11a>
  3d9898:	84 01       	movi55 $r0,#0x1
  3d989a:	fc c0       	pop25 $r10,#0    ! {$r6~$r10, $fp, $gp, $lp}

003d989c <RunFtlTaskErgodic>:
  3d989c:	2e 17 e8 a0 	lbi.gp $r1,[+#-5984]
  3d98a0:	5a 10 03 13 	beqc $r1,#0x3,3d98c6 <RunFtlTaskErgodic+0x2a>
  3d98a4:	fc 00       	push25 $r6,#0    ! {$r6, $fp, $gp, $lp}
  3d98a6:	80 c0       	mov55 $r6,$r0
  3d98a8:	5a 00 02 05 	beqc $r0,#0x2,3d98b2 <RunFtlTaskErgodic+0x16>
  3d98ac:	84 00       	movi55 $r0,#0x0
  3d98ae:	49 00 0f 7d 	jal 3db7a8 <HAL_MCUSetGieState>
  3d98b2:	80 06       	mov55 $r0,$r6
  3d98b4:	3c 1c 02 ab 	lwi.gp $r1,[+#0xaac]
  3d98b8:	dd 21       	jral5 $r1
  3d98ba:	5a 60 02 05 	beqc $r6,#0x2,3d98c4 <RunFtlTaskErgodic+0x28>
  3d98be:	84 01       	movi55 $r0,#0x1
  3d98c0:	49 00 0f 74 	jal 3db7a8 <HAL_MCUSetGieState>
  3d98c4:	fc 80       	pop25 $r6,#0    ! {$r6, $fp, $gp, $lp}
  3d98c6:	dd 9e       	ret5 $lp

003d98c8 <WirteStartDMA2ByCQ>:
  3d98c8:	fc 43       	push25 $r10,#24    ! {$r6~$r10, $fp, $gp, $lp}
  3d98ca:	3f c8 09 a8 	addi.gp $fp,#0x9a8
  3d98ce:	80 c1       	mov55 $r6,$r1
  3d98d0:	81 24       	mov55 $r9,$r4
  3d98d2:	2e 40 09 dc 	lbi.gp $r4,[+#0x9dc]
  3d98d6:	f0 83       	swi37.sp $r0,[+#0xc]
  3d98d8:	81 03       	mov55 $r8,$r3
  3d98da:	cc 0e       	bnez38 $r4,3d98f6 <WirteStartDMA2ByCQ+0x2e>
  3d98dc:	80 44       	mov55 $r2,$r4
  3d98de:	3c 1d fd 62 	lwi.gp $r1,[+#-2680]
  3d98e2:	00 50 81 a6 	lbi $r5,[$r1+#0x1a6]
  3d98e6:	b7 3f       	swi450 $r9,[$sp]
  3d98e8:	f4 81       	swi37.sp $r4,[+#0x4]
  3d98ea:	b9 00       	lwi37 $r1,[$fp+#0x0]
  3d98ec:	42 33 14 24 	mul $r3,$r6,$r5
  3d98f0:	49 00 09 43 	jal 3dab76 <HAL_CQStartDMA2Write>
  3d98f4:	d5 39       	j8 3d9966 <WirteStartDMA2ByCQ+0x9e>
  3d98f6:	5a 48 01 2a 	bnec $r4,#0x1,3d994a <WirteStartDMA2ByCQ+0x82>
  3d98fa:	ff 94       	mul33 $r6,$r2
  3d98fc:	98 32       	add333 $r0,$r6,$r2
  3d98fe:	40 a3 04 08 	slli $r10,$r6,#0x1
  3d9902:	f0 84       	swi37.sp $r0,[+#0x10]
  3d9904:	84 e0       	movi55 $r7,#0x0
  3d9906:	f0 04       	lwi37.sp $r0,[+#0x10]
  3d9908:	4c 60 00 2f 	beq $r6,$r0,3d9966 <WirteStartDMA2ByCQ+0x9e>
  3d990c:	b8 0c       	lwi37 $r0,[$fp+#0x30]
  3d990e:	2e 10 0a a3 	lbi.gp $r1,[+#0xaa3]
  3d9912:	e2 c1       	slt45 $r6,$r1
  3d9914:	38 30 28 01 	lh $r3,[$r0+($r10<<#0x0)]
  3d9918:	e9 02       	bnezs8 3d991c <WirteStartDMA2ByCQ+0x54>
  3d991a:	a4 c0       	lhi333 $r3,[$r0+#0x0]
  3d991c:	f0 03       	lwi37.sp $r0,[+#0xc]
  3d991e:	f3 85       	swi37.sp $r3,[+#0x14]
  3d9920:	49 00 09 22 	jal 3dab64 <HAL_CQCheckRealDone>
  3d9924:	3c 0d fd 62 	lwi.gp $r0,[+#-2680]
  3d9928:	80 87       	mov55 $r4,$r7
  3d992a:	b9 00       	lwi37 $r1,[$fp+#0x0]
  3d992c:	00 50 01 a8 	lbi $r5,[$r0+#0x1a8]
  3d9930:	84 00       	movi55 $r0,#0x0
  3d9932:	f0 81       	swi37.sp $r0,[+#0x4]
  3d9934:	b7 3f       	swi450 $r9,[$sp]
  3d9936:	f0 03       	lwi37.sp $r0,[+#0xc]
  3d9938:	84 40       	movi55 $r2,#0x0
  3d993a:	f3 05       	lwi37.sp $r3,[+#0x14]
  3d993c:	88 e8       	add45 $r7,$r8
  3d993e:	49 00 09 c0 	jal 3dacbe <HAL_CQStartDMA2>
  3d9942:	97 f8       	zeb33 $r7,$r7
  3d9944:	8d 42       	addi45 $r10,#0x2
  3d9946:	8c c1       	addi45 $r6,#0x1
  3d9948:	d5 df       	j8 3d9906 <WirteStartDMA2ByCQ+0x3e>
  3d994a:	84 40       	movi55 $r2,#0x0
  3d994c:	3c 1d fd 62 	lwi.gp $r1,[+#-2680]
  3d9950:	80 62       	mov55 $r3,$r2
  3d9952:	80 82       	mov55 $r4,$r2
  3d9954:	00 50 81 a6 	lbi $r5,[$r1+#0x1a6]
  3d9958:	b7 3f       	swi450 $r9,[$sp]
  3d995a:	b9 00       	lwi37 $r1,[$fp+#0x0]
  3d995c:	f2 81       	swi37.sp $r2,[+#0x4]
  3d995e:	38 10 9a 02 	lw $r1,[$r1+($r6<<#0x2)]
  3d9962:	49 00 09 ae 	jal 3dacbe <HAL_CQStartDMA2>
  3d9966:	fc c3       	pop25 $r10,#24    ! {$r6~$r10, $fp, $gp, $lp}

003d9968 <TaskConvertWritePageToFlash>:
  3d9968:	fc 44       	push25 $r10,#32    ! {$r6~$r10, $fp, $gp, $lp}
  3d996a:	3e 6f f6 68 	addi.gp $r6,#-2456
  3d996e:	81 40       	mov55 $r10,$r0
  3d9970:	80 26       	mov55 $r1,$r6
  3d9972:	44 00 04 c8 	movi $r0,#0x4c8
  3d9976:	42 15 00 73 	maddr32 $r1,$r10,$r0
  3d997a:	b4 01       	lwi450 $r0,[$r1]
  3d997c:	44 10 01 32 	movi $r1,#0x132
  3d9980:	96 27       	fexti33 $r0,#0x4
  3d9982:	42 05 04 73 	maddr32 $r0,$r10,$r1
  3d9986:	8c 04       	addi45 $r0,#0x4
  3d9988:	85 03       	movi55 $r8,#0x3
  3d998a:	38 03 02 02 	lw $r0,[$r6+($r0<<#0x2)]
  3d998e:	f0 81       	swi37.sp $r0,[+#0x4]
  3d9990:	3c 70 04 ce 	lhi.gp $r7,[+#0x99c]
  3d9994:	f0 01       	lwi37.sp $r0,[+#0x4]
  3d9996:	8e e1       	subi45 $r7,#0x1
  3d9998:	ff c6       	and33 $r7,$r0
  3d999a:	97 f9       	zeh33 $r7,$r7
  3d999c:	3c 0c 02 6c 	lwi.gp $r0,[+#0x9b0]
  3d99a0:	94 7b       	slli333 $r1,$r7,#0x3
  3d99a2:	88 01       	add45 $r0,$r1
  3d99a4:	f0 82       	swi37.sp $r0,[+#0x8]
  3d99a6:	00 90 00 02 	lbi $r9,[$r0+#0x2]
  3d99aa:	3c 0c 02 63 	lwi.gp $r0,[+#0x98c]
  3d99ae:	5a 00 06 07 	beqc $r0,#0x6,3d99bc <TaskConvertWritePageToFlash+0x54>
  3d99b2:	85 00       	movi55 $r8,#0x0
  3d99b4:	5a 08 02 04 	bnec $r0,#0x2,3d99bc <TaskConvertWritePageToFlash+0x54>
  3d99b8:	2e 80 0a a2 	lbi.gp $r8,[+#0xaa2]
  3d99bc:	84 40       	movi55 $r2,#0x0
  3d99be:	b0 05       	addri36.sp $r0,#0x14
  3d99c0:	f1 02       	lwi37.sp $r1,[+#0x8]
  3d99c2:	49 ff f3 71 	jal 3d80a4 <Fdl_ConvertAddrInfo>
  3d99c6:	44 00 04 c8 	movi $r0,#0x4c8
  3d99ca:	42 65 00 73 	maddr32 $r6,$r10,$r0
  3d99ce:	40 33 24 00 	add $r3,$r6,$r9
  3d99d2:	00 1f 80 1b 	lbi $r1,[$sp+#0x1b]
  3d99d6:	00 01 84 8c 	lbi $r0,[$r3+#0x48c]
  3d99da:	f3 83       	swi37.sp $r3,[+#0xc]
  3d99dc:	10 01 84 88 	sbi $r0,[$r3+#0x488]
  3d99e0:	00 0f 80 1a 	lbi $r0,[$sp+#0x1a]
  3d99e4:	49 00 07 2c 	jal 3da83c <HAL_CQChipSelect>
  3d99e8:	00 0f 80 1a 	lbi $r0,[$sp+#0x1a]
  3d99ec:	f1 01       	lwi37.sp $r1,[+#0x4]
  3d99ee:	49 00 07 ea 	jal 3da9c2 <HAL_CQCfgLogicNum>
  3d99f2:	01 c3 00 90 	lbi $fp,[$r6+#0x90]
  3d99f6:	00 2f 80 1a 	lbi $r2,[$sp+#0x1a]
  3d99fa:	f3 03       	lwi37.sp $r3,[+#0xc]
  3d99fc:	4f c3 00 2d 	bnez $fp,3d9a56 <TaskConvertWritePageToFlash+0xee>
  3d9a00:	80 bc       	mov55 $r5,$fp
  3d9a02:	80 7c       	mov55 $r3,$fp
  3d9a04:	80 9c       	mov55 $r4,$fp
  3d9a06:	80 1c       	mov55 $r0,$fp
  3d9a08:	80 28       	mov55 $r1,$r8
  3d9a0a:	49 00 07 fc 	jal 3daa02 <HAL_CQCheckHold>
  3d9a0e:	00 0f 80 1a 	lbi $r0,[$sp+#0x1a]
  3d9a12:	00 1f 80 1b 	lbi $r1,[$sp+#0x1b]
  3d9a16:	49 00 07 13 	jal 3da83c <HAL_CQChipSelect>
  3d9a1a:	00 2f 80 1f 	lbi $r2,[$sp+#0x1f]
  3d9a1e:	00 3f 80 1d 	lbi $r3,[$sp+#0x1d]
  3d9a22:	fe bc       	mul33 $r2,$r7
  3d9a24:	3c 1c 02 70 	lwi.gp $r1,[+#0x9c0]
  3d9a28:	42 11 0c 73 	maddr32 $r1,$r2,$r3
  3d9a2c:	00 0f 80 1a 	lbi $r0,[$sp+#0x1a]
  3d9a30:	00 2f 80 1e 	lbi $r2,[$sp+#0x1e]
  3d9a34:	80 9c       	mov55 $r4,$fp
  3d9a36:	49 00 09 0c 	jal 3dac4e <HAL_CQSetUd>
  3d9a3a:	00 0f 80 1a 	lbi $r0,[$sp+#0x1a]
  3d9a3e:	00 1f 80 1b 	lbi $r1,[$sp+#0x1b]
  3d9a42:	84 41       	movi55 $r2,#0x1
  3d9a44:	44 30 00 40 	movi $r3,#0x40
  3d9a48:	80 9c       	mov55 $r4,$fp
  3d9a4a:	49 00 08 0c 	jal 3daa62 <HAL_CQCheckIOStatus>
  3d9a4e:	84 01       	movi55 $r0,#0x1
  3d9a50:	10 03 00 90 	sbi $r0,[$r6+#0x90]
  3d9a54:	d5 13       	j8 3d9a7a <TaskConvertWritePageToFlash+0x112>
  3d9a56:	00 31 84 88 	lbi $r3,[$r3+#0x488]
  3d9a5a:	00 1f 80 1b 	lbi $r1,[$sp+#0x1b]
  3d9a5e:	80 02       	mov55 $r0,$r2
  3d9a60:	5a 38 01 07 	bnec $r3,#0x1,3d9a6e <TaskConvertWritePageToFlash+0x106>
  3d9a64:	80 43       	mov55 $r2,$r3
  3d9a66:	84 80       	movi55 $r4,#0x0
  3d9a68:	44 30 00 40 	movi $r3,#0x40
  3d9a6c:	d5 05       	j8 3d9a76 <TaskConvertWritePageToFlash+0x10e>
  3d9a6e:	84 41       	movi55 $r2,#0x1
  3d9a70:	44 30 00 40 	movi $r3,#0x40
  3d9a74:	84 82       	movi55 $r4,#0x2
  3d9a76:	49 00 07 f6 	jal 3daa62 <HAL_CQCheckIOStatus>
  3d9a7a:	3e 0f f6 68 	addi.gp $r0,#-2456
  3d9a7e:	44 10 04 c8 	movi $r1,#0x4c8
  3d9a82:	80 40       	mov55 $r2,$r0
  3d9a84:	42 25 04 73 	maddr32 $r2,$r10,$r1
  3d9a88:	80 22       	mov55 $r1,$r2
  3d9a8a:	88 29       	add45 $r1,$r9
  3d9a8c:	00 20 84 a8 	lbi $r2,[$r1+#0x4a8]
  3d9a90:	c2 04       	beqz38 $r2,3d9a98 <TaskConvertWritePageToFlash+0x130>
  3d9a92:	8e 41       	subi45 $r2,#0x1
  3d9a94:	10 20 84 a8 	sbi $r2,[$r1+#0x4a8]
  3d9a98:	3c 3d fd 62 	lwi.gp $r3,[+#-2680]
  3d9a9c:	00 61 82 e8 	lbi $r6,[$r3+#0x2e8]
  3d9aa0:	c6 52       	beqz38 $r6,3d9b44 <TaskConvertWritePageToFlash+0x1dc>
  3d9aa2:	44 10 04 c8 	movi $r1,#0x4c8
  3d9aa6:	42 15 04 24 	mul $r1,$r10,$r1
  3d9aaa:	44 20 00 ec 	movi $r2,#0xec
  3d9aae:	80 81       	mov55 $r4,$r1
  3d9ab0:	42 44 88 73 	maddr32 $r4,$r9,$r2
  3d9ab4:	88 04       	add45 $r0,$r4
  3d9ab6:	3f cf f6 68 	addi.gp $fp,#-2456
  3d9aba:	00 20 01 c0 	lbi $r2,[$r0+#0x1c0]
  3d9abe:	e6 42       	slti45 $r2,#0x2
  3d9ac0:	e9 3f       	bnezs8 3d9b3e <TaskConvertWritePageToFlash+0x1d6>
  3d9ac2:	02 00 00 dc 	lhi $r0,[$r0+#0x1b8]
  3d9ac6:	44 40 00 3b 	movi $r4,#0x3b
  3d9aca:	8c 01       	addi45 $r0,#0x1
  3d9acc:	54 20 00 1f 	andi $r2,$r0,#0x1f
  3d9ad0:	44 00 01 32 	movi $r0,#0x132
  3d9ad4:	42 05 00 24 	mul $r0,$r10,$r0
  3d9ad8:	42 04 90 73 	maddr32 $r0,$r9,$r4
  3d9adc:	88 02       	add45 $r0,$r2
  3d9ade:	50 00 00 36 	addi $r0,$r0,#0x36
  3d9ae2:	f2 02       	lwi37.sp $r2,[+#0x8]
  3d9ae4:	38 0e 02 02 	lw $r0,[$fp+($r0<<#0x2)]
  3d9ae8:	04 51 80 67 	lwi $r5,[$r3+#0x19c]
  3d9aec:	05 e1 00 01 	lwi $lp,[$r2+#0x4]
  3d9af0:	40 00 20 08 	slli $r0,$r0,#0x8
  3d9af4:	92 08       	srli45 $r0,#0x8
  3d9af6:	40 60 78 03 	xor $r6,$r0,$lp
  3d9afa:	9f 29       	subi333 $r4,$r5,#0x1
  3d9afc:	40 f3 10 02 	and $r15,$r6,$r4
  3d9b00:	00 21 81 95 	lbi $r2,[$r3+#0x195]
  3d9b04:	e9 1d       	bnezs8 3d9b3e <TaskConvertWritePageToFlash+0x1d6>
  3d9b06:	02 41 80 cc 	lhi $r4,[$r3+#0x198]
  3d9b0a:	8e 41       	subi45 $r2,#0x1
  3d9b0c:	ff 14       	mul33 $r4,$r2
  3d9b0e:	ff a6       	and33 $r6,$r4
  3d9b10:	c6 1a       	beqz38 $r6,3d9b44 <TaskConvertWritePageToFlash+0x1dc>
  3d9b12:	88 3c       	add45 $r1,$fp
  3d9b14:	88 29       	add45 $r1,$r9
  3d9b16:	96 90       	zeb33 $r2,$r2
  3d9b18:	00 40 84 b8 	lbi $r4,[$r1+#0x4b8]
  3d9b1c:	40 00 14 17 	divr $r0,$r0,$r0,$r5
  3d9b20:	fe 16       	and33 $r0,$r2
  3d9b22:	40 02 00 0e 	sra $r0,$r4,$r0
  3d9b26:	84 c1       	movi55 $r6,#0x1
  3d9b28:	fe 36       	and33 $r0,$r6
  3d9b2a:	c8 0c       	bnez38 $r0,3d9b42 <TaskConvertWritePageToFlash+0x1da>
  3d9b2c:	40 5f 14 b7 	divr $r5,$r5,$lp,$r5
  3d9b30:	fe ae       	and33 $r2,$r5
  3d9b32:	40 23 08 0c 	sll $r2,$r6,$r2
  3d9b36:	fe a7       	or33 $r2,$r4
  3d9b38:	10 20 84 b8 	sbi $r2,[$r1+#0x4b8]
  3d9b3c:	d5 04       	j8 3d9b44 <TaskConvertWritePageToFlash+0x1dc>
  3d9b3e:	84 c0       	movi55 $r6,#0x0
  3d9b40:	d5 02       	j8 3d9b44 <TaskConvertWritePageToFlash+0x1dc>
  3d9b42:	80 cf       	mov55 $r6,$r15
  3d9b44:	00 01 82 f4 	lbi $r0,[$r3+#0x2f4]
  3d9b48:	3f cf f6 68 	addi.gp $fp,#-2456
  3d9b4c:	c0 1a       	beqz38 $r0,3d9b80 <TaskConvertWritePageToFlash+0x218>
  3d9b4e:	3c 0c 02 63 	lwi.gp $r0,[+#0x98c]
  3d9b52:	5a 08 06 17 	bnec $r0,#0x6,3d9b80 <TaskConvertWritePageToFlash+0x218>
  3d9b56:	5a 60 01 15 	beqc $r6,#0x1,3d9b80 <TaskConvertWritePageToFlash+0x218>
  3d9b5a:	f1 02       	lwi37.sp $r1,[+#0x8]
  3d9b5c:	02 01 81 20 	lhi $r0,[$r3+#0x240]
  3d9b60:	84 c0       	movi55 $r6,#0x0
  3d9b62:	a1 49       	lwi333 $r5,[$r1+#0x4]
  3d9b64:	8e 01       	subi45 $r0,#0x1
  3d9b66:	ff 46       	and33 $r5,$r0
  3d9b68:	d0 0c       	beqs38 $r0,3d9b80 <TaskConvertWritePageToFlash+0x218>
  3d9b6a:	44 00 04 c8 	movi $r0,#0x4c8
  3d9b6e:	80 3c       	mov55 $r1,$fp
  3d9b70:	42 15 00 73 	maddr32 $r1,$r10,$r0
  3d9b74:	80 01       	mov55 $r0,$r1
  3d9b76:	88 09       	add45 $r0,$r9
  3d9b78:	84 20       	movi55 $r1,#0x0
  3d9b7a:	10 10 04 b8 	sbi $r1,[$r0+#0x4b8]
  3d9b7e:	84 c5       	movi55 $r6,#0x5
  3d9b80:	44 00 04 c8 	movi $r0,#0x4c8
  3d9b84:	80 3c       	mov55 $r1,$fp
  3d9b86:	42 15 00 73 	maddr32 $r1,$r10,$r0
  3d9b8a:	80 01       	mov55 $r0,$r1
  3d9b8c:	80 49       	mov55 $r2,$r9
  3d9b8e:	44 10 01 32 	movi $r1,#0x132
  3d9b92:	42 25 04 73 	maddr32 $r2,$r10,$r1
  3d9b96:	50 11 01 26 	addi $r1,$r2,#0x126
  3d9b9a:	88 09       	add45 $r0,$r9
  3d9b9c:	f2 01       	lwi37.sp $r2,[+#0x4]
  3d9b9e:	38 2e 06 0a 	sw $r2,[$fp+($r1<<#0x2)]
  3d9ba2:	00 10 04 88 	lbi $r1,[$r0+#0x488]
  3d9ba6:	10 60 04 8c 	sbi $r6,[$r0+#0x48c]
  3d9baa:	c9 06       	bnez38 $r1,3d9bb6 <TaskConvertWritePageToFlash+0x24e>
  3d9bac:	10 10 04 b0 	sbi $r1,[$r0+#0x4b0]
  3d9bb0:	10 10 04 ac 	sbi $r1,[$r0+#0x4ac]
  3d9bb4:	d5 12       	j8 3d9bd8 <TaskConvertWritePageToFlash+0x270>
  3d9bb6:	5a 18 05 0a 	bnec $r1,#0x5,3d9bca <TaskConvertWritePageToFlash+0x262>
  3d9bba:	50 10 04 a8 	addi $r1,$r0,#0x4a8
  3d9bbe:	a6 8c       	lbi333 $r2,[$r1+#0x4]
  3d9bc0:	10 20 04 b0 	sbi $r2,[$r0+#0x4b0]
  3d9bc4:	84 00       	movi55 $r0,#0x0
  3d9bc6:	ae 0c       	sbi333 $r0,[$r1+#0x4]
  3d9bc8:	d5 08       	j8 3d9bd8 <TaskConvertWritePageToFlash+0x270>
  3d9bca:	5a 18 01 07 	bnec $r1,#0x1,3d9bd8 <TaskConvertWritePageToFlash+0x270>
  3d9bce:	00 0f 80 1a 	lbi $r0,[$sp+#0x1a]
  3d9bd2:	44 10 00 81 	movi $r1,#0x81
  3d9bd6:	d5 05       	j8 3d9be0 <TaskConvertWritePageToFlash+0x278>
  3d9bd8:	00 0f 80 1a 	lbi $r0,[$sp+#0x1a]
  3d9bdc:	44 10 00 80 	movi $r1,#0x80
  3d9be0:	49 00 06 e7 	jal 3da9ae <HAL_CQSendFlashCmd>
  3d9be4:	00 0f 80 1a 	lbi $r0,[$sp+#0x1a]
  3d9be8:	3c 1d fd 62 	lwi.gp $r1,[+#-2680]
  3d9bec:	f2 05       	lwi37.sp $r2,[+#0x14]
  3d9bee:	02 10 80 e0 	lhi $r1,[$r1+#0x1c0]
  3d9bf2:	49 00 06 9c 	jal 3da92a <HAL_CQSend5Addr>
  3d9bf6:	00 2f 80 1f 	lbi $r2,[$sp+#0x1f]
  3d9bfa:	00 3f 80 1d 	lbi $r3,[$sp+#0x1d]
  3d9bfe:	fe bc       	mul33 $r2,$r7
  3d9c00:	3c 1c 02 70 	lwi.gp $r1,[+#0x9c0]
  3d9c04:	00 0f 80 1a 	lbi $r0,[$sp+#0x1a]
  3d9c08:	42 11 0c 73 	maddr32 $r1,$r2,$r3
  3d9c0c:	84 40       	movi55 $r2,#0x0
  3d9c0e:	49 00 07 f1 	jal 3dabf0 <HAL_CQSetUdBaseAddr>
  3d9c12:	3c 0c 02 75 	lwi.gp $r0,[+#0x9d4]
  3d9c16:	c0 04       	beqz38 $r0,3d9c1e <TaskConvertWritePageToFlash+0x2b6>
  3d9c18:	38 20 1d 01 	lh $r2,[$r0+($r7<<#0x1)]
  3d9c1c:	d5 03       	j8 3d9c22 <TaskConvertWritePageToFlash+0x2ba>
  3d9c1e:	44 20 ff ff 	movi $r2,#0xffff
  3d9c22:	00 0f 80 1a 	lbi $r0,[$sp+#0x1a]
  3d9c26:	f1 05       	lwi37.sp $r1,[+#0x14]
  3d9c28:	49 00 08 2b 	jal 3dac7e <HAL_CQSetRndSeed>
  3d9c2c:	00 2f 80 1f 	lbi $r2,[$sp+#0x1f]
  3d9c30:	2e 10 09 dc 	lbi.gp $r1,[+#0x9dc]
  3d9c34:	00 3f 80 1e 	lbi $r3,[$sp+#0x1e]
  3d9c38:	00 0f 80 1a 	lbi $r0,[$sp+#0x1a]
  3d9c3c:	c9 03       	bnez38 $r1,3d9c42 <TaskConvertWritePageToFlash+0x2da>
  3d9c3e:	f1 01       	lwi37.sp $r1,[+#0x4]
  3d9c40:	d5 02       	j8 3d9c44 <TaskConvertWritePageToFlash+0x2dc>
  3d9c42:	80 27       	mov55 $r1,$r7
  3d9c44:	80 88       	mov55 $r4,$r8
  3d9c46:	49 ff fe 41 	jal 3d98c8 <WirteStartDMA2ByCQ>
  3d9c4a:	00 0f 80 1a 	lbi $r0,[$sp+#0x1a]
  3d9c4e:	5a 68 01 04 	bnec $r6,#0x1,3d9c56 <TaskConvertWritePageToFlash+0x2ee>
  3d9c52:	fa 21       	movpi45 $r1,#0x11
  3d9c54:	d5 06       	j8 3d9c60 <TaskConvertWritePageToFlash+0x2f8>
  3d9c56:	5a 68 05 04 	bnec $r6,#0x5,3d9c5e <TaskConvertWritePageToFlash+0x2f6>
  3d9c5a:	fa 25       	movpi45 $r1,#0x15
  3d9c5c:	d5 02       	j8 3d9c60 <TaskConvertWritePageToFlash+0x2f8>
  3d9c5e:	fa 20       	movpi45 $r1,#0x10
  3d9c60:	49 00 06 a7 	jal 3da9ae <HAL_CQSendFlashCmd>
  3d9c64:	00 0f 80 1a 	lbi $r0,[$sp+#0x1a]
  3d9c68:	80 26       	mov55 $r1,$r6
  3d9c6a:	49 00 06 bc 	jal 3da9e2 <HAL_CQCfgLogicNumExt>
  3d9c6e:	3c 0c 02 63 	lwi.gp $r0,[+#0x98c]
  3d9c72:	5a 08 06 0c 	bnec $r0,#0x6,3d9c8a <TaskConvertWritePageToFlash+0x322>
  3d9c76:	3c 0c 02 af 	lwi.gp $r0,[+#0xabc]
  3d9c7a:	00 00 00 0e 	lbi $r0,[$r0+#0xe]
  3d9c7e:	c8 06       	bnez38 $r0,3d9c8a <TaskConvertWritePageToFlash+0x322>
  3d9c80:	00 0f 80 1a 	lbi $r0,[$sp+#0x1a]
  3d9c84:	84 21       	movi55 $r1,#0x1
  3d9c86:	49 00 06 e3 	jal 3daa4c <HAL_CQCheckHoldOnly>
  3d9c8a:	44 00 04 c8 	movi $r0,#0x4c8
  3d9c8e:	42 05 00 24 	mul $r0,$r10,$r0
  3d9c92:	40 1e 00 00 	add $r1,$fp,$r0
  3d9c96:	88 29       	add45 $r1,$r9
  3d9c98:	50 30 84 a8 	addi $r3,$r1,#0x4a8
  3d9c9c:	a6 9c       	lbi333 $r2,[$r3+#0x4]
  3d9c9e:	8c 41       	addi45 $r2,#0x1
  3d9ca0:	ae 9c       	sbi333 $r2,[$r3+#0x4]
  3d9ca2:	00 20 84 a8 	lbi $r2,[$r1+#0x4a8]
  3d9ca6:	8c 41       	addi45 $r2,#0x1
  3d9ca8:	10 20 84 a8 	sbi $r2,[$r1+#0x4a8]
  3d9cac:	44 10 00 ec 	movi $r1,#0xec
  3d9cb0:	42 04 84 73 	maddr32 $r0,$r9,$r1
  3d9cb4:	81 40       	mov55 $r10,$r0
  3d9cb6:	89 5c       	add45 $r10,$fp
  3d9cb8:	02 05 00 dc 	lhi $r0,[$r10+#0x1b8]
  3d9cbc:	8c 01       	addi45 $r0,#0x1
  3d9cbe:	12 05 00 dc 	shi $r0,[$r10+#0x1b8]
  3d9cc2:	00 05 01 c0 	lbi $r0,[$r10+#0x1c0]
  3d9cc6:	8e 01       	subi45 $r0,#0x1
  3d9cc8:	10 05 01 c0 	sbi $r0,[$r10+#0x1c0]
  3d9ccc:	84 01       	movi55 $r0,#0x1
  3d9cce:	fc c4       	pop25 $r10,#32    ! {$r6~$r10, $fp, $gp, $lp}

003d9cd0 <Fdl_GetWriteFailInfor>:
  3d9cd0:	3e 1d 26 80 	addi.gp $r1,#-186752
  3d9cd4:	38 00 82 02 	lw $r0,[$r1+($r0<<#0x2)]
  3d9cd8:	04 20 00 39 	lwi $r2,[$r0+#0xe4]
  3d9cdc:	96 91       	zeh33 $r2,$r2
  3d9cde:	3c 0c 02 6c 	lwi.gp $r0,[+#0x9b0]
  3d9ce2:	94 93       	slli333 $r2,$r2,#0x3
  3d9ce4:	88 40       	add45 $r2,$r0
  3d9ce6:	a6 50       	lbi333 $r1,[$r2+#0x0]
  3d9ce8:	a6 11       	lbi333 $r0,[$r2+#0x1]
  3d9cea:	40 10 f8 08 	slli $r1,$r1,#0x1e
  3d9cee:	40 00 60 08 	slli $r0,$r0,#0x18
  3d9cf2:	fe 47       	or33 $r1,$r0
  3d9cf4:	a0 11       	lwi333 $r0,[$r2+#0x4]
  3d9cf6:	40 00 20 08 	slli $r0,$r0,#0x8
  3d9cfa:	92 08       	srli45 $r0,#0x8
  3d9cfc:	fe 47       	or33 $r1,$r0
  3d9cfe:	a6 12       	lbi333 $r0,[$r2+#0x2]
  3d9d00:	40 00 68 08 	slli $r0,$r0,#0x1a
  3d9d04:	fe 0f       	or33 $r0,$r1
  3d9d06:	dd 9e       	ret5 $lp

003d9d08 <FDL_SearchOfstByBlkAddr>:
  3d9d08:	fc 40       	push25 $r10,#0    ! {$r6~$r10, $fp, $gp, $lp}
  3d9d0a:	3c 7c 02 6c 	lwi.gp $r7,[+#0x9b0]
  3d9d0e:	95 5a       	slli333 $r5,$r3,#0x2
  3d9d10:	88 a7       	add45 $r5,$r7
  3d9d12:	3c 9d fd 62 	lwi.gp $r9,[+#-2680]
  3d9d16:	a7 a8       	lbi333 $r6,[$r5+#0x0]
  3d9d18:	88 c9       	add45 $r6,$r9
  3d9d1a:	00 63 02 44 	lbi $r6,[$r6+#0x244]
  3d9d1e:	cc 13       	bnez38 $r4,3d9d44 <FDL_SearchOfstByBlkAddr+0x3c>
  3d9d20:	4c 60 00 0c 	beq $r6,$r0,3d9d38 <FDL_SearchOfstByBlkAddr+0x30>
  3d9d24:	c3 21       	beqz38 $r3,3d9d66 <FDL_SearchOfstByBlkAddr+0x5e>
  3d9d26:	8e 61       	subi45 $r3,#0x1
  3d9d28:	96 d9       	zeh33 $r3,$r3
  3d9d2a:	95 5a       	slli333 $r5,$r3,#0x2
  3d9d2c:	88 a7       	add45 $r5,$r7
  3d9d2e:	a7 28       	lbi333 $r4,[$r5+#0x0]
  3d9d30:	88 89       	add45 $r4,$r9
  3d9d32:	00 62 02 44 	lbi $r6,[$r4+#0x244]
  3d9d36:	d5 f5       	j8 3d9d20 <FDL_SearchOfstByBlkAddr+0x18>
  3d9d38:	a7 29       	lbi333 $r4,[$r5+#0x1]
  3d9d3a:	4c 40 ff f5 	bne $r4,$r1,3d9d24 <FDL_SearchOfstByBlkAddr+0x1c>
  3d9d3e:	a5 69       	lhi333 $r5,[$r5+#0x2]
  3d9d40:	da f2       	bnes38 $r2,3d9d24 <FDL_SearchOfstByBlkAddr+0x1c>
  3d9d42:	d5 14       	j8 3d9d6a <FDL_SearchOfstByBlkAddr+0x62>
  3d9d44:	5a 48 02 13 	bnec $r4,#0x2,3d9d6a <FDL_SearchOfstByBlkAddr+0x62>
  3d9d48:	4c 60 00 0c 	beq $r6,$r0,3d9d60 <FDL_SearchOfstByBlkAddr+0x58>
  3d9d4c:	c3 0d       	beqz38 $r3,3d9d66 <FDL_SearchOfstByBlkAddr+0x5e>
  3d9d4e:	8e 61       	subi45 $r3,#0x1
  3d9d50:	96 d9       	zeh33 $r3,$r3
  3d9d52:	95 5a       	slli333 $r5,$r3,#0x2
  3d9d54:	88 a7       	add45 $r5,$r7
  3d9d56:	a6 a8       	lbi333 $r2,[$r5+#0x0]
  3d9d58:	88 49       	add45 $r2,$r9
  3d9d5a:	00 61 02 44 	lbi $r6,[$r2+#0x244]
  3d9d5e:	d5 f5       	j8 3d9d48 <FDL_SearchOfstByBlkAddr+0x40>
  3d9d60:	a7 69       	lbi333 $r5,[$r5+#0x1]
  3d9d62:	d9 f5       	bnes38 $r1,3d9d4c <FDL_SearchOfstByBlkAddr+0x44>
  3d9d64:	d5 03       	j8 3d9d6a <FDL_SearchOfstByBlkAddr+0x62>
  3d9d66:	44 30 ff ff 	movi $r3,#0xffff
  3d9d6a:	80 03       	mov55 $r0,$r3
  3d9d6c:	fc c0       	pop25 $r10,#0    ! {$r6~$r10, $fp, $gp, $lp}

003d9d6e <Fdl_EraseFailHandler>:
  3d9d6e:	fc 41       	push25 $r10,#8    ! {$r6~$r10, $fp, $gp, $lp}
  3d9d70:	81 20       	mov55 $r9,$r0
  3d9d72:	3e 0d 26 80 	addi.gp $r0,#-186752
  3d9d76:	38 20 26 02 	lw $r2,[$r0+($r9<<#0x2)]
  3d9d7a:	3c 1c 02 6c 	lwi.gp $r1,[+#0x9b0]
  3d9d7e:	45 c0 ff ff 	movi $fp,#0xffff
  3d9d82:	04 01 00 39 	lwi $r0,[$r2+#0xe4]
  3d9d86:	04 61 00 39 	lwi $r6,[$r2+#0xe4]
  3d9d8a:	40 a0 00 13 	zeh $r10,$r0
  3d9d8e:	96 01       	zeh33 $r0,$r0
  3d9d90:	94 02       	slli333 $r0,$r0,#0x2
  3d9d92:	88 01       	add45 $r0,$r1
  3d9d94:	92 d0       	srli45 $r6,#0x10
  3d9d96:	a5 c1       	lhi333 $r7,[$r0+#0x2]
  3d9d98:	96 70       	zeb33 $r1,$r6
  3d9d9a:	00 80 00 01 	lbi $r8,[$r0+#0x1]
  3d9d9e:	f1 81       	swi37.sp $r1,[+#0x4]
  3d9da0:	80 c7       	mov55 $r6,$r7
  3d9da2:	9a 3e       	sub333 $r0,$r7,$r6
  3d9da4:	f1 01       	lwi37.sp $r1,[+#0x4]
  3d9da6:	96 00       	zeb33 $r0,$r0
  3d9da8:	e2 01       	slt45 $r0,$r1
  3d9daa:	e8 12       	beqzs8 3d9dce <Fdl_EraseFailHandler+0x60>
  3d9dac:	80 09       	mov55 $r0,$r9
  3d9dae:	80 28       	mov55 $r1,$r8
  3d9db0:	80 46       	mov55 $r2,$r6
  3d9db2:	80 6a       	mov55 $r3,$r10
  3d9db4:	84 80       	movi55 $r4,#0x0
  3d9db6:	49 ff ff a9 	jal 3d9d08 <FDL_SearchOfstByBlkAddr>
  3d9dba:	4c 0e 00 07 	beq $r0,$fp,3d9dc8 <Fdl_EraseFailHandler+0x5a>
  3d9dbe:	84 20       	movi55 $r1,#0x0
  3d9dc0:	3c 3c 02 ae 	lwi.gp $r3,[+#0xab8]
  3d9dc4:	84 41       	movi55 $r2,#0x1
  3d9dc6:	dd 23       	jral5 $r3
  3d9dc8:	9f 71       	subi333 $r5,$r6,#0x1
  3d9dca:	97 a9       	zeh33 $r6,$r5
  3d9dcc:	d5 eb       	j8 3d9da2 <Fdl_EraseFailHandler+0x34>
  3d9dce:	fc c1       	pop25 $r10,#8    ! {$r6~$r10, $fp, $gp, $lp}

003d9dd0 <FDL_Init>:
  3d9dd0:	fc 40       	push25 $r10,#0    ! {$r6~$r10, $fp, $gp, $lp}
  3d9dd2:	80 c0       	mov55 $r6,$r0
  3d9dd4:	80 20       	mov55 $r1,$r0
  3d9dd6:	44 20 00 4c 	movi $r2,#0x4c
  3d9dda:	3e 0f f5 88 	addi.gp $r0,#-2680
  3d9dde:	49 00 14 cc 	jal 3dc776 <U08MemCopy>
  3d9de2:	b4 06       	lwi450 $r0,[$r6]
  3d9de4:	49 00 08 2e 	jal 3dae40 <HAL_Init>
  3d9de8:	49 00 03 04 	jal 3da3f0 <HAL_BFCInit>
  3d9dec:	49 00 0d f1 	jal 3db9ce <HAL_PMCPInit>
  3d9df0:	3c 2d fd 62 	lwi.gp $r2,[+#-2680]
  3d9df4:	84 00       	movi55 $r0,#0x0
  3d9df6:	3c 0e 02 65 	swi.gp $r0,[+#0x994]
  3d9dfa:	04 41 00 63 	lwi $r4,[$r2+#0x18c]
  3d9dfe:	3c 0e 02 66 	swi.gp $r0,[+#0x998]
  3d9e02:	50 61 02 44 	addi $r6,$r2,#0x244
  3d9e06:	84 23       	movi55 $r1,#0x3
  3d9e08:	14 01 00 1a 	swi $r0,[$r2+#0x68]
  3d9e0c:	3e 17 e8 a0 	sbi.gp $r1,[+#-5984]
  3d9e10:	97 0f       	fexti33 $r4,#0x1
  3d9e12:	00 71 01 90 	lbi $r7,[$r2+#0x190]
  3d9e16:	80 a6       	mov55 $r5,$r6
  3d9e18:	9a 6e       	sub333 $r1,$r5,$r6
  3d9e1a:	96 48       	zeb33 $r1,$r1
  3d9e1c:	e2 27       	slt45 $r1,$r7
  3d9e1e:	e8 11       	beqzs8 3d9e40 <FDL_Init+0x70>
  3d9e20:	08 12 80 01 	lbi.bi $r1,[$r5],#0x1
  3d9e24:	94 49       	slli333 $r1,$r1,#0x1
  3d9e26:	50 30 80 08 	addi $r3,$r1,#0x8
  3d9e2a:	40 92 04 0c 	sll $r9,$r4,$r1
  3d9e2e:	40 32 0c 0c 	sll $r3,$r4,$r3
  3d9e32:	88 69       	add45 $r3,$r9
  3d9e34:	8c 30       	addi45 $r1,#0x10
  3d9e36:	88 03       	add45 $r0,$r3
  3d9e38:	40 12 04 0c 	sll $r1,$r4,$r1
  3d9e3c:	88 01       	add45 $r0,$r1
  3d9e3e:	d5 ed       	j8 3d9e18 <FDL_Init+0x48>
  3d9e40:	84 a0       	movi55 $r5,#0x0
  3d9e42:	3c 0f fa 34 	swi.gp $r0,[+#-5936]
  3d9e46:	46 10 05 e5 	sethi $r1,#0x5e5
  3d9e4a:	3e 9f e8 c8 	addi.gp $r9,#-5944
  3d9e4e:	14 00 80 10 	swi $r0,[$r1+#0x40]
  3d9e52:	00 71 01 90 	lbi $r7,[$r2+#0x190]
  3d9e56:	3e af e8 cc 	addi.gp $r10,#-5940
  3d9e5a:	d7 19       	beqs38 $r7,3d9e8c <FDL_Init+0xbc>
  3d9e5c:	00 61 01 93 	lbi $r6,[$r2+#0x193]
  3d9e60:	84 20       	movi55 $r1,#0x0
  3d9e62:	99 15       	add333 $r4,$r2,$r5
  3d9e64:	96 c8       	zeb33 $r3,$r1
  3d9e66:	e2 66       	slt45 $r3,$r6
  3d9e68:	e8 0f       	beqzs8 3d9e86 <FDL_Init+0xb6>
  3d9e6a:	00 82 02 44 	lbi $r8,[$r4+#0x244]
  3d9e6e:	40 04 08 08 	slli $r0,$r8,#0x2
  3d9e72:	88 02       	add45 $r0,$r2
  3d9e74:	88 01       	add45 $r0,$r1
  3d9e76:	38 54 a0 08 	sb $r5,[$r9+($r8<<#0x0)]
  3d9e7a:	00 00 02 48 	lbi $r0,[$r0+#0x248]
  3d9e7e:	8c 21       	addi45 $r1,#0x1
  3d9e80:	38 35 00 08 	sb $r3,[$r10+($r0<<#0x0)]
  3d9e84:	d5 f0       	j8 3d9e64 <FDL_Init+0x94>
  3d9e86:	8c a1       	addi45 $r5,#0x1
  3d9e88:	97 68       	zeb33 $r5,$r5
  3d9e8a:	d5 e8       	j8 3d9e5a <FDL_Init+0x8a>
  3d9e8c:	fc c0       	pop25 $r10,#0    ! {$r6~$r10, $fp, $gp, $lp}

003d9e8e <FDL_FlashWPCtrl>:
  3d9e8e:	46 10 05 e5 	sethi $r1,#0x5e5
  3d9e92:	44 2f ff bf 	movi $r2,#-65
  3d9e96:	04 30 80 7f 	lwi $r3,[$r1+#0x1fc]
  3d9e9a:	fe d6       	and33 $r3,$r2
  3d9e9c:	14 30 80 7f 	swi $r3,[$r1+#0x1fc]
  3d9ea0:	c8 07       	bnez38 $r0,3d9eae <FDL_FlashWPCtrl+0x20>
  3d9ea2:	04 00 80 8f 	lwi $r0,[$r1+#0x23c]
  3d9ea6:	fe 86       	and33 $r2,$r0
  3d9ea8:	14 20 80 8f 	swi $r2,[$r1+#0x23c]
  3d9eac:	dd 9e       	ret5 $lp
  3d9eae:	04 00 80 8f 	lwi $r0,[$r1+#0x23c]
  3d9eb2:	58 00 00 40 	ori $r0,$r0,#0x40
  3d9eb6:	14 00 80 8f 	swi $r0,[$r1+#0x23c]
  3d9eba:	dd 9e       	ret5 $lp

003d9ebc <FDL_FlashIFModeInit>:
  3d9ebc:	fc 00       	push25 $r6,#0    ! {$r6, $fp, $gp, $lp}
  3d9ebe:	80 c0       	mov55 $r6,$r0
  3d9ec0:	84 01       	movi55 $r0,#0x1
  3d9ec2:	49 ff ff e6 	jal 3d9e8e <FDL_FlashWPCtrl>
  3d9ec6:	54 03 00 f0 	andi $r0,$r6,#0xf0
  3d9eca:	c0 02       	beqz38 $r0,3d9ece <FDL_FlashIFModeInit+0x12>
  3d9ecc:	97 9f       	fexti33 $r6,#0x3
  3d9ece:	84 0a       	movi55 $r0,#0xa
  3d9ed0:	49 00 13 18 	jal 3dc500 <delay_us>
  3d9ed4:	46 00 05 e0 	sethi $r0,#0x5e0
  3d9ed8:	00 10 00 34 	lbi $r1,[$r0+#0x34]
  3d9edc:	5a 18 08 03 	bnec $r1,#0x8,3d9ee2 <FDL_FlashIFModeInit+0x26>
  3d9ee0:	a0 04       	lwi333 $r0,[$r0+#0x10]
  3d9ee2:	3e 0d 27 08 	addi.gp $r0,#-186616
  3d9ee6:	38 10 1a 02 	lw $r1,[$r0+($r6<<#0x2)]
  3d9eea:	44 0f ff cf 	movi $r0,#-49
  3d9eee:	b4 41       	lwi450 $r2,[$r1]
  3d9ef0:	fe 16       	and33 $r0,$r2
  3d9ef2:	58 00 00 20 	ori $r0,$r0,#0x20
  3d9ef6:	b6 01       	swi450 $r0,[$r1]
  3d9ef8:	80 06       	mov55 $r0,$r6
  3d9efa:	49 00 04 9b 	jal 3da830 <HAL_CQWaitDone>
  3d9efe:	84 0a       	movi55 $r0,#0xa
  3d9f00:	49 00 13 00 	jal 3dc500 <delay_us>
  3d9f04:	80 06       	mov55 $r0,$r6
  3d9f06:	49 ff f1 47 	jal 3d8194 <Fdl_ClearExceptionState>
  3d9f0a:	84 00       	movi55 $r0,#0x0
  3d9f0c:	fc 80       	pop25 $r6,#0    ! {$r6, $fp, $gp, $lp}

003d9f0e <FDL_WaitTaskDone>:
  3d9f0e:	fc 20       	push25 $r8,#0    ! {$r6~$r8, $fp, $gp, $lp}
  3d9f10:	44 60 04 00 	movi $r6,#0x400
  3d9f14:	84 e3       	movi55 $r7,#0x3
  3d9f16:	3c 5c 02 66 	lwi.gp $r5,[+#0x998]
  3d9f1a:	3c 0c 02 65 	lwi.gp $r0,[+#0x994]
  3d9f1e:	d8 22       	bnes38 $r0,3d9f62 <FDL_WaitTaskDone+0x54>
  3d9f20:	3c 0d fd 9c 	lwi.gp $r0,[+#-2448]
  3d9f24:	c8 1f       	bnez38 $r0,3d9f62 <FDL_WaitTaskDone+0x54>
  3d9f26:	3c 0d fe ce 	lwi.gp $r0,[+#-1224]
  3d9f2a:	c8 1c       	bnez38 $r0,3d9f62 <FDL_WaitTaskDone+0x54>
  3d9f2c:	3c 0c 00 00 	lwi.gp $r0,[+#0x0]
  3d9f30:	c8 19       	bnez38 $r0,3d9f62 <FDL_WaitTaskDone+0x54>
  3d9f32:	3c 0c 01 32 	lwi.gp $r0,[+#0x4c8]
  3d9f36:	c8 16       	bnez38 $r0,3d9f62 <FDL_WaitTaskDone+0x54>
  3d9f38:	49 00 04 63 	jal 3da7fe <HAL_CQGetIdleSpace>
  3d9f3c:	4c 03 40 13 	bne $r0,$r6,3d9f62 <FDL_WaitTaskDone+0x54>
  3d9f40:	84 01       	movi55 $r0,#0x1
  3d9f42:	49 00 04 5e 	jal 3da7fe <HAL_CQGetIdleSpace>
  3d9f46:	4c 03 40 0e 	bne $r0,$r6,3d9f62 <FDL_WaitTaskDone+0x54>
  3d9f4a:	84 02       	movi55 $r0,#0x2
  3d9f4c:	49 00 04 59 	jal 3da7fe <HAL_CQGetIdleSpace>
  3d9f50:	4c 03 40 09 	bne $r0,$r6,3d9f62 <FDL_WaitTaskDone+0x54>
  3d9f54:	84 03       	movi55 $r0,#0x3
  3d9f56:	49 00 04 54 	jal 3da7fe <HAL_CQGetIdleSpace>
  3d9f5a:	4c 03 40 04 	bne $r0,$r6,3d9f62 <FDL_WaitTaskDone+0x54>
  3d9f5e:	3e 77 e8 a0 	sbi.gp $r7,[+#-5984]
  3d9f62:	2e 07 e8 a0 	lbi.gp $r0,[+#-5984]
  3d9f66:	e6 03       	slti45 $r0,#0x3
  3d9f68:	e9 d7       	bnezs8 3d9f16 <FDL_WaitTaskDone+0x8>
  3d9f6a:	46 00 05 e2 	sethi $r0,#0x5e2
  3d9f6e:	44 10 18 c0 	movi $r1,#0x18c0
  3d9f72:	14 10 00 09 	swi $r1,[$r0+#0x24]
  3d9f76:	04 20 00 83 	lwi $r2,[$r0+#0x20c]
  3d9f7a:	44 1f ff bf 	movi $r1,#-65
  3d9f7e:	fe 8e       	and33 $r2,$r1
  3d9f80:	14 20 00 83 	swi $r2,[$r0+#0x20c]
  3d9f84:	04 20 00 83 	lwi $r2,[$r0+#0x20c]
  3d9f88:	92 46       	srli45 $r2,#0x6
  3d9f8a:	94 96       	slli333 $r2,$r2,#0x6
  3d9f8c:	14 20 00 83 	swi $r2,[$r0+#0x20c]
  3d9f90:	04 20 01 03 	lwi $r2,[$r0+#0x40c]
  3d9f94:	fe 8e       	and33 $r2,$r1
  3d9f96:	14 20 01 03 	swi $r2,[$r0+#0x40c]
  3d9f9a:	04 20 01 03 	lwi $r2,[$r0+#0x40c]
  3d9f9e:	92 46       	srli45 $r2,#0x6
  3d9fa0:	94 96       	slli333 $r2,$r2,#0x6
  3d9fa2:	14 20 01 03 	swi $r2,[$r0+#0x40c]
  3d9fa6:	04 20 01 83 	lwi $r2,[$r0+#0x60c]
  3d9faa:	fe 8e       	and33 $r2,$r1
  3d9fac:	14 20 01 83 	swi $r2,[$r0+#0x60c]
  3d9fb0:	04 20 01 83 	lwi $r2,[$r0+#0x60c]
  3d9fb4:	92 46       	srli45 $r2,#0x6
  3d9fb6:	94 96       	slli333 $r2,$r2,#0x6
  3d9fb8:	14 20 01 83 	swi $r2,[$r0+#0x60c]
  3d9fbc:	04 20 02 03 	lwi $r2,[$r0+#0x80c]
  3d9fc0:	fe 56       	and33 $r1,$r2
  3d9fc2:	14 10 02 03 	swi $r1,[$r0+#0x80c]
  3d9fc6:	04 10 02 03 	lwi $r1,[$r0+#0x80c]
  3d9fca:	92 26       	srli45 $r1,#0x6
  3d9fcc:	94 4e       	slli333 $r1,$r1,#0x6
  3d9fce:	14 10 02 03 	swi $r1,[$r0+#0x80c]
  3d9fd2:	fc a0       	pop25 $r8,#0    ! {$r6~$r8, $fp, $gp, $lp}

003d9fd4 <FDL_CheckMultiLunReady>:
  3d9fd4:	fc 41       	push25 $r10,#8    ! {$r6~$r10, $fp, $gp, $lp}
  3d9fd6:	3f cf f5 88 	addi.gp $fp,#-2680
  3d9fda:	85 40       	movi55 $r10,#0x0
  3d9fdc:	80 ea       	mov55 $r7,$r10
  3d9fde:	84 c0       	movi55 $r6,#0x0
  3d9fe0:	b8 00       	lwi37 $r0,[$fp+#0x0]
  3d9fe2:	00 10 01 90 	lbi $r1,[$r0+#0x190]
  3d9fe6:	e2 e1       	slt45 $r7,$r1
  3d9fe8:	e8 52       	beqzs8 3da08c <FDL_CheckMultiLunReady+0xb8>
  3d9fea:	88 07       	add45 $r0,$r7
  3d9fec:	00 90 02 44 	lbi $r9,[$r0+#0x244]
  3d9ff0:	b9 00       	lwi37 $r1,[$fp+#0x0]
  3d9ff2:	00 00 81 91 	lbi $r0,[$r1+#0x191]
  3d9ff6:	e2 c0       	slt45 $r6,$r0
  3d9ff8:	e8 3b       	beqzs8 3da06e <FDL_CheckMultiLunReady+0x9a>
  3d9ffa:	40 04 88 08 	slli $r0,$r9,#0x2
  3d9ffe:	88 01       	add45 $r0,$r1
  3da000:	88 06       	add45 $r0,$r6
  3da002:	85 00       	movi55 $r8,#0x0
  3da004:	00 00 02 48 	lbi $r0,[$r0+#0x248]
  3da008:	b6 1f       	swi450 $r0,[$sp]
  3da00a:	40 03 50 08 	slli $r0,$r6,#0x14
  3da00e:	f0 81       	swi37.sp $r0,[+#0x4]
  3da010:	b8 00       	lwi37 $r0,[$fp+#0x0]
  3da012:	00 00 01 92 	lbi $r0,[$r0+#0x192]
  3da016:	e3 00       	slt45 $r8,$r0
  3da018:	e8 28       	beqzs8 3da068 <FDL_CheckMultiLunReady+0x94>
  3da01a:	84 3b       	movi55 $r1,#-5
  3da01c:	3c 0c 02 63 	lwi.gp $r0,[+#0x98c]
  3da020:	fe 0e       	and33 $r0,$r1
  3da022:	5a 08 02 0f 	bnec $r0,#0x2,3da040 <FDL_CheckMultiLunReady+0x6c>
  3da026:	3e 0d 27 08 	addi.gp $r0,#-186616
  3da02a:	f2 01       	lwi37.sp $r2,[+#0x4]
  3da02c:	38 00 26 02 	lw $r0,[$r0+($r9<<#0x2)]
  3da030:	85 41       	movi55 $r10,#0x1
  3da032:	04 10 00 39 	lwi $r1,[$r0+#0xe4]
  3da036:	80 09       	mov55 $r0,$r9
  3da038:	96 49       	zeh33 $r1,$r1
  3da03a:	fe 57       	or33 $r1,$r2
  3da03c:	49 00 04 c3 	jal 3da9c2 <HAL_CQCfgLogicNum>
  3da040:	80 09       	mov55 $r0,$r9
  3da042:	b4 3f       	lwi450 $r1,[$sp]
  3da044:	49 00 03 fc 	jal 3da83c <HAL_CQChipSelect>
  3da048:	80 09       	mov55 $r0,$r9
  3da04a:	b4 3f       	lwi450 $r1,[$sp]
  3da04c:	84 41       	movi55 $r2,#0x1
  3da04e:	fa 70       	movpi45 $r3,#0x20
  3da050:	80 8a       	mov55 $r4,$r10
  3da052:	49 00 05 08 	jal 3daa62 <HAL_CQCheckIOStatus>
  3da056:	80 09       	mov55 $r0,$r9
  3da058:	84 20       	movi55 $r1,#0x0
  3da05a:	49 00 04 aa 	jal 3da9ae <HAL_CQSendFlashCmd>
  3da05e:	50 54 00 01 	addi $r5,$r8,#0x1
  3da062:	54 82 80 ff 	andi $r8,$r5,#0xff
  3da066:	d5 d5       	j8 3da010 <FDL_CheckMultiLunReady+0x3c>
  3da068:	8c c1       	addi45 $r6,#0x1
  3da06a:	97 b0       	zeb33 $r6,$r6
  3da06c:	d5 c2       	j8 3d9ff0 <FDL_CheckMultiLunReady+0x1c>
  3da06e:	8c e1       	addi45 $r7,#0x1
  3da070:	97 f8       	zeb33 $r7,$r7
  3da072:	d5 b6       	j8 3d9fde <FDL_CheckMultiLunReady+0xa>
  3da074:	88 06       	add45 $r0,$r6
  3da076:	00 00 02 44 	lbi $r0,[$r0+#0x244]
  3da07a:	49 00 03 db 	jal 3da830 <HAL_CQWaitDone>
  3da07e:	c8 05       	bnez38 $r0,3da088 <FDL_CheckMultiLunReady+0xb4>
  3da080:	3e 0d 26 90 	addi.gp $r0,#-186736
  3da084:	49 00 10 c5 	jal 3dc20e <PRINT>
  3da088:	8c c1       	addi45 $r6,#0x1
  3da08a:	97 b0       	zeb33 $r6,$r6
  3da08c:	b8 00       	lwi37 $r0,[$fp+#0x0]
  3da08e:	00 10 01 90 	lbi $r1,[$r0+#0x190]
  3da092:	e2 c1       	slt45 $r6,$r1
  3da094:	e9 f0       	bnezs8 3da074 <FDL_CheckMultiLunReady+0xa0>
  3da096:	fc c1       	pop25 $r10,#8    ! {$r6~$r10, $fp, $gp, $lp}

003da098 <FDL_CreateTask>:
  3da098:	fc 00       	push25 $r6,#0    ! {$r6, $fp, $gp, $lp}
  3da09a:	80 c0       	mov55 $r6,$r0
  3da09c:	3c 0d fd 63 	lwi.gp $r0,[+#-2676]
  3da0a0:	3c 0e 02 68 	swi.gp $r0,[+#0x9a0]
  3da0a4:	49 ff ff 98 	jal 3d9fd4 <FDL_CheckMultiLunReady>
  3da0a8:	2e 07 e8 a0 	lbi.gp $r0,[+#-5984]
  3da0ac:	e6 03       	slti45 $r0,#0x3
  3da0ae:	e9 27       	bnezs8 3da0fc <FDL_CreateTask+0x64>
  3da0b0:	b4 06       	lwi450 $r0,[$r6]
  3da0b2:	84 20       	movi55 $r1,#0x0
  3da0b4:	84 44       	movi55 $r2,#0x4
  3da0b6:	49 00 13 59 	jal 3dc768 <U08MemSet>
  3da0ba:	a0 32       	lwi333 $r0,[$r6+#0x8]
  3da0bc:	84 20       	movi55 $r1,#0x0
  3da0be:	84 48       	movi55 $r2,#0x8
  3da0c0:	49 00 13 54 	jal 3dc768 <U08MemSet>
  3da0c4:	a0 34       	lwi333 $r0,[$r6+#0x10]
  3da0c6:	84 20       	movi55 $r1,#0x0
  3da0c8:	84 44       	movi55 $r2,#0x4
  3da0ca:	49 00 13 4f 	jal 3dc768 <U08MemSet>
  3da0ce:	3e 1f f6 68 	addi.gp $r1,#-2456
  3da0d2:	3c 6e 02 af 	swi.gp $r6,[+#0xabc]
  3da0d6:	84 00       	movi55 $r0,#0x0
  3da0d8:	80 40       	mov55 $r2,$r0
  3da0da:	44 30 13 20 	movi $r3,#0x1320
  3da0de:	49 00 0d 1c 	jal 3dbb16 <HAL_PMCPMemorySet>
  3da0e2:	84 00       	movi55 $r0,#0x0
  3da0e4:	80 40       	mov55 $r2,$r0
  3da0e6:	3c 1c 02 68 	lwi.gp $r1,[+#0x9a0]
  3da0ea:	3c 3d fd 64 	lwi.gp $r3,[+#-2672]
  3da0ee:	49 00 0d 14 	jal 3dbb16 <HAL_PMCPMemorySet>
  3da0f2:	84 00       	movi55 $r0,#0x0
  3da0f4:	3e 07 e8 a0 	sbi.gp $r0,[+#-5984]
  3da0f8:	84 01       	movi55 $r0,#0x1
  3da0fa:	fc 80       	pop25 $r6,#0    ! {$r6, $fp, $gp, $lp}
  3da0fc:	44 00 00 ff 	movi $r0,#0xff
  3da100:	fc 80       	pop25 $r6,#0    ! {$r6, $fp, $gp, $lp}

003da102 <FDL_JointWritePages>:
  3da102:	fc 21       	push25 $r8,#8    ! {$r6~$r8, $fp, $gp, $lp}
  3da104:	f0 81       	swi37.sp $r0,[+#0x4]
  3da106:	80 01       	mov55 $r0,$r1
  3da108:	80 c2       	mov55 $r6,$r2
  3da10a:	3c 4e 02 6c 	swi.gp $r4,[+#0x9b0]
  3da10e:	f1 08       	lwi37.sp $r1,[+#0x20]
  3da110:	3c 1e 02 70 	swi.gp $r1,[+#0x9c0]
  3da114:	3c 0e 02 6a 	swi.gp $r0,[+#0x9a8]
  3da118:	f1 09       	lwi37.sp $r1,[+#0x24]
  3da11a:	3c 1e 02 75 	swi.gp $r1,[+#0x9d4]
  3da11e:	84 26       	movi55 $r1,#0x6
  3da120:	3c 1e 02 63 	swi.gp $r1,[+#0x98c]
  3da124:	84 e0       	movi55 $r7,#0x0
  3da126:	3c 5e 02 66 	swi.gp $r5,[+#0x998]
  3da12a:	3c 7e 02 65 	swi.gp $r7,[+#0x994]
  3da12e:	3e 70 09 dc 	sbi.gp $r7,[+#0x9dc]
  3da132:	3c 4d fd 62 	lwi.gp $r4,[+#-2680]
  3da136:	00 12 03 52 	lbi $r1,[$r4+#0x352]
  3da13a:	3e 10 09 88 	sbi.gp $r1,[+#0x988]
  3da13e:	3c 13 fa db 	lhi.gp $r1,[+#-2634]
  3da142:	3c 18 04 ce 	shi.gp $r1,[+#0x99c]
  3da146:	00 12 01 90 	lbi $r1,[$r4+#0x190]
  3da14a:	00 22 01 91 	lbi $r2,[$r4+#0x191]
  3da14e:	fe 8c       	mul33 $r2,$r1
  3da150:	00 12 01 95 	lbi $r1,[$r4+#0x195]
  3da154:	fe 8c       	mul33 $r2,$r1
  3da156:	3c 28 04 d3 	shi.gp $r2,[+#0x9a6]
  3da15a:	96 99       	zeh33 $r2,$r3
  3da15c:	84 61       	movi55 $r3,#0x1
  3da15e:	80 26       	mov55 $r1,$r6
  3da160:	80 83       	mov55 $r4,$r3
  3da162:	49 00 00 81 	jal 3da264 <HAL_MCStartDMA1>
  3da166:	f0 01       	lwi37.sp $r0,[+#0x4]
  3da168:	49 ff ff 98 	jal 3da098 <FDL_CreateTask>
  3da16c:	84 01       	movi55 $r0,#0x1
  3da16e:	80 27       	mov55 $r1,$r7
  3da170:	49 00 0a ce 	jal 3db70c <HAL_LDPC_ParityChangeCfg>
  3da174:	3c 0c 02 af 	lwi.gp $r0,[+#0xabc]
  3da178:	00 00 00 0e 	lbi $r0,[$r0+#0xe]
  3da17c:	c8 05       	bnez38 $r0,3da186 <FDL_JointWritePages+0x84>
  3da17e:	84 04       	movi55 $r0,#0x4
  3da180:	84 21       	movi55 $r1,#0x1
  3da182:	49 00 0a 06 	jal 3db58e <HAL_NFChkStCtrl>
  3da186:	c6 16       	beqz38 $r6,3da1b2 <FDL_JointWritePages+0xb0>
  3da188:	e6 d1       	slti45 $r6,#0x11
  3da18a:	84 00       	movi55 $r0,#0x0
  3da18c:	e8 06       	beqzs8 3da198 <FDL_JointWritePages+0x96>
  3da18e:	84 21       	movi55 $r1,#0x1
  3da190:	40 10 98 0c 	sll $r1,$r1,$r6
  3da194:	8e 21       	subi45 $r1,#0x1
  3da196:	d5 0b       	j8 3da1ac <FDL_JointWritePages+0xaa>
  3da198:	44 10 ff ff 	movi $r1,#0xffff
  3da19c:	49 00 01 44 	jal 3da424 <HAL_BFCSetBuffStatus>
  3da1a0:	8e d0       	subi45 $r6,#0x10
  3da1a2:	84 21       	movi55 $r1,#0x1
  3da1a4:	40 60 98 0c 	sll $r6,$r1,$r6
  3da1a8:	9e 71       	subi333 $r1,$r6,#0x1
  3da1aa:	fa 00       	movpi45 $r0,#0x10
  3da1ac:	96 49       	zeh33 $r1,$r1
  3da1ae:	49 00 01 3b 	jal 3da424 <HAL_BFCSetBuffStatus>
  3da1b2:	3e 0c 7f f6 	addi.gp $r0,#-229386
  3da1b6:	3c 0e 02 ab 	swi.gp $r0,[+#0xaac]
  3da1ba:	3e 0c 82 08 	addi.gp $r0,#-228856
  3da1be:	3c 0e 02 ad 	swi.gp $r0,[+#0xab4]
  3da1c2:	3e 0c 6b 38 	addi.gp $r0,#-234696
  3da1c6:	3c 0e 02 ae 	swi.gp $r0,[+#0xab8]
  3da1ca:	84 00       	movi55 $r0,#0x0
  3da1cc:	49 ff fb 68 	jal 3d989c <RunFtlTaskErgodic>
  3da1d0:	fc a1       	pop25 $r8,#8    ! {$r6~$r8, $fp, $gp, $lp}

003da1d2 <HAL_ADMWaitDMADone.part.0>:
  3da1d2:	46 20 05 e2 	sethi $r2,#0x5e2
  3da1d6:	46 10 10 00 	sethi $r1,#0x1000
  3da1da:	04 01 00 41 	lwi $r0,[$r2+#0x104]
  3da1de:	96 06       	bmski33 $r0,#0x0
  3da1e0:	c8 04       	bnez38 $r0,3da1e8 <HAL_ADMWaitDMADone.part.0+0x16>
  3da1e2:	8e 21       	subi45 $r1,#0x1
  3da1e4:	c9 fb       	bnez38 $r1,3da1da <HAL_ADMWaitDMADone.part.0+0x8>
  3da1e6:	d5 f8       	j8 3da1d6 <HAL_ADMWaitDMADone.part.0+0x4>
  3da1e8:	dd 9e       	ret5 $lp

003da1ea <HAL_ADMGetJointMode>:
  3da1ea:	3e 1d 27 78 	addi.gp $r1,#-186504
  3da1ee:	38 00 82 02 	lw $r0,[$r1+($r0<<#0x2)]
  3da1f2:	b4 00       	lwi450 $r0,[$r0]
  3da1f4:	92 04       	srli45 $r0,#0x4
  3da1f6:	96 0f       	fexti33 $r0,#0x1
  3da1f8:	dd 9e       	ret5 $lp

003da1fa <HAL_ADMStartDMA1>:
  3da1fa:	fc 00       	push25 $r6,#0    ! {$r6, $fp, $gp, $lp}
  3da1fc:	46 50 05 e2 	sethi $r5,#0x5e2
  3da200:	40 00 20 08 	slli $r0,$r0,#0x8
  3da204:	40 60 20 09 	srli $r6,$r0,#0x8
  3da208:	83 85       	mov55 $fp,$r5
  3da20a:	b8 49       	lwi37 $r0,[$fp+#0x124]
  3da20c:	92 18       	srli45 $r0,#0x18
  3da20e:	40 00 60 08 	slli $r0,$r0,#0x18
  3da212:	fe 37       	or33 $r0,$r6
  3da214:	b8 c9       	swi37 $r0,[$fp+#0x124]
  3da216:	00 62 81 01 	lbi $r6,[$r5+#0x101]
  3da21a:	84 01       	movi55 $r0,#0x1
  3da21c:	ff 87       	or33 $r6,$r0
  3da21e:	10 62 81 01 	sbi $r6,[$r5+#0x101]
  3da222:	ff 06       	and33 $r4,$r0
  3da224:	ba c3       	swi37 $r2,[$fp+#0x10c]
  3da226:	b9 c2       	swi37 $r1,[$fp+#0x108]
  3da228:	94 63       	slli333 $r1,$r4,#0x3
  3da22a:	00 42 81 00 	lbi $r4,[$r5+#0x100]
  3da22e:	54 42 00 f7 	andi $r4,$r4,#0xf7
  3da232:	ff 0f       	or33 $r4,$r1
  3da234:	10 42 81 00 	sbi $r4,[$r5+#0x100]
  3da238:	64 00 00 08 	dsb
  3da23c:	00 12 81 00 	lbi $r1,[$r5+#0x100]
  3da240:	fe c6       	and33 $r3,$r0
  3da242:	40 31 80 0c 	sll $r3,$r3,$r0
  3da246:	54 10 80 fd 	andi $r1,$r1,#0xfd
  3da24a:	fe cf       	or33 $r3,$r1
  3da24c:	10 32 81 00 	sbi $r3,[$r5+#0x100]
  3da250:	64 00 00 08 	dsb
  3da254:	00 12 81 00 	lbi $r1,[$r5+#0x100]
  3da258:	fe 0f       	or33 $r0,$r1
  3da25a:	10 02 81 00 	sbi $r0,[$r5+#0x100]
  3da25e:	64 00 00 08 	dsb
  3da262:	fc 80       	pop25 $r6,#0    ! {$r6, $fp, $gp, $lp}

003da264 <HAL_MCStartDMA1>:
  3da264:	fc 20       	push25 $r8,#0    ! {$r6~$r8, $fp, $gp, $lp}
  3da266:	46 70 05 e2 	sethi $r7,#0x5e2
  3da26a:	00 63 81 1c 	lbi $r6,[$r7+#0x11c]
  3da26e:	46 50 05 e2 	sethi $r5,#0x5e2
  3da272:	e6 c6       	slti45 $r6,#0x6
  3da274:	e9 fb       	bnezs8 3da26a <HAL_MCStartDMA1+0x6>
  3da276:	97 c1       	zeh33 $r7,$r0
  3da278:	46 60 52 40 	sethi $r6,#0x5240
  3da27c:	ff bf       	or33 $r6,$r7
  3da27e:	83 85       	mov55 $fp,$r5
  3da280:	be c4       	swi37 $r6,[$fp+#0x110]
  3da282:	92 10       	srli45 $r0,#0x10
  3da284:	46 60 52 60 	sethi $r6,#0x5260
  3da288:	fe 37       	or33 $r0,$r6
  3da28a:	b8 c4       	swi37 $r0,[$fp+#0x110]
  3da28c:	97 89       	zeh33 $r6,$r1
  3da28e:	46 00 50 80 	sethi $r0,#0x5080
  3da292:	fe 37       	or33 $r0,$r6
  3da294:	b8 c4       	swi37 $r0,[$fp+#0x110]
  3da296:	92 30       	srli45 $r1,#0x10
  3da298:	46 00 50 a0 	sethi $r0,#0x50a0
  3da29c:	fe 47       	or33 $r1,$r0
  3da29e:	46 00 50 c0 	sethi $r0,#0x50c0
  3da2a2:	fe 87       	or33 $r2,$r0
  3da2a4:	46 00 60 00 	sethi $r0,#0x6000
  3da2a8:	8c 01       	addi45 $r0,#0x1
  3da2aa:	94 d9       	slli333 $r3,$r3,#0x1
  3da2ac:	fe c7       	or33 $r3,$r0
  3da2ae:	95 23       	slli333 $r4,$r4,#0x3
  3da2b0:	ff 1f       	or33 $r4,$r3
  3da2b2:	84 00       	movi55 $r0,#0x0
  3da2b4:	b9 c4       	swi37 $r1,[$fp+#0x110]
  3da2b6:	ba c4       	swi37 $r2,[$fp+#0x110]
  3da2b8:	bc c4       	swi37 $r4,[$fp+#0x110]
  3da2ba:	b8 c4       	swi37 $r0,[$fp+#0x110]
  3da2bc:	fc a0       	pop25 $r8,#0    ! {$r6~$r8, $fp, $gp, $lp}

003da2be <HAL_MCWaitDMA1Done>:
  3da2be:	46 10 05 e2 	sethi $r1,#0x5e2
  3da2c2:	04 00 80 47 	lwi $r0,[$r1+#0x11c]
  3da2c6:	92 09       	srli45 $r0,#0x9
  3da2c8:	96 06       	bmski33 $r0,#0x0
  3da2ca:	c0 fc       	beqz38 $r0,3da2c2 <HAL_MCWaitDMA1Done+0x4>
  3da2cc:	dd 9e       	ret5 $lp

003da2ce <HAL_ADMStartDMA2>:
  3da2ce:	fc 40       	push25 $r10,#0    ! {$r6~$r10, $fp, $gp, $lp}
  3da2d0:	3e 7d 27 78 	addi.gp $r7,#-186504
  3da2d4:	f6 09       	lwi37.sp $r6,[+#0x24]
  3da2d6:	38 93 82 02 	lw $r9,[$r7+($r0<<#0x2)]
  3da2da:	ce 04       	bnez38 $r6,3da2e2 <HAL_ADMStartDMA2+0x14>
  3da2dc:	14 14 80 17 	swi $r1,[$r9+#0x5c]
  3da2e0:	d5 03       	j8 3da2e6 <HAL_ADMStartDMA2+0x18>
  3da2e2:	14 14 80 13 	swi $r1,[$r9+#0x4c]
  3da2e6:	38 03 82 02 	lw $r0,[$r7+($r0<<#0x2)]
  3da2ea:	00 1f 80 20 	lbi $r1,[$sp+#0x20]
  3da2ee:	97 6f       	fexti33 $r5,#0x5
  3da2f0:	96 49       	zeh33 $r1,$r1
  3da2f2:	12 10 00 0e 	shi $r1,[$r0+#0x1c]
  3da2f6:	a9 06       	swi333 $r4,[$r0+#0x18]
  3da2f8:	83 80       	mov55 $fp,$r0
  3da2fa:	b9 08       	lwi37 $r1,[$fp+#0x20]
  3da2fc:	92 26       	srli45 $r1,#0x6
  3da2fe:	94 4e       	slli333 $r1,$r1,#0x6
  3da300:	ff 4f       	or33 $r5,$r1
  3da302:	bd 88       	swi37 $r5,[$fp+#0x20]
  3da304:	64 00 00 08 	dsb
  3da308:	97 8f       	fexti33 $r6,#0x1
  3da30a:	94 74       	slli333 $r1,$r6,#0x4
  3da30c:	a5 80       	lhi333 $r6,[$r0+#0x0]
  3da30e:	44 4f ff cf 	movi $r4,#-49
  3da312:	ff a6       	and33 $r6,$r4
  3da314:	ff 8f       	or33 $r6,$r1
  3da316:	ad 80       	shi333 $r6,[$r0+#0x0]
  3da318:	64 00 00 08 	dsb
  3da31c:	cb 13       	bnez38 $r3,3da342 <HAL_ADMStartDMA2+0x74>
  3da31e:	a4 80       	lhi333 $r2,[$r0+#0x0]
  3da320:	84 3b       	movi55 $r1,#-5
  3da322:	fe 56       	and33 $r1,$r2
  3da324:	ac 40       	shi333 $r1,[$r0+#0x0]
  3da326:	64 00 00 08 	dsb
  3da32a:	83 80       	mov55 $fp,$r0
  3da32c:	b9 18       	lwi37 $r1,[$fp+#0x60]
  3da32e:	58 10 80 01 	ori $r1,$r1,#0x1
  3da332:	b9 98       	swi37 $r1,[$fp+#0x60]
  3da334:	64 00 00 08 	dsb
  3da338:	b9 18       	lwi37 $r1,[$fp+#0x60]
  3da33a:	58 10 80 02 	ori $r1,$r1,#0x2
  3da33e:	b9 98       	swi37 $r1,[$fp+#0x60]
  3da340:	fc c0       	pop25 $r10,#0    ! {$r6~$r10, $fp, $gp, $lp}
  3da342:	40 21 20 08 	slli $r2,$r2,#0x8
  3da346:	40 11 20 09 	srli $r1,$r2,#0x8
  3da34a:	83 80       	mov55 $fp,$r0
  3da34c:	ba 15       	lwi37 $r2,[$fp+#0x54]
  3da34e:	92 58       	srli45 $r2,#0x18
  3da350:	40 21 60 08 	slli $r2,$r2,#0x18
  3da354:	fe 8f       	or33 $r2,$r1
  3da356:	ba 95       	swi37 $r2,[$fp+#0x54]
  3da358:	a4 40       	lhi333 $r1,[$r0+#0x0]
  3da35a:	58 10 80 04 	ori $r1,$r1,#0x4
  3da35e:	ac 40       	shi333 $r1,[$r0+#0x0]
  3da360:	64 00 00 08 	dsb
  3da364:	a0 45       	lwi333 $r1,[$r0+#0x14]
  3da366:	96 46       	bmski33 $r1,#0x0
  3da368:	c1 fe       	beqz38 $r1,3da364 <HAL_ADMStartDMA2+0x96>
  3da36a:	83 80       	mov55 $fp,$r0
  3da36c:	b9 18       	lwi37 $r1,[$fp+#0x60]
  3da36e:	58 10 80 02 	ori $r1,$r1,#0x2
  3da372:	b9 98       	swi37 $r1,[$fp+#0x60]
  3da374:	64 00 00 08 	dsb
  3da378:	a0 45       	lwi333 $r1,[$r0+#0x14]
  3da37a:	92 21       	srli45 $r1,#0x1
  3da37c:	96 46       	bmski33 $r1,#0x0
  3da37e:	c1 fd       	beqz38 $r1,3da378 <HAL_ADMStartDMA2+0xaa>
  3da380:	83 80       	mov55 $fp,$r0
  3da382:	b9 18       	lwi37 $r1,[$fp+#0x60]
  3da384:	58 10 80 01 	ori $r1,$r1,#0x1
  3da388:	b9 98       	swi37 $r1,[$fp+#0x60]
  3da38a:	64 00 00 08 	dsb
  3da38e:	fc c0       	pop25 $r10,#0    ! {$r6~$r10, $fp, $gp, $lp}

003da390 <HAL_ADMWaitDMADone>:
  3da390:	fc 00       	push25 $r6,#0    ! {$r6, $fp, $gp, $lp}
  3da392:	5a 08 ff 05 	bnec $r0,#0xff,3da39c <HAL_ADMWaitDMADone+0xc>
  3da396:	49 ff ff 1e 	jal 3da1d2 <HAL_ADMWaitDMADone.part.0>
  3da39a:	fc 80       	pop25 $r6,#0    ! {$r6, $fp, $gp, $lp}
  3da39c:	3e 1d 27 78 	addi.gp $r1,#-186504
  3da3a0:	38 60 82 02 	lw $r6,[$r1+($r0<<#0x2)]
  3da3a4:	04 03 00 12 	lwi $r0,[$r6+#0x48]
  3da3a8:	92 13       	srli45 $r0,#0x13
  3da3aa:	96 06       	bmski33 $r0,#0x0
  3da3ac:	5a 08 01 1e 	bnec $r0,#0x1,3da3e8 <HAL_ADMWaitDMADone+0x58>
  3da3b0:	46 10 10 00 	sethi $r1,#0x1000
  3da3b4:	a0 35       	lwi333 $r0,[$r6+#0x14]
  3da3b6:	96 06       	bmski33 $r0,#0x0
  3da3b8:	c8 09       	bnez38 $r0,3da3ca <HAL_ADMWaitDMADone+0x3a>
  3da3ba:	8e 21       	subi45 $r1,#0x1
  3da3bc:	c9 fc       	bnez38 $r1,3da3b4 <HAL_ADMWaitDMADone+0x24>
  3da3be:	a0 75       	lwi333 $r1,[$r6+#0x14]
  3da3c0:	3e 0d 27 38 	addi.gp $r0,#-186568
  3da3c4:	49 00 0f 25 	jal 3dc20e <PRINT>
  3da3c8:	d5 f4       	j8 3da3b0 <HAL_ADMWaitDMADone+0x20>
  3da3ca:	a0 35       	lwi333 $r0,[$r6+#0x14]
  3da3cc:	92 01       	srli45 $r0,#0x1
  3da3ce:	96 06       	bmski33 $r0,#0x0
  3da3d0:	c0 f5       	beqz38 $r0,3da3ba <HAL_ADMWaitDMADone+0x2a>
  3da3d2:	fc 80       	pop25 $r6,#0    ! {$r6, $fp, $gp, $lp}
  3da3d4:	a0 35       	lwi333 $r0,[$r6+#0x14]
  3da3d6:	92 02       	srli45 $r0,#0x2
  3da3d8:	96 06       	bmski33 $r0,#0x0
  3da3da:	c8 0a       	bnez38 $r0,3da3ee <HAL_ADMWaitDMADone+0x5e>
  3da3dc:	8e 21       	subi45 $r1,#0x1
  3da3de:	c9 fb       	bnez38 $r1,3da3d4 <HAL_ADMWaitDMADone+0x44>
  3da3e0:	3e 0d 27 60 	addi.gp $r0,#-186528
  3da3e4:	49 00 0f 15 	jal 3dc20e <PRINT>
  3da3e8:	46 10 10 00 	sethi $r1,#0x1000
  3da3ec:	d5 f4       	j8 3da3d4 <HAL_ADMWaitDMADone+0x44>
  3da3ee:	fc 80       	pop25 $r6,#0    ! {$r6, $fp, $gp, $lp}

003da3f0 <HAL_BFCInit>:
  3da3f0:	46 00 05 e2 	sethi $r0,#0x5e2
  3da3f4:	a0 44       	lwi333 $r1,[$r0+#0x10]
  3da3f6:	58 10 80 01 	ori $r1,$r1,#0x1
  3da3fa:	a8 44       	swi333 $r1,[$r0+#0x10]
  3da3fc:	64 00 00 08 	dsb
  3da400:	a0 44       	lwi333 $r1,[$r0+#0x10]
  3da402:	96 46       	bmski33 $r1,#0x0
  3da404:	c9 fe       	bnez38 $r1,3da400 <HAL_BFCInit+0x10>
  3da406:	dd 9e       	ret5 $lp

003da408 <HAL_BFCGetBuffStatus>:
  3da408:	46 10 05 e2 	sethi $r1,#0x5e2
  3da40c:	a8 0b       	swi333 $r0,[$r1+#0xc]
  3da40e:	84 01       	movi55 $r0,#0x1
  3da410:	b6 01       	swi450 $r0,[$r1]
  3da412:	64 00 00 08 	dsb
  3da416:	b4 01       	lwi450 $r0,[$r1]
  3da418:	c8 ff       	bnez38 $r0,3da416 <HAL_BFCGetBuffStatus+0xe>
  3da41a:	46 00 05 e2 	sethi $r0,#0x5e2
  3da41e:	a0 05       	lwi333 $r0,[$r0+#0x14]
  3da420:	96 01       	zeh33 $r0,$r0
  3da422:	dd 9e       	ret5 $lp

003da424 <HAL_BFCSetBuffStatus>:
  3da424:	fc 40       	push25 $r10,#0    ! {$r6~$r10, $fp, $gp, $lp}
  3da426:	80 c0       	mov55 $r6,$r0
  3da428:	84 01       	movi55 $r0,#0x1
  3da42a:	81 21       	mov55 $r9,$r1
  3da42c:	84 e0       	movi55 $r7,#0x0
  3da42e:	80 20       	mov55 $r1,$r0
  3da430:	49 00 0a 55 	jal 3db8da <HAL_MCU_GetOwnership>
  3da434:	46 a0 05 e2 	sethi $r10,#0x5e2
  3da438:	40 73 a4 06 	slt $r7,$r7,$r9
  3da43c:	02 05 00 10 	lhi $r0,[$r10+#0x20]
  3da440:	40 23 00 17 	divr $r2,$r0,$r6,$r0
  3da444:	96 01       	zeh33 $r0,$r0
  3da446:	49 ff ff e1 	jal 3da408 <HAL_BFCGetBuffStatus>
  3da44a:	fe 3e       	and33 $r0,$r7
  3da44c:	46 20 05 e2 	sethi $r2,#0x5e2
  3da450:	c8 f6       	bnez38 $r0,3da43c <HAL_BFCSetBuffStatus+0x18>
  3da452:	ad 96       	shi333 $r6,[$r2+#0xc]
  3da454:	12 91 00 02 	shi $r9,[$r2+#0x4]
  3da458:	64 00 00 08 	dsb
  3da45c:	a4 12       	lhi333 $r0,[$r2+#0x4]
  3da45e:	c8 ff       	bnez38 $r0,3da45c <HAL_BFCSetBuffStatus+0x38>
  3da460:	84 01       	movi55 $r0,#0x1
  3da462:	80 20       	mov55 $r1,$r0
  3da464:	49 00 0a 58 	jal 3db914 <HAL_MCU_ReleaseOwnership>
  3da468:	fc c0       	pop25 $r10,#0    ! {$r6~$r10, $fp, $gp, $lp}

003da46a <HAL_RTY_BFCSetBuffStatus>:
  3da46a:	fc 40       	push25 $r10,#0    ! {$r6~$r10, $fp, $gp, $lp}
  3da46c:	84 e0       	movi55 $r7,#0x0
  3da46e:	81 21       	mov55 $r9,$r1
  3da470:	80 c0       	mov55 $r6,$r0
  3da472:	84 20       	movi55 $r1,#0x0
  3da474:	84 01       	movi55 $r0,#0x1
  3da476:	49 00 0a 32 	jal 3db8da <HAL_MCU_GetOwnership>
  3da47a:	46 a0 05 e2 	sethi $r10,#0x5e2
  3da47e:	40 73 a4 06 	slt $r7,$r7,$r9
  3da482:	02 05 00 10 	lhi $r0,[$r10+#0x20]
  3da486:	40 23 00 17 	divr $r2,$r0,$r6,$r0
  3da48a:	96 01       	zeh33 $r0,$r0
  3da48c:	49 ff ff be 	jal 3da408 <HAL_BFCGetBuffStatus>
  3da490:	fe 3e       	and33 $r0,$r7
  3da492:	46 20 05 e2 	sethi $r2,#0x5e2
  3da496:	c8 f6       	bnez38 $r0,3da482 <HAL_RTY_BFCSetBuffStatus+0x18>
  3da498:	ad 96       	shi333 $r6,[$r2+#0xc]
  3da49a:	12 91 00 02 	shi $r9,[$r2+#0x4]
  3da49e:	64 00 00 08 	dsb
  3da4a2:	a4 52       	lhi333 $r1,[$r2+#0x4]
  3da4a4:	96 49       	zeh33 $r1,$r1
  3da4a6:	c9 fe       	bnez38 $r1,3da4a2 <HAL_RTY_BFCSetBuffStatus+0x38>
  3da4a8:	84 01       	movi55 $r0,#0x1
  3da4aa:	49 00 0a 35 	jal 3db914 <HAL_MCU_ReleaseOwnership>
  3da4ae:	fc c0       	pop25 $r10,#0    ! {$r6~$r10, $fp, $gp, $lp}

003da4b0 <HAL_RTY_BFCSetBuffStatusBit>:
  3da4b0:	fc 40       	push25 $r10,#0    ! {$r6~$r10, $fp, $gp, $lp}
  3da4b2:	84 20       	movi55 $r1,#0x0
  3da4b4:	80 c0       	mov55 $r6,$r0
  3da4b6:	84 01       	movi55 $r0,#0x1
  3da4b8:	49 00 0a 11 	jal 3db8da <HAL_MCU_GetOwnership>
  3da4bc:	84 21       	movi55 $r1,#0x1
  3da4be:	40 10 98 0c 	sll $r1,$r1,$r6
  3da4c2:	96 49       	zeh33 $r1,$r1
  3da4c4:	84 e0       	movi55 $r7,#0x0
  3da4c6:	40 73 84 06 	slt $r7,$r7,$r1
  3da4ca:	46 90 05 e2 	sethi $r9,#0x5e2
  3da4ce:	02 04 80 10 	lhi $r0,[$r9+#0x20]
  3da4d2:	40 13 00 17 	divr $r1,$r0,$r6,$r0
  3da4d6:	96 01       	zeh33 $r0,$r0
  3da4d8:	49 ff ff 98 	jal 3da408 <HAL_BFCGetBuffStatus>
  3da4dc:	fe 3e       	and33 $r0,$r7
  3da4de:	46 20 05 e2 	sethi $r2,#0x5e2
  3da4e2:	c8 f6       	bnez38 $r0,3da4ce <HAL_RTY_BFCSetBuffStatusBit+0x1e>
  3da4e4:	84 01       	movi55 $r0,#0x1
  3da4e6:	a9 93       	swi333 $r6,[$r2+#0xc]
  3da4e8:	a8 11       	swi333 $r0,[$r2+#0x4]
  3da4ea:	64 00 00 08 	dsb
  3da4ee:	a0 51       	lwi333 $r1,[$r2+#0x4]
  3da4f0:	c9 ff       	bnez38 $r1,3da4ee <HAL_RTY_BFCSetBuffStatusBit+0x3e>
  3da4f2:	84 01       	movi55 $r0,#0x1
  3da4f4:	49 00 0a 10 	jal 3db914 <HAL_MCU_ReleaseOwnership>
  3da4f8:	fc c0       	pop25 $r10,#0    ! {$r6~$r10, $fp, $gp, $lp}

003da4fa <HAL_CPMGetClkSource>:
  3da4fa:	46 00 05 e0 	sethi $r0,#0x5e0
  3da4fe:	04 00 00 0c 	lwi $r0,[$r0+#0x30]
  3da502:	96 00       	zeb33 $r0,$r0
  3da504:	dd 9e       	ret5 $lp

003da506 <HAL_CPMGetTrx2Period>:
  3da506:	46 00 05 e0 	sethi $r0,#0x5e0
  3da50a:	a0 04       	lwi333 $r0,[$r0+#0x10]
  3da50c:	96 00       	zeb33 $r0,$r0
  3da50e:	dd 9e       	ret5 $lp

003da510 <HAL_SystemInit>:
  3da510:	fc 42       	push25 $r10,#16    ! {$r6~$r10, $fp, $gp, $lp}
  3da512:	46 60 05 e0 	sethi $r6,#0x5e0
  3da516:	84 40       	movi55 $r2,#0x0
  3da518:	f4 83       	swi37.sp $r4,[+#0xc]
  3da51a:	85 21       	movi55 $r9,#0x1
  3da51c:	10 23 00 54 	sbi $r2,[$r6+#0x54]
  3da520:	96 48       	zeb33 $r1,$r1
  3da522:	96 80       	zeb33 $r2,$r0
  3da524:	10 13 00 14 	sbi $r1,[$r6+#0x14]
  3da528:	10 93 00 54 	sbi $r9,[$r6+#0x54]
  3da52c:	10 23 00 34 	sbi $r2,[$r6+#0x34]
  3da530:	10 23 00 3c 	sbi $r2,[$r6+#0x3c]
  3da534:	f2 81       	swi37.sp $r2,[+#0x4]
  3da536:	10 13 00 20 	sbi $r1,[$r6+#0x20]
  3da53a:	04 13 00 1c 	lwi $r1,[$r6+#0x70]
  3da53e:	46 0f df ff 	sethi $r0,#0xfdfff
  3da542:	50 00 0f ff 	addi $r0,$r0,#0xfff
  3da546:	fe 0e       	and33 $r0,$r1
  3da548:	14 03 00 1c 	swi $r0,[$r6+#0x70]
  3da54c:	00 03 00 50 	lbi $r0,[$r6+#0x50]
  3da550:	85 5e       	movi55 $r10,#-2
  3da552:	40 00 28 02 	and $r0,$r0,$r10
  3da556:	10 03 00 50 	sbi $r0,[$r6+#0x50]
  3da55a:	a0 34       	lwi333 $r0,[$r6+#0x10]
  3da55c:	54 71 80 3f 	andi $r7,$r3,#0x3f
  3da560:	92 06       	srli45 $r0,#0x6
  3da562:	94 06       	slli333 $r0,$r0,#0x6
  3da564:	fe 3f       	or33 $r0,$r7
  3da566:	a8 34       	swi333 $r0,[$r6+#0x10]
  3da568:	44 00 00 32 	movi $r0,#0x32
  3da56c:	81 05       	mov55 $r8,$r5
  3da56e:	49 00 10 f0 	jal 3dc74e <Delay>
  3da572:	00 03 00 50 	lbi $r0,[$r6+#0x50]
  3da576:	87 9f       	movi55 $fp,#-1
  3da578:	40 00 24 04 	or $r0,$r0,$r9
  3da57c:	10 03 00 50 	sbi $r0,[$r6+#0x50]
  3da580:	44 00 00 32 	movi $r0,#0x32
  3da584:	49 00 10 e5 	jal 3dc74e <Delay>
  3da588:	00 03 00 4c 	lbi $r0,[$r6+#0x4c]
  3da58c:	94 f9       	slli333 $r3,$r7,#0x1
  3da58e:	40 00 28 02 	and $r0,$r0,$r10
  3da592:	10 03 00 4c 	sbi $r0,[$r6+#0x4c]
  3da596:	54 11 80 3e 	andi $r1,$r3,#0x3e
  3da59a:	04 33 00 11 	lwi $r3,[$r6+#0x44]
  3da59e:	44 00 00 32 	movi $r0,#0x32
  3da5a2:	92 66       	srli45 $r3,#0x6
  3da5a4:	94 de       	slli333 $r3,$r3,#0x6
  3da5a6:	fe cf       	or33 $r3,$r1
  3da5a8:	14 33 00 11 	swi $r3,[$r6+#0x44]
  3da5ac:	49 00 10 d1 	jal 3dc74e <Delay>
  3da5b0:	00 03 00 4c 	lbi $r0,[$r6+#0x4c]
  3da5b4:	54 84 00 3f 	andi $r8,$r8,#0x3f
  3da5b8:	40 00 24 04 	or $r0,$r0,$r9
  3da5bc:	10 03 00 4c 	sbi $r0,[$r6+#0x4c]
  3da5c0:	44 00 00 32 	movi $r0,#0x32
  3da5c4:	49 00 10 c5 	jal 3dc74e <Delay>
  3da5c8:	04 03 00 1c 	lwi $r0,[$r6+#0x70]
  3da5cc:	15 c3 00 1c 	swi $fp,[$r6+#0x70]
  3da5d0:	04 03 00 0c 	lwi $r0,[$r6+#0x30]
  3da5d4:	f2 01       	lwi37.sp $r2,[+#0x4]
  3da5d6:	84 30       	movi55 $r1,#-16
  3da5d8:	54 71 00 0f 	andi $r7,$r2,#0xf
  3da5dc:	fe 0e       	and33 $r0,$r1
  3da5de:	fe 3f       	or33 $r0,$r7
  3da5e0:	14 03 00 0c 	swi $r0,[$r6+#0x30]
  3da5e4:	04 03 00 12 	lwi $r0,[$r6+#0x48]
  3da5e8:	f1 82       	swi37.sp $r1,[+#0x8]
  3da5ea:	fe 0e       	and33 $r0,$r1
  3da5ec:	fe 3f       	or33 $r0,$r7
  3da5ee:	14 03 00 12 	swi $r0,[$r6+#0x48]
  3da5f2:	04 23 00 1c 	lwi $r2,[$r6+#0x70]
  3da5f6:	46 0f bf ff 	sethi $r0,#0xfbfff
  3da5fa:	50 00 0f ff 	addi $r0,$r0,#0xfff
  3da5fe:	fe 16       	and33 $r0,$r2
  3da600:	14 03 00 1c 	swi $r0,[$r6+#0x70]
  3da604:	00 03 00 50 	lbi $r0,[$r6+#0x50]
  3da608:	40 00 28 02 	and $r0,$r0,$r10
  3da60c:	10 03 00 50 	sbi $r0,[$r6+#0x50]
  3da610:	a0 34       	lwi333 $r0,[$r6+#0x10]
  3da612:	f4 03       	lwi37.sp $r4,[+#0xc]
  3da614:	92 06       	srli45 $r0,#0x6
  3da616:	97 2f       	fexti33 $r4,#0x5
  3da618:	94 06       	slli333 $r0,$r0,#0x6
  3da61a:	fe 27       	or33 $r0,$r4
  3da61c:	f4 81       	swi37.sp $r4,[+#0x4]
  3da61e:	a8 34       	swi333 $r0,[$r6+#0x10]
  3da620:	44 00 00 32 	movi $r0,#0x32
  3da624:	49 00 10 95 	jal 3dc74e <Delay>
  3da628:	00 03 00 50 	lbi $r0,[$r6+#0x50]
  3da62c:	40 00 24 04 	or $r0,$r0,$r9
  3da630:	10 03 00 50 	sbi $r0,[$r6+#0x50]
  3da634:	44 00 00 32 	movi $r0,#0x32
  3da638:	49 00 10 8b 	jal 3dc74e <Delay>
  3da63c:	00 03 00 4c 	lbi $r0,[$r6+#0x4c]
  3da640:	40 00 28 02 	and $r0,$r0,$r10
  3da644:	10 03 00 4c 	sbi $r0,[$r6+#0x4c]
  3da648:	f4 01       	lwi37.sp $r4,[+#0x4]
  3da64a:	04 03 00 11 	lwi $r0,[$r6+#0x44]
  3da64e:	95 21       	slli333 $r4,$r4,#0x1
  3da650:	92 06       	srli45 $r0,#0x6
  3da652:	94 06       	slli333 $r0,$r0,#0x6
  3da654:	54 42 00 3e 	andi $r4,$r4,#0x3e
  3da658:	ff 07       	or33 $r4,$r0
  3da65a:	14 43 00 11 	swi $r4,[$r6+#0x44]
  3da65e:	44 00 00 32 	movi $r0,#0x32
  3da662:	49 00 10 76 	jal 3dc74e <Delay>
  3da666:	00 03 00 4c 	lbi $r0,[$r6+#0x4c]
  3da66a:	40 00 24 04 	or $r0,$r0,$r9
  3da66e:	10 03 00 4c 	sbi $r0,[$r6+#0x4c]
  3da672:	44 00 00 32 	movi $r0,#0x32
  3da676:	49 00 10 6c 	jal 3dc74e <Delay>
  3da67a:	04 03 00 1c 	lwi $r0,[$r6+#0x70]
  3da67e:	15 c3 00 1c 	swi $fp,[$r6+#0x70]
  3da682:	f1 02       	lwi37.sp $r1,[+#0x8]
  3da684:	04 03 00 0c 	lwi $r0,[$r6+#0x30]
  3da688:	fe 0e       	and33 $r0,$r1
  3da68a:	fe 3f       	or33 $r0,$r7
  3da68c:	14 03 00 0c 	swi $r0,[$r6+#0x30]
  3da690:	04 03 00 12 	lwi $r0,[$r6+#0x48]
  3da694:	f1 81       	swi37.sp $r1,[+#0x4]
  3da696:	fe 0e       	and33 $r0,$r1
  3da698:	fe 3f       	or33 $r0,$r7
  3da69a:	14 03 00 12 	swi $r0,[$r6+#0x48]
  3da69e:	04 23 00 1c 	lwi $r2,[$r6+#0x70]
  3da6a2:	46 0f 7f ff 	sethi $r0,#0xf7fff
  3da6a6:	50 00 0f ff 	addi $r0,$r0,#0xfff
  3da6aa:	fe 16       	and33 $r0,$r2
  3da6ac:	14 03 00 1c 	swi $r0,[$r6+#0x70]
  3da6b0:	00 03 00 50 	lbi $r0,[$r6+#0x50]
  3da6b4:	40 00 28 02 	and $r0,$r0,$r10
  3da6b8:	10 03 00 50 	sbi $r0,[$r6+#0x50]
  3da6bc:	a0 34       	lwi333 $r0,[$r6+#0x10]
  3da6be:	92 06       	srli45 $r0,#0x6
  3da6c0:	94 06       	slli333 $r0,$r0,#0x6
  3da6c2:	40 00 20 04 	or $r0,$r0,$r8
  3da6c6:	a8 34       	swi333 $r0,[$r6+#0x10]
  3da6c8:	44 00 00 32 	movi $r0,#0x32
  3da6cc:	49 00 10 41 	jal 3dc74e <Delay>
  3da6d0:	00 03 00 50 	lbi $r0,[$r6+#0x50]
  3da6d4:	40 00 24 04 	or $r0,$r0,$r9
  3da6d8:	10 03 00 50 	sbi $r0,[$r6+#0x50]
  3da6dc:	44 00 00 32 	movi $r0,#0x32
  3da6e0:	49 00 10 37 	jal 3dc74e <Delay>
  3da6e4:	00 03 00 4c 	lbi $r0,[$r6+#0x4c]
  3da6e8:	40 00 28 02 	and $r0,$r0,$r10
  3da6ec:	10 03 00 4c 	sbi $r0,[$r6+#0x4c]
  3da6f0:	04 53 00 11 	lwi $r5,[$r6+#0x44]
  3da6f4:	40 04 04 08 	slli $r0,$r8,#0x1
  3da6f8:	92 a6       	srli45 $r5,#0x6
  3da6fa:	95 6e       	slli333 $r5,$r5,#0x6
  3da6fc:	54 80 00 3e 	andi $r8,$r0,#0x3e
  3da700:	40 82 a0 04 	or $r8,$r5,$r8
  3da704:	14 83 00 11 	swi $r8,[$r6+#0x44]
  3da708:	44 00 00 32 	movi $r0,#0x32
  3da70c:	49 00 10 21 	jal 3dc74e <Delay>
  3da710:	00 03 00 4c 	lbi $r0,[$r6+#0x4c]
  3da714:	40 00 24 04 	or $r0,$r0,$r9
  3da718:	10 03 00 4c 	sbi $r0,[$r6+#0x4c]
  3da71c:	44 00 00 32 	movi $r0,#0x32
  3da720:	49 00 10 17 	jal 3dc74e <Delay>
  3da724:	04 03 00 1c 	lwi $r0,[$r6+#0x70]
  3da728:	15 c3 00 1c 	swi $fp,[$r6+#0x70]
  3da72c:	f1 01       	lwi37.sp $r1,[+#0x4]
  3da72e:	04 03 00 0c 	lwi $r0,[$r6+#0x30]
  3da732:	fe 0e       	and33 $r0,$r1
  3da734:	fe 3f       	or33 $r0,$r7
  3da736:	14 03 00 0c 	swi $r0,[$r6+#0x30]
  3da73a:	04 03 00 12 	lwi $r0,[$r6+#0x48]
  3da73e:	f1 81       	swi37.sp $r1,[+#0x4]
  3da740:	fe 0e       	and33 $r0,$r1
  3da742:	fe 3f       	or33 $r0,$r7
  3da744:	14 03 00 12 	swi $r0,[$r6+#0x48]
  3da748:	04 23 00 1c 	lwi $r2,[$r6+#0x70]
  3da74c:	46 0e ff ff 	sethi $r0,#0xeffff
  3da750:	50 00 0f ff 	addi $r0,$r0,#0xfff
  3da754:	fe 16       	and33 $r0,$r2
  3da756:	14 03 00 1c 	swi $r0,[$r6+#0x70]
  3da75a:	00 03 00 50 	lbi $r0,[$r6+#0x50]
  3da75e:	40 00 28 02 	and $r0,$r0,$r10
  3da762:	10 03 00 50 	sbi $r0,[$r6+#0x50]
  3da766:	00 0f 80 30 	lbi $r0,[$sp+#0x30]
  3da76a:	54 80 00 3f 	andi $r8,$r0,#0x3f
  3da76e:	a0 34       	lwi333 $r0,[$r6+#0x10]
  3da770:	92 06       	srli45 $r0,#0x6
  3da772:	94 06       	slli333 $r0,$r0,#0x6
  3da774:	40 00 20 04 	or $r0,$r0,$r8
  3da778:	a8 34       	swi333 $r0,[$r6+#0x10]
  3da77a:	44 00 00 32 	movi $r0,#0x32
  3da77e:	49 00 0f e8 	jal 3dc74e <Delay>
  3da782:	00 03 00 50 	lbi $r0,[$r6+#0x50]
  3da786:	40 00 24 04 	or $r0,$r0,$r9
  3da78a:	10 03 00 50 	sbi $r0,[$r6+#0x50]
  3da78e:	44 00 00 32 	movi $r0,#0x32
  3da792:	49 00 0f de 	jal 3dc74e <Delay>
  3da796:	00 03 00 4c 	lbi $r0,[$r6+#0x4c]
  3da79a:	40 00 28 02 	and $r0,$r0,$r10
  3da79e:	10 03 00 4c 	sbi $r0,[$r6+#0x4c]
  3da7a2:	04 23 00 11 	lwi $r2,[$r6+#0x44]
  3da7a6:	40 04 04 08 	slli $r0,$r8,#0x1
  3da7aa:	92 46       	srli45 $r2,#0x6
  3da7ac:	94 96       	slli333 $r2,$r2,#0x6
  3da7ae:	54 00 00 3e 	andi $r0,$r0,#0x3e
  3da7b2:	40 81 00 04 	or $r8,$r2,$r0
  3da7b6:	14 83 00 11 	swi $r8,[$r6+#0x44]
  3da7ba:	44 00 00 32 	movi $r0,#0x32
  3da7be:	49 00 0f c8 	jal 3dc74e <Delay>
  3da7c2:	00 03 00 4c 	lbi $r0,[$r6+#0x4c]
  3da7c6:	40 90 24 04 	or $r9,$r0,$r9
  3da7ca:	10 93 00 4c 	sbi $r9,[$r6+#0x4c]
  3da7ce:	44 00 00 32 	movi $r0,#0x32
  3da7d2:	49 00 0f be 	jal 3dc74e <Delay>
  3da7d6:	04 03 00 1c 	lwi $r0,[$r6+#0x70]
  3da7da:	15 c3 00 1c 	swi $fp,[$r6+#0x70]
  3da7de:	04 03 00 0c 	lwi $r0,[$r6+#0x30]
  3da7e2:	f1 01       	lwi37.sp $r1,[+#0x4]
  3da7e4:	fe 0e       	and33 $r0,$r1
  3da7e6:	fe 3f       	or33 $r0,$r7
  3da7e8:	14 03 00 0c 	swi $r0,[$r6+#0x30]
  3da7ec:	04 03 00 12 	lwi $r0,[$r6+#0x48]
  3da7f0:	fe 46       	and33 $r1,$r0
  3da7f2:	ff cf       	or33 $r7,$r1
  3da7f4:	14 73 00 12 	swi $r7,[$r6+#0x48]
  3da7f8:	49 00 0e 75 	jal 3dc4e2 <UpdateSystemClock>
  3da7fc:	fc c2       	pop25 $r10,#16    ! {$r6~$r10, $fp, $gp, $lp}

003da7fe <HAL_CQGetIdleSpace>:
  3da7fe:	3e 1d 2a 34 	addi.gp $r1,#-185804
  3da802:	38 00 82 02 	lw $r0,[$r1+($r0<<#0x2)]
  3da806:	04 00 00 37 	lwi $r0,[$r0+#0xdc]
  3da80a:	54 00 07 ff 	andi $r0,$r0,#0x7ff
  3da80e:	dd 9e       	ret5 $lp

003da810 <HAL_CQWaitIdleSpace>:
  3da810:	3e 2d 2a 34 	addi.gp $r2,#-185804
  3da814:	38 31 02 02 	lw $r3,[$r2+($r0<<#0x2)]
  3da818:	84 5f       	movi55 $r2,#-1
  3da81a:	04 01 80 37 	lwi $r0,[$r3+#0xdc]
  3da81e:	54 00 07 ff 	andi $r0,$r0,#0x7ff
  3da822:	e2 01       	slt45 $r0,$r1
  3da824:	e8 04       	beqzs8 3da82c <HAL_CQWaitIdleSpace+0x1c>
  3da826:	8e 41       	subi45 $r2,#0x1
  3da828:	ca f9       	bnez38 $r2,3da81a <HAL_CQWaitIdleSpace+0xa>
  3da82a:	d5 00       	j8 3da82a <HAL_CQWaitIdleSpace+0x1a>
  3da82c:	84 01       	movi55 $r0,#0x1
  3da82e:	dd 9e       	ret5 $lp

003da830 <HAL_CQWaitDone>:
  3da830:	fc 00       	push25 $r6,#0    ! {$r6, $fp, $gp, $lp}
  3da832:	44 10 04 00 	movi $r1,#0x400
  3da836:	49 ff ff ed 	jal 3da810 <HAL_CQWaitIdleSpace>
  3da83a:	fc 80       	pop25 $r6,#0    ! {$r6, $fp, $gp, $lp}

003da83c <HAL_CQChipSelect>:
  3da83c:	5a 18 ff 10 	bnec $r1,#0xff,3da85c <HAL_CQChipSelect+0x20>
  3da840:	3e 1d 2a 34 	addi.gp $r1,#-185804
  3da844:	38 10 82 02 	lw $r1,[$r1+($r0<<#0x2)]
  3da848:	84 00       	movi55 $r0,#0x0
  3da84a:	14 00 80 36 	swi $r0,[$r1+#0xd8]
  3da84e:	46 00 70 00 	sethi $r0,#0x7000
  3da852:	50 00 00 20 	addi $r0,$r0,#0x20
  3da856:	14 00 80 36 	swi $r0,[$r1+#0xd8]
  3da85a:	dd 9e       	ret5 $lp
  3da85c:	e6 04       	slti45 $r0,#0x4
  3da85e:	e8 11       	beqzs8 3da880 <HAL_CQChipSelect+0x44>
  3da860:	3e 2d 2a 34 	addi.gp $r2,#-185804
  3da864:	38 21 02 02 	lw $r2,[$r2+($r0<<#0x2)]
  3da868:	84 01       	movi55 $r0,#0x1
  3da86a:	40 10 04 0c 	sll $r1,$r0,$r1
  3da86e:	46 00 70 00 	sethi $r0,#0x7000
  3da872:	50 00 00 20 	addi $r0,$r0,#0x20
  3da876:	14 11 00 36 	swi $r1,[$r2+#0xd8]
  3da87a:	14 01 00 36 	swi $r0,[$r2+#0xd8]
  3da87e:	dd 9e       	ret5 $lp
  3da880:	5a 08 04 ed 	bnec $r0,#0x4,3da85a <HAL_CQChipSelect+0x1e>
  3da884:	fc 00       	push25 $r6,#0    ! {$r6, $fp, $gp, $lp}
  3da886:	94 09       	slli333 $r0,$r1,#0x1
  3da888:	54 20 80 01 	andi $r2,$r1,#0x1
  3da88c:	96 16       	bmski33 $r0,#0x2
  3da88e:	fe 17       	or33 $r0,$r2
  3da890:	46 20 05 ec 	sethi $r2,#0x5ec
  3da894:	56 00 00 ff 	xori $r0,$r0,#0xff
  3da898:	83 82       	mov55 $fp,$r2
  3da89a:	b8 b6       	swi37 $r0,[$fp+#0xd8]
  3da89c:	40 00 84 09 	srli $r0,$r1,#0x1
  3da8a0:	96 0e       	bmski33 $r0,#0x1
  3da8a2:	96 5e       	bmski33 $r1,#0x3
  3da8a4:	fe 47       	or33 $r1,$r0
  3da8a6:	46 00 05 ee 	sethi $r0,#0x5ee
  3da8aa:	56 10 80 ff 	xori $r1,$r1,#0xff
  3da8ae:	14 10 00 36 	swi $r1,[$r0+#0xd8]
  3da8b2:	46 00 70 00 	sethi $r0,#0x7000
  3da8b6:	50 00 00 20 	addi $r0,$r0,#0x20
  3da8ba:	b8 b6       	swi37 $r0,[$fp+#0xd8]
  3da8bc:	84 00       	movi55 $r0,#0x0
  3da8be:	49 00 17 d6 	jal 3dd86a <CQ_WaitDone>
  3da8c2:	84 02       	movi55 $r0,#0x2
  3da8c4:	49 00 17 d3 	jal 3dd86a <CQ_WaitDone>
  3da8c8:	fc 80       	pop25 $r6,#0    ! {$r6, $fp, $gp, $lp}

003da8ca <HAL_CQSendAddr>:
  3da8ca:	3e 2d 2a 34 	addi.gp $r2,#-185804
  3da8ce:	38 21 02 02 	lw $r2,[$r2+($r0<<#0x2)]
  3da8d2:	46 00 a0 00 	sethi $r0,#0xa000
  3da8d6:	fe 47       	or33 $r1,$r0
  3da8d8:	14 11 00 36 	swi $r1,[$r2+#0xd8]
  3da8dc:	dd 9e       	ret5 $lp

003da8de <HAL_CQSendColAddr>:
  3da8de:	3e 2d 2a 34 	addi.gp $r2,#-185804
  3da8e2:	38 21 02 02 	lw $r2,[$r2+($r0<<#0x2)]
  3da8e6:	46 01 50 00 	sethi $r0,#0x15000
  3da8ea:	fe 47       	or33 $r1,$r0
  3da8ec:	14 11 00 36 	swi $r1,[$r2+#0xd8]
  3da8f0:	dd 9e       	ret5 $lp

003da8f2 <HAL_CQSendRowAddr>:
  3da8f2:	3e 2d 2a 34 	addi.gp $r2,#-185804
  3da8f6:	40 10 a0 08 	slli $r1,$r1,#0x8
  3da8fa:	38 21 02 02 	lw $r2,[$r2+($r0<<#0x2)]
  3da8fe:	92 28       	srli45 $r1,#0x8
  3da900:	46 01 60 00 	sethi $r0,#0x16000
  3da904:	fe 47       	or33 $r1,$r0
  3da906:	14 11 00 36 	swi $r1,[$r2+#0xd8]
  3da90a:	dd 9e       	ret5 $lp

003da90c <HAL_CQSendRowAddr_4Byte>:
  3da90c:	3e 2d 2a 34 	addi.gp $r2,#-185804
  3da910:	38 31 02 02 	lw $r3,[$r2+($r0<<#0x2)]
  3da914:	96 89       	zeh33 $r2,$r1
  3da916:	46 01 50 00 	sethi $r0,#0x15000
  3da91a:	92 30       	srli45 $r1,#0x10
  3da91c:	fe 87       	or33 $r2,$r0
  3da91e:	fe 0f       	or33 $r0,$r1
  3da920:	14 21 80 36 	swi $r2,[$r3+#0xd8]
  3da924:	14 01 80 36 	swi $r0,[$r3+#0xd8]
  3da928:	dd 9e       	ret5 $lp

003da92a <HAL_CQSend5Addr>:
  3da92a:	fc 00       	push25 $r6,#0    ! {$r6, $fp, $gp, $lp}
  3da92c:	3e 3d 2a 34 	addi.gp $r3,#-185804
  3da930:	38 61 82 02 	lw $r6,[$r3+($r0<<#0x2)]
  3da934:	46 31 50 00 	sethi $r3,#0x15000
  3da938:	fe 5f       	or33 $r1,$r3
  3da93a:	83 86       	mov55 $fp,$r6
  3da93c:	b9 b6       	swi37 $r1,[$fp+#0xd8]
  3da93e:	80 22       	mov55 $r1,$r2
  3da940:	49 ff ff d9 	jal 3da8f2 <HAL_CQSendRowAddr>
  3da944:	46 00 70 00 	sethi $r0,#0x7000
  3da948:	50 00 00 20 	addi $r0,$r0,#0x20
  3da94c:	b8 b6       	swi37 $r0,[$fp+#0xd8]
  3da94e:	fc 80       	pop25 $r6,#0    ! {$r6, $fp, $gp, $lp}

003da950 <HAL_CQSend6Addr>:
  3da950:	fc 00       	push25 $r6,#0    ! {$r6, $fp, $gp, $lp}
  3da952:	3e 3d 2a 34 	addi.gp $r3,#-185804
  3da956:	38 61 82 02 	lw $r6,[$r3+($r0<<#0x2)]
  3da95a:	46 31 50 00 	sethi $r3,#0x15000
  3da95e:	fe 5f       	or33 $r1,$r3
  3da960:	83 86       	mov55 $fp,$r6
  3da962:	b9 b6       	swi37 $r1,[$fp+#0xd8]
  3da964:	80 22       	mov55 $r1,$r2
  3da966:	49 ff ff d3 	jal 3da90c <HAL_CQSendRowAddr_4Byte>
  3da96a:	46 00 70 00 	sethi $r0,#0x7000
  3da96e:	50 00 00 20 	addi $r0,$r0,#0x20
  3da972:	b8 b6       	swi37 $r0,[$fp+#0xd8]
  3da974:	fc 80       	pop25 $r6,#0    ! {$r6, $fp, $gp, $lp}

003da976 <HAL_CQSendRndAddr>:
  3da976:	fc 40       	push25 $r10,#0    ! {$r6~$r10, $fp, $gp, $lp}
  3da978:	3e 3d 2a 34 	addi.gp $r3,#-185804
  3da97c:	46 70 88 20 	sethi $r7,#0x8820
  3da980:	38 61 82 02 	lw $r6,[$r3+($r0<<#0x2)]
  3da984:	81 21       	mov55 $r9,$r1
  3da986:	83 86       	mov55 $fp,$r6
  3da988:	bf b6       	swi37 $r7,[$fp+#0xd8]
  3da98a:	49 ff ff d0 	jal 3da92a <HAL_CQSend5Addr>
  3da98e:	9c 3d       	addi333 $r0,$r7,#0x5
  3da990:	b8 b6       	swi37 $r0,[$fp+#0xd8]
  3da992:	46 01 50 00 	sethi $r0,#0x15000
  3da996:	40 14 80 04 	or $r1,$r9,$r0
  3da99a:	46 00 70 00 	sethi $r0,#0x7000
  3da99e:	50 73 80 e0 	addi $r7,$r7,#0xe0
  3da9a2:	50 00 00 20 	addi $r0,$r0,#0x20
  3da9a6:	b9 b6       	swi37 $r1,[$fp+#0xd8]
  3da9a8:	bf b6       	swi37 $r7,[$fp+#0xd8]
  3da9aa:	b8 b6       	swi37 $r0,[$fp+#0xd8]
  3da9ac:	fc c0       	pop25 $r10,#0    ! {$r6~$r10, $fp, $gp, $lp}

003da9ae <HAL_CQSendFlashCmd>:
  3da9ae:	3e 2d 2a 34 	addi.gp $r2,#-185804
  3da9b2:	38 21 02 02 	lw $r2,[$r2+($r0<<#0x2)]
  3da9b6:	46 00 88 20 	sethi $r0,#0x8820
  3da9ba:	fe 47       	or33 $r1,$r0
  3da9bc:	14 11 00 36 	swi $r1,[$r2+#0xd8]
  3da9c0:	dd 9e       	ret5 $lp

003da9c2 <HAL_CQCfgLogicNum>:
  3da9c2:	3e 2d 2a 34 	addi.gp $r2,#-185804
  3da9c6:	38 21 02 02 	lw $r2,[$r2+($r0<<#0x2)]
  3da9ca:	46 02 0e 40 	sethi $r0,#0x20e40
  3da9ce:	fe 0f       	or33 $r0,$r1
  3da9d0:	14 01 00 36 	swi $r0,[$r2+#0xd8]
  3da9d4:	92 30       	srli45 $r1,#0x10
  3da9d6:	46 02 0e 60 	sethi $r0,#0x20e60
  3da9da:	fe 47       	or33 $r1,$r0
  3da9dc:	14 11 00 36 	swi $r1,[$r2+#0xd8]
  3da9e0:	dd 9e       	ret5 $lp

003da9e2 <HAL_CQCfgLogicNumExt>:
  3da9e2:	3e 2d 2a 34 	addi.gp $r2,#-185804
  3da9e6:	38 21 02 02 	lw $r2,[$r2+($r0<<#0x2)]
  3da9ea:	46 02 0f 00 	sethi $r0,#0x20f00
  3da9ee:	fe 0f       	or33 $r0,$r1
  3da9f0:	14 01 00 36 	swi $r0,[$r2+#0xd8]
  3da9f4:	92 30       	srli45 $r1,#0x10
  3da9f6:	46 02 0f 20 	sethi $r0,#0x20f20
  3da9fa:	fe 47       	or33 $r1,$r0
  3da9fc:	14 11 00 36 	swi $r1,[$r2+#0xd8]
  3daa00:	dd 9e       	ret5 $lp

003daa02 <HAL_CQCheckHold>:
  3daa02:	fc 00       	push25 $r6,#0    ! {$r6, $fp, $gp, $lp}
  3daa04:	3e 6d 2a 34 	addi.gp $r6,#-185804
  3daa08:	94 02       	slli333 $r0,$r0,#0x2
  3daa0a:	38 23 0a 02 	lw $r2,[$r6+($r2<<#0x2)]
  3daa0e:	46 62 80 00 	sethi $r6,#0x28000
  3daa12:	94 4c       	slli333 $r1,$r1,#0x4
  3daa14:	83 82       	mov55 $fp,$r2
  3daa16:	be b6       	swi37 $r6,[$fp+#0xd8]
  3daa18:	46 62 40 00 	sethi $r6,#0x24000
  3daa1c:	fe 37       	or33 $r0,$r6
  3daa1e:	fe 47       	or33 $r1,$r0
  3daa20:	b9 b6       	swi37 $r1,[$fp+#0xd8]
  3daa22:	46 02 41 80 	sethi $r0,#0x24180
  3daa26:	96 59       	zeh33 $r1,$r3
  3daa28:	fe 0f       	or33 $r0,$r1
  3daa2a:	b8 b6       	swi37 $r0,[$fp+#0xd8]
  3daa2c:	92 70       	srli45 $r3,#0x10
  3daa2e:	46 02 41 a0 	sethi $r0,#0x241a0
  3daa32:	fe c7       	or33 $r3,$r0
  3daa34:	46 02 41 c0 	sethi $r0,#0x241c0
  3daa38:	ff 07       	or33 $r4,$r0
  3daa3a:	bb b6       	swi37 $r3,[$fp+#0xd8]
  3daa3c:	bc b6       	swi37 $r4,[$fp+#0xd8]
  3daa3e:	5a 58 01 06 	bnec $r5,#0x1,3daa4a <HAL_CQCheckHold+0x48>
  3daa42:	46 01 30 00 	sethi $r0,#0x13000
  3daa46:	14 01 00 36 	swi $r0,[$r2+#0xd8]
  3daa4a:	fc 80       	pop25 $r6,#0    ! {$r6, $fp, $gp, $lp}

003daa4c <HAL_CQCheckHoldOnly>:
  3daa4c:	5a 18 01 0a 	bnec $r1,#0x1,3daa60 <HAL_CQCheckHoldOnly+0x14>
  3daa50:	3e 1d 2a 34 	addi.gp $r1,#-185804
  3daa54:	38 00 82 02 	lw $r0,[$r1+($r0<<#0x2)]
  3daa58:	46 11 30 00 	sethi $r1,#0x13000
  3daa5c:	14 10 00 36 	swi $r1,[$r0+#0xd8]
  3daa60:	dd 9e       	ret5 $lp

003daa62 <HAL_CQCheckIOStatus>:
  3daa62:	3e 1d 2a 34 	addi.gp $r1,#-185804
  3daa66:	40 42 20 08 	slli $r4,$r4,#0x8
  3daa6a:	38 00 82 02 	lw $r0,[$r1+($r0<<#0x2)]
  3daa6e:	46 10 70 00 	sethi $r1,#0x7000
  3daa72:	50 20 80 50 	addi $r2,$r1,#0x50
  3daa76:	50 50 00 d8 	addi $r5,$r0,#0xd8
  3daa7a:	b6 45       	swi450 $r2,[$r5]
  3daa7c:	46 20 88 20 	sethi $r2,#0x8820
  3daa80:	50 10 80 80 	addi $r1,$r1,#0x80
  3daa84:	50 21 00 70 	addi $r2,$r2,#0x70
  3daa88:	b6 45       	swi450 $r2,[$r5]
  3daa8a:	b6 25       	swi450 $r1,[$r5]
  3daa8c:	46 10 30 00 	sethi $r1,#0x3000
  3daa90:	fe cf       	or33 $r3,$r1
  3daa92:	fe e7       	or33 $r3,$r4
  3daa94:	b6 65       	swi450 $r3,[$r5]
  3daa96:	dd 9e       	ret5 $lp

003daa98 <HAL_CQCheckStsCfg>:
  3daa98:	fc 21       	push25 $r8,#8    ! {$r6~$r8, $fp, $gp, $lp}
  3daa9a:	f2 81       	swi37.sp $r2,[+#0x4]
  3daa9c:	3e 2d 2a 34 	addi.gp $r2,#-185804
  3daaa0:	e6 25       	slti45 $r1,#0x5
  3daaa2:	38 61 02 02 	lw $r6,[$r2+($r0<<#0x2)]
  3daaa6:	84 41       	movi55 $r2,#0x1
  3daaa8:	40 31 0c 0c 	sll $r3,$r2,$r3
  3daaac:	80 e5       	mov55 $r7,$r5
  3daaae:	14 33 00 36 	swi $r3,[$r6+#0xd8]
  3daab2:	00 5f 80 20 	lbi $r5,[$sp+#0x20]
  3daab6:	e8 4e       	beqzs8 3dab52 <HAL_CQCheckStsCfg+0xba>
  3daab8:	3e fc 93 68 	addi.gp $r15,#-224408
  3daabc:	38 17 84 00 	lb $r1,[$r15+($r1<<#0x0)]
  3daac0:	40 f0 bc 00 	add $r15,$r1,$r15
  3daac4:	4a 00 3c 00 	jr $r15
  3daac8:	06          	.byte	0x06
  3daac9:	14          	.byte	0x14
  3daaca:	26          	.byte	0x26
  3daacb:	70          	.byte	0x70
  3daacc:	56 00       	.byte	0x56
  3daace:	46 00 88 20 	sethi $r0,#0x8820
  3daad2:	50 00 00 70 	addi $r0,$r0,#0x70
  3daad6:	14 03 00 36 	swi $r0,[$r6+#0xd8]
  3daada:	d5 1b       	j8 3dab10 <HAL_CQCheckStsCfg+0x78>
  3daadc:	46 00 88 20 	sethi $r0,#0x8820
  3daae0:	50 00 00 71 	addi $r0,$r0,#0x71
  3daae4:	14 03 00 36 	swi $r0,[$r6+#0xd8]
  3daae8:	46 00 a0 00 	sethi $r0,#0xa000
  3daaec:	d5 2a       	j8 3dab40 <HAL_CQCheckStsCfg+0xa8>
  3daaee:	46 10 88 20 	sethi $r1,#0x8820
  3daaf2:	50 10 80 78 	addi $r1,$r1,#0x78
  3daaf6:	14 13 00 36 	swi $r1,[$r6+#0xd8]
  3daafa:	5a 58 06 06 	bnec $r5,#0x6,3dab06 <HAL_CQCheckStsCfg+0x6e>
  3daafe:	f1 01       	lwi37.sp $r1,[+#0x4]
  3dab00:	49 ff ff 06 	jal 3da90c <HAL_CQSendRowAddr_4Byte>
  3dab04:	d5 06       	j8 3dab10 <HAL_CQCheckStsCfg+0x78>
  3dab06:	5a 58 05 05 	bnec $r5,#0x5,3dab10 <HAL_CQCheckStsCfg+0x78>
  3dab0a:	f1 01       	lwi37.sp $r1,[+#0x4]
  3dab0c:	49 ff fe f3 	jal 3da8f2 <HAL_CQSendRowAddr>
  3dab10:	46 00 70 00 	sethi $r0,#0x7000
  3dab14:	50 00 00 80 	addi $r0,$r0,#0x80
  3dab18:	14 03 00 36 	swi $r0,[$r6+#0xd8]
  3dab1c:	d5 15       	j8 3dab46 <HAL_CQCheckStsCfg+0xae>
  3dab1e:	44 07 a1 21 	movi $r0,#0x7a121
  3dab22:	46 20 05 e5 	sethi $r2,#0x5e5
  3dab26:	8e 01       	subi45 $r0,#0x1
  3dab28:	c0 07       	beqz38 $r0,3dab36 <HAL_CQCheckStsCfg+0x9e>
  3dab2a:	00 11 02 3c 	lbi $r1,[$r2+#0x23c]
  3dab2e:	92 27       	srli45 $r1,#0x7
  3dab30:	5a 18 01 fb 	bnec $r1,#0x1,3dab26 <HAL_CQCheckStsCfg+0x8e>
  3dab34:	fc a1       	pop25 $r8,#8    ! {$r6~$r8, $fp, $gp, $lp}
  3dab36:	fc a1       	pop25 $r8,#8    ! {$r6~$r8, $fp, $gp, $lp}
  3dab38:	50 42 00 f0 	addi $r4,$r4,#0xf0
  3dab3c:	46 00 88 20 	sethi $r0,#0x8820
  3dab40:	ff 07       	or33 $r4,$r0
  3dab42:	14 43 00 36 	swi $r4,[$r6+#0xd8]
  3dab46:	46 00 30 00 	sethi $r0,#0x3000
  3dab4a:	fe 3f       	or33 $r0,$r7
  3dab4c:	14 03 00 36 	swi $r0,[$r6+#0xd8]
  3dab50:	d5 03       	j8 3dab56 <HAL_CQCheckStsCfg+0xbe>
  3dab52:	5a 10 04 07 	beqc $r1,#0x4,3dab60 <HAL_CQCheckStsCfg+0xc8>
  3dab56:	46 50 30 00 	sethi $r5,#0x3000
  3dab5a:	ff ef       	or33 $r7,$r5
  3dab5c:	14 73 00 36 	swi $r7,[$r6+#0xd8]
  3dab60:	fc a1       	pop25 $r8,#8    ! {$r6~$r8, $fp, $gp, $lp}
  3dab62:	92 00       	nop16

003dab64 <HAL_CQCheckRealDone>:
  3dab64:	3e 1d 2a 34 	addi.gp $r1,#-185804
  3dab68:	38 00 82 02 	lw $r0,[$r1+($r0<<#0x2)]
  3dab6c:	46 12 c0 00 	sethi $r1,#0x2c000
  3dab70:	14 10 00 36 	swi $r1,[$r0+#0xd8]
  3dab74:	dd 9e       	ret5 $lp

003dab76 <HAL_CQStartDMA2Write>:
  3dab76:	fc 20       	push25 $r8,#0    ! {$r6~$r8, $fp, $gp, $lp}
  3dab78:	3e 6d 2a 34 	addi.gp $r6,#-185804
  3dab7c:	f7 06       	lwi37.sp $r7,[+#0x18]
  3dab7e:	38 03 02 02 	lw $r0,[$r6+($r0<<#0x2)]
  3dab82:	94 92       	slli333 $r2,$r2,#0x2
  3dab84:	46 62 40 00 	sethi $r6,#0x24000
  3dab88:	fe b7       	or33 $r2,$r6
  3dab8a:	95 bc       	slli333 $r6,$r7,#0x4
  3dab8c:	fe b7       	or33 $r2,$r6
  3dab8e:	14 20 00 36 	swi $r2,[$r0+#0xd8]
  3dab92:	96 89       	zeh33 $r2,$r1
  3dab94:	92 30       	srli45 $r1,#0x10
  3dab96:	cf 09       	bnez38 $r7,3daba8 <HAL_CQStartDMA2Write+0x32>
  3dab98:	46 62 45 c0 	sethi $r6,#0x245c0
  3dab9c:	fe b7       	or33 $r2,$r6
  3dab9e:	14 20 00 36 	swi $r2,[$r0+#0xd8]
  3daba2:	46 22 45 e0 	sethi $r2,#0x245e0
  3daba6:	d5 08       	j8 3dabb6 <HAL_CQStartDMA2Write+0x40>
  3daba8:	46 62 44 c0 	sethi $r6,#0x244c0
  3dabac:	fe b7       	or33 $r2,$r6
  3dabae:	14 20 00 36 	swi $r2,[$r0+#0xd8]
  3dabb2:	46 22 44 e0 	sethi $r2,#0x244e0
  3dabb6:	fe 57       	or33 $r1,$r2
  3dabb8:	83 80       	mov55 $fp,$r0
  3dabba:	b9 b6       	swi37 $r1,[$fp+#0xd8]
  3dabbc:	46 12 52 00 	sethi $r1,#0x25200
  3dabc0:	ff 0f       	or33 $r4,$r1
  3dabc2:	96 99       	zeh33 $r2,$r3
  3dabc4:	46 12 41 80 	sethi $r1,#0x24180
  3dabc8:	fe 57       	or33 $r1,$r2
  3dabca:	bc b6       	swi37 $r4,[$fp+#0xd8]
  3dabcc:	92 70       	srli45 $r3,#0x10
  3dabce:	b9 b6       	swi37 $r1,[$fp+#0xd8]
  3dabd0:	46 12 41 a0 	sethi $r1,#0x241a0
  3dabd4:	fe cf       	or33 $r3,$r1
  3dabd6:	46 12 41 c0 	sethi $r1,#0x241c0
  3dabda:	ff 4f       	or33 $r5,$r1
  3dabdc:	46 12 56 00 	sethi $r1,#0x25600
  3dabe0:	8c 23       	addi45 $r1,#0x3
  3dabe2:	bb b6       	swi37 $r3,[$fp+#0xd8]
  3dabe4:	bd b6       	swi37 $r5,[$fp+#0xd8]
  3dabe6:	b9 b6       	swi37 $r1,[$fp+#0xd8]
  3dabe8:	46 12 80 00 	sethi $r1,#0x28000
  3dabec:	b9 b6       	swi37 $r1,[$fp+#0xd8]
  3dabee:	fc a0       	pop25 $r8,#0    ! {$r6~$r8, $fp, $gp, $lp}

003dabf0 <HAL_CQSetUdBaseAddr>:
  3dabf0:	3e 2d 2a 34 	addi.gp $r2,#-185804
  3dabf4:	96 c9       	zeh33 $r3,$r1
  3dabf6:	38 21 02 02 	lw $r2,[$r2+($r0<<#0x2)]
  3dabfa:	46 02 40 80 	sethi $r0,#0x24080
  3dabfe:	fe 1f       	or33 $r0,$r3
  3dac00:	14 01 00 36 	swi $r0,[$r2+#0xd8]
  3dac04:	92 30       	srli45 $r1,#0x10
  3dac06:	46 02 40 a0 	sethi $r0,#0x240a0
  3dac0a:	fe 47       	or33 $r1,$r0
  3dac0c:	14 11 00 36 	swi $r1,[$r2+#0xd8]
  3dac10:	dd 9e       	ret5 $lp

003dac12 <HAL_CQSetUdAttachSize>:
  3dac12:	3e 2d 2a 34 	addi.gp $r2,#-185804
  3dac16:	38 21 02 02 	lw $r2,[$r2+($r0<<#0x2)]
  3dac1a:	46 02 50 70 	sethi $r0,#0x25070
  3dac1e:	fe 0f       	or33 $r0,$r1
  3dac20:	14 01 00 36 	swi $r0,[$r2+#0xd8]
  3dac24:	46 02 58 10 	sethi $r0,#0x25810
  3dac28:	fe 47       	or33 $r1,$r0
  3dac2a:	14 11 00 36 	swi $r1,[$r2+#0xd8]
  3dac2e:	dd 9e       	ret5 $lp

003dac30 <HAL_CQSetUdLen>:
  3dac30:	3e 2d 2a 34 	addi.gp $r2,#-185804
  3dac34:	38 21 02 02 	lw $r2,[$r2+($r0<<#0x2)]
  3dac38:	46 02 50 60 	sethi $r0,#0x25060
  3dac3c:	fe 0f       	or33 $r0,$r1
  3dac3e:	14 01 00 36 	swi $r0,[$r2+#0xd8]
  3dac42:	46 02 58 00 	sethi $r0,#0x25800
  3dac46:	fe 47       	or33 $r1,$r0
  3dac48:	14 11 00 36 	swi $r1,[$r2+#0xd8]
  3dac4c:	dd 9e       	ret5 $lp

003dac4e <HAL_CQSetUd>:
  3dac4e:	fc 01       	push25 $r6,#8    ! {$r6, $fp, $gp, $lp}
  3dac50:	b6 5f       	swi450 $r2,[$sp]
  3dac52:	3e 2d 2a 34 	addi.gp $r2,#-185804
  3dac56:	f3 81       	swi37.sp $r3,[+#0x4]
  3dac58:	38 21 02 02 	lw $r2,[$r2+($r0<<#0x2)]
  3dac5c:	46 31 20 00 	sethi $r3,#0x12000
  3dac60:	80 c0       	mov55 $r6,$r0
  3dac62:	14 31 00 36 	swi $r3,[$r2+#0xd8]
  3dac66:	80 44       	mov55 $r2,$r4
  3dac68:	49 ff ff c4 	jal 3dabf0 <HAL_CQSetUdBaseAddr>
  3dac6c:	80 06       	mov55 $r0,$r6
  3dac6e:	f1 01       	lwi37.sp $r1,[+#0x4]
  3dac70:	49 ff ff e0 	jal 3dac30 <HAL_CQSetUdLen>
  3dac74:	80 06       	mov55 $r0,$r6
  3dac76:	b4 3f       	lwi450 $r1,[$sp]
  3dac78:	49 ff ff cd 	jal 3dac12 <HAL_CQSetUdAttachSize>
  3dac7c:	fc 81       	pop25 $r6,#8    ! {$r6, $fp, $gp, $lp}

003dac7e <HAL_CQSetRndSeed>:
  3dac7e:	3e 2d 2a 34 	addi.gp $r2,#-185804
  3dac82:	96 48       	zeb33 $r1,$r1
  3dac84:	38 21 02 02 	lw $r2,[$r2+($r0<<#0x2)]
  3dac88:	3e 0d 27 88 	addi.gp $r0,#-186488
  3dac8c:	38 10 05 01 	lh $r1,[$r0+($r1<<#0x1)]
  3dac90:	46 02 43 00 	sethi $r0,#0x24300
  3dac94:	fe 0f       	or33 $r0,$r1
  3dac96:	14 01 00 36 	swi $r0,[$r2+#0xd8]
  3dac9a:	dd 9e       	ret5 $lp

003dac9c <HAL_CQSetDMAInfoAddr>:
  3dac9c:	3e 2d 2a 34 	addi.gp $r2,#-185804
  3daca0:	96 c9       	zeh33 $r3,$r1
  3daca2:	38 21 02 02 	lw $r2,[$r2+($r0<<#0x2)]
  3daca6:	46 02 45 40 	sethi $r0,#0x24540
  3dacaa:	fe 1f       	or33 $r0,$r3
  3dacac:	14 01 00 36 	swi $r0,[$r2+#0xd8]
  3dacb0:	92 30       	srli45 $r1,#0x10
  3dacb2:	46 02 45 60 	sethi $r0,#0x24560
  3dacb6:	fe 47       	or33 $r1,$r0
  3dacb8:	14 11 00 36 	swi $r1,[$r2+#0xd8]
  3dacbc:	dd 9e       	ret5 $lp

003dacbe <HAL_CQStartDMA2>:
  3dacbe:	fc 40       	push25 $r10,#0    ! {$r6~$r10, $fp, $gp, $lp}
  3dacc0:	80 e1       	mov55 $r7,$r1
  3dacc2:	3e 1d 2a 34 	addi.gp $r1,#-185804
  3dacc6:	04 8f 80 08 	lwi $r8,[$sp+#0x20]
  3dacca:	38 60 82 02 	lw $r6,[$r1+($r0<<#0x2)]
  3dacce:	81 23       	mov55 $r9,$r3
  3dacd0:	46 12 40 00 	sethi $r1,#0x24000
  3dacd4:	94 d2       	slli333 $r3,$r2,#0x2
  3dacd6:	fe 5f       	or33 $r1,$r3
  3dacd8:	40 34 10 08 	slli $r3,$r8,#0x4
  3dacdc:	fe 5f       	or33 $r1,$r3
  3dacde:	83 84       	mov55 $fp,$r4
  3dace0:	81 45       	mov55 $r10,$r5
  3dace2:	14 13 00 36 	swi $r1,[$r6+#0xd8]
  3dace6:	5a 28 01 09 	bnec $r2,#0x1,3dacf8 <HAL_CQStartDMA2+0x3a>
  3dacea:	46 11 20 00 	sethi $r1,#0x12000
  3dacee:	14 13 00 36 	swi $r1,[$r6+#0xd8]
  3dacf2:	f1 09       	lwi37.sp $r1,[+#0x24]
  3dacf4:	49 ff ff d4 	jal 3dac9c <HAL_CQSetDMAInfoAddr>
  3dacf8:	96 39       	zeh33 $r0,$r7
  3dacfa:	92 f0       	srli45 $r7,#0x10
  3dacfc:	4e 83 00 0a 	bnez $r8,3dad10 <HAL_CQStartDMA2+0x52>
  3dad00:	46 12 45 c0 	sethi $r1,#0x245c0
  3dad04:	fe 0f       	or33 $r0,$r1
  3dad06:	14 03 00 36 	swi $r0,[$r6+#0xd8]
  3dad0a:	46 02 45 e0 	sethi $r0,#0x245e0
  3dad0e:	d5 08       	j8 3dad1e <HAL_CQStartDMA2+0x60>
  3dad10:	46 12 44 c0 	sethi $r1,#0x244c0
  3dad14:	fe 0f       	or33 $r0,$r1
  3dad16:	14 03 00 36 	swi $r0,[$r6+#0xd8]
  3dad1a:	46 02 44 e0 	sethi $r0,#0x244e0
  3dad1e:	ff c7       	or33 $r7,$r0
  3dad20:	40 14 80 13 	zeh $r1,$r9
  3dad24:	46 42 52 00 	sethi $r4,#0x25200
  3dad28:	46 02 41 80 	sethi $r0,#0x24180
  3dad2c:	fe 0f       	or33 $r0,$r1
  3dad2e:	40 4e 10 04 	or $r4,$fp,$r4
  3dad32:	83 86       	mov55 $fp,$r6
  3dad34:	bf b6       	swi37 $r7,[$fp+#0xd8]
  3dad36:	bc b6       	swi37 $r4,[$fp+#0xd8]
  3dad38:	b8 b6       	swi37 $r0,[$fp+#0xd8]
  3dad3a:	46 02 41 c0 	sethi $r0,#0x241c0
  3dad3e:	40 55 00 04 	or $r5,$r10,$r0
  3dad42:	93 30       	srli45 $r9,#0x10
  3dad44:	46 32 41 a0 	sethi $r3,#0x241a0
  3dad48:	46 02 56 00 	sethi $r0,#0x25600
  3dad4c:	8c 03       	addi45 $r0,#0x3
  3dad4e:	40 94 8c 04 	or $r9,$r9,$r3
  3dad52:	14 93 00 36 	swi $r9,[$r6+#0xd8]
  3dad56:	bd b6       	swi37 $r5,[$fp+#0xd8]
  3dad58:	b8 b6       	swi37 $r0,[$fp+#0xd8]
  3dad5a:	46 02 80 00 	sethi $r0,#0x28000
  3dad5e:	b8 b6       	swi37 $r0,[$fp+#0xd8]
  3dad60:	fc c0       	pop25 $r10,#0    ! {$r6~$r10, $fp, $gp, $lp}

003dad62 <HAL_McuSetUd>:
  3dad62:	3e 4d 2a 44 	addi.gp $r4,#-185788
  3dad66:	46 5f fc 0f 	sethi $r5,#0xffc0f
  3dad6a:	38 02 02 02 	lw $r0,[$r4+($r0<<#0x2)]
  3dad6e:	96 ef       	fexti33 $r3,#0x5
  3dad70:	50 52 8f ff 	addi $r5,$r5,#0xfff
  3dad74:	a8 42       	swi333 $r1,[$r0+#0x8]
  3dad76:	a1 01       	lwi333 $r4,[$r0+#0x4]
  3dad78:	40 11 c0 08 	slli $r1,$r3,#0x10
  3dad7c:	ff 2e       	and33 $r4,$r5
  3dad7e:	ff 0f       	or33 $r4,$r1
  3dad80:	a9 01       	swi333 $r4,[$r0+#0x4]
  3dad82:	a1 01       	lwi333 $r4,[$r0+#0x4]
  3dad84:	46 5c 0f ff 	sethi $r5,#0xc0fff
  3dad88:	96 af       	fexti33 $r2,#0x5
  3dad8a:	50 52 8f ff 	addi $r5,$r5,#0xfff
  3dad8e:	40 11 60 08 	slli $r1,$r2,#0x18
  3dad92:	ff 2e       	and33 $r4,$r5
  3dad94:	ff 0f       	or33 $r4,$r1
  3dad96:	a9 01       	swi333 $r4,[$r0+#0x4]
  3dad98:	02 10 00 40 	lhi $r1,[$r0+#0x80]
  3dad9c:	40 21 20 08 	slli $r2,$r2,#0x8
  3dada0:	92 26       	srli45 $r1,#0x6
  3dada2:	94 4e       	slli333 $r1,$r1,#0x6
  3dada4:	fe cf       	or33 $r3,$r1
  3dada6:	12 30 00 40 	shi $r3,[$r0+#0x80]
  3dadaa:	02 30 00 40 	lhi $r3,[$r0+#0x80]
  3dadae:	44 1f c0 ff 	movi $r1,#-16129
  3dadb2:	fe 5e       	and33 $r1,$r3
  3dadb4:	fe 8f       	or33 $r2,$r1
  3dadb6:	12 20 00 40 	shi $r2,[$r0+#0x80]
  3dadba:	dd 9e       	ret5 $lp

003dadbc <HAL_McuSetMask>:
  3dadbc:	3e 2d 2a 44 	addi.gp $r2,#-185788
  3dadc0:	40 10 8c 0e 	sra $r1,$r1,$r3
  3dadc4:	38 01 02 02 	lw $r0,[$r2+($r0<<#0x2)]
  3dadc8:	14 10 00 09 	swi $r1,[$r0+#0x24]
  3dadcc:	dd 9e       	ret5 $lp

003dadce <HAL_McuSetRndSeed>:
  3dadce:	44 30 ff ff 	movi $r3,#0xffff
  3dadd2:	4c 21 c0 03 	bne $r2,$r3,3dadd8 <HAL_McuSetRndSeed+0xa>
  3dadd6:	96 89       	zeh33 $r2,$r1
  3dadd8:	3e 1d 2a 44 	addi.gp $r1,#-185788
  3daddc:	96 90       	zeb33 $r2,$r2
  3dadde:	38 30 82 02 	lw $r3,[$r1+($r0<<#0x2)]
  3dade2:	3e 0d 27 88 	addi.gp $r0,#-186488
  3dade6:	38 00 09 01 	lh $r0,[$r0+($r2<<#0x1)]
  3dadea:	54 10 7f ff 	andi $r1,$r0,#0x7fff
  3dadee:	02 01 80 18 	lhi $r0,[$r3+#0x30]
  3dadf2:	92 0f       	srli45 $r0,#0xf
  3dadf4:	40 00 3c 08 	slli $r0,$r0,#0xf
  3dadf8:	fe 0f       	or33 $r0,$r1
  3dadfa:	12 01 80 18 	shi $r0,[$r3+#0x30]
  3dadfe:	dd 9e       	ret5 $lp

003dae00 <HAL_McuSendWRPulse>:
  3dae00:	3e 2d 2a 34 	addi.gp $r2,#-185804
  3dae04:	38 21 02 02 	lw $r2,[$r2+($r0<<#0x2)]
  3dae08:	10 11 00 44 	sbi $r1,[$r2+#0x44]
  3dae0c:	64 00 00 08 	dsb
  3dae10:	04 01 00 12 	lwi $r0,[$r2+#0x48]
  3dae14:	96 06       	bmski33 $r0,#0x0
  3dae16:	c0 fd       	beqz38 $r0,3dae10 <HAL_McuSendWRPulse+0x10>
  3dae18:	dd 9e       	ret5 $lp

003dae1a <HAL_McuSendReadPluse>:
  3dae1a:	3e 1d 2a 34 	addi.gp $r1,#-185804
  3dae1e:	38 00 82 02 	lw $r0,[$r1+($r0<<#0x2)]
  3dae22:	04 10 00 10 	lwi $r1,[$r0+#0x40]
  3dae26:	58 10 80 01 	ori $r1,$r1,#0x1
  3dae2a:	14 10 00 10 	swi $r1,[$r0+#0x40]
  3dae2e:	64 00 00 08 	dsb
  3dae32:	04 10 00 12 	lwi $r1,[$r0+#0x48]
  3dae36:	96 46       	bmski33 $r1,#0x0
  3dae38:	c1 fd       	beqz38 $r1,3dae32 <HAL_McuSendReadPluse+0x18>
  3dae3a:	00 00 00 4c 	lbi $r0,[$r0+#0x4c]
  3dae3e:	dd 9e       	ret5 $lp

003dae40 <HAL_Init>:
  3dae40:	fc 41       	push25 $r10,#8    ! {$r6~$r10, $fp, $gp, $lp}
  3dae42:	80 c0       	mov55 $r6,$r0
  3dae44:	84 e0       	movi55 $r7,#0x0
  3dae46:	3c 6e 02 b0 	swi.gp $r6,[+#0xac0]
  3dae4a:	3e 8d 2a 6c 	addi.gp $r8,#-185748
  3dae4e:	44 af ff ef 	movi $r10,#-17
  3dae52:	38 04 1e 02 	lw $r0,[$r8+($r7<<#0x2)]
  3dae56:	b4 26       	lwi450 $r1,[$r6]
  3dae58:	85 20       	movi55 $r9,#0x0
  3dae5a:	b6 20       	swi450 $r1,[$r0]
  3dae5c:	b4 20       	lwi450 $r1,[$r0]
  3dae5e:	58 10 80 01 	ori $r1,$r1,#0x1
  3dae62:	b6 20       	swi450 $r1,[$r0]
  3dae64:	b4 40       	lwi450 $r2,[$r0]
  3dae66:	84 31       	movi55 $r1,#-15
  3dae68:	fe 56       	and33 $r1,$r2
  3dae6a:	58 10 80 04 	ori $r1,$r1,#0x4
  3dae6e:	b6 20       	swi450 $r1,[$r0]
  3dae70:	a0 71       	lwi333 $r1,[$r6+#0x4]
  3dae72:	a8 47       	swi333 $r1,[$r0+#0x1c]
  3dae74:	a0 73       	lwi333 $r1,[$r6+#0xc]
  3dae76:	83 80       	mov55 $fp,$r0
  3dae78:	b9 8e       	swi37 $r1,[$fp+#0x38]
  3dae7a:	a0 74       	lwi333 $r1,[$r6+#0x10]
  3dae7c:	b9 94       	swi37 $r1,[$fp+#0x50]
  3dae7e:	a0 75       	lwi333 $r1,[$r6+#0x14]
  3dae80:	b9 95       	swi37 $r1,[$fp+#0x54]
  3dae82:	a0 77       	lwi333 $r1,[$r6+#0x1c]
  3dae84:	b9 9b       	swi37 $r1,[$fp+#0x6c]
  3dae86:	50 23 00 20 	addi $r2,$r6,#0x20
  3dae8a:	b4 22       	lwi450 $r1,[$r2]
  3dae8c:	b9 9d       	swi37 $r1,[$fp+#0x74]
  3dae8e:	a0 51       	lwi333 $r1,[$r2+#0x4]
  3dae90:	b9 a0       	swi37 $r1,[$fp+#0x80]
  3dae92:	a0 52       	lwi333 $r1,[$r2+#0x8]
  3dae94:	94 49       	slli333 $r1,$r1,#0x1
  3dae96:	b9 b1       	swi37 $r1,[$fp+#0xc4]
  3dae98:	a0 53       	lwi333 $r1,[$r2+#0xc]
  3dae9a:	b9 b2       	swi37 $r1,[$fp+#0xc8]
  3dae9c:	a0 54       	lwi333 $r1,[$r2+#0x10]
  3dae9e:	b9 a4       	swi37 $r1,[$fp+#0x90]
  3daea0:	a0 55       	lwi333 $r1,[$r2+#0x14]
  3daea2:	b9 9f       	swi37 $r1,[$fp+#0x7c]
  3daea4:	14 90 00 2e 	swi $r9,[$r0+#0xb8]
  3daea8:	ba 32       	lwi37 $r2,[$fp+#0xc8]
  3daeaa:	84 3e       	movi55 $r1,#-2
  3daeac:	fe 56       	and33 $r1,$r2
  3daeae:	b9 b2       	swi37 $r1,[$fp+#0xc8]
  3daeb0:	b9 32       	lwi37 $r1,[$fp+#0xc8]
  3daeb2:	40 10 a8 02 	and $r1,$r1,$r10
  3daeb6:	b9 b2       	swi37 $r1,[$fp+#0xc8]
  3daeb8:	ba 32       	lwi37 $r2,[$fp+#0xc8]
  3daeba:	44 1f fe ff 	movi $r1,#-257
  3daebe:	fe 56       	and33 $r1,$r2
  3daec0:	b9 b2       	swi37 $r1,[$fp+#0xc8]
  3daec2:	b9 32       	lwi37 $r1,[$fp+#0xc8]
  3daec4:	58 10 88 00 	ori $r1,$r1,#0x800
  3daec8:	b9 b2       	swi37 $r1,[$fp+#0xc8]
  3daeca:	b9 32       	lwi37 $r1,[$fp+#0xc8]
  3daecc:	58 10 84 00 	ori $r1,$r1,#0x400
  3daed0:	b9 b2       	swi37 $r1,[$fp+#0xc8]
  3daed2:	b9 32       	lwi37 $r1,[$fp+#0xc8]
  3daed4:	58 10 80 80 	ori $r1,$r1,#0x80
  3daed8:	b9 b2       	swi37 $r1,[$fp+#0xc8]
  3daeda:	14 90 00 35 	swi $r9,[$r0+#0xd4]
  3daede:	50 03 80 0e 	addi $r0,$r7,#0xe
  3daee2:	96 00       	zeb33 $r0,$r0
  3daee4:	8c e1       	addi45 $r7,#0x1
  3daee6:	49 00 0a ab 	jal 3dc43c <NVIC_EnableIRQ>
  3daeea:	5a 78 04 b4 	bnec $r7,#0x4,3dae52 <HAL_Init+0x12>
  3daeee:	02 13 00 26 	lhi $r1,[$r6+#0x4c]
  3daef2:	46 00 05 e2 	sethi $r0,#0x5e2
  3daef6:	3f cd 2a 7c 	addi.gp $fp,#-185732
  3daefa:	12 10 00 81 	shi $r1,[$r0+#0x102]
  3daefe:	44 8f fb ff 	movi $r8,#-1025
  3daf02:	38 1e 26 02 	lw $r1,[$fp+($r9<<#0x2)]
  3daf06:	50 23 00 54 	addi $r2,$r6,#0x54
  3daf0a:	b4 02       	lwi450 $r0,[$r2]
  3daf0c:	54 a4 80 ff 	andi $r10,$r9,#0xff
  3daf10:	a8 09       	swi333 $r0,[$r1+#0x4]
  3daf12:	a0 11       	lwi333 $r0,[$r2+#0x4]
  3daf14:	84 e0       	movi55 $r7,#0x0
  3daf16:	a8 0b       	swi333 $r0,[$r1+#0xc]
  3daf18:	a0 12       	lwi333 $r0,[$r2+#0x8]
  3daf1a:	8d 21       	addi45 $r9,#0x1
  3daf1c:	14 00 80 12 	swi $r0,[$r1+#0x48]
  3daf20:	00 03 00 60 	lbi $r0,[$r6+#0x60]
  3daf24:	10 00 80 2c 	sbi $r0,[$r1+#0x2c]
  3daf28:	a0 14       	lwi333 $r0,[$r2+#0x10]
  3daf2a:	14 00 80 0d 	swi $r0,[$r1+#0x34]
  3daf2e:	a4 08       	lhi333 $r0,[$r1+#0x0]
  3daf30:	40 00 20 02 	and $r0,$r0,$r8
  3daf34:	ac 08       	shi333 $r0,[$r1+#0x0]
  3daf36:	a4 89       	lhi333 $r2,[$r1+#0x2]
  3daf38:	44 0f f7 ff 	movi $r0,#-2049
  3daf3c:	fe 16       	and33 $r0,$r2
  3daf3e:	ac 09       	shi333 $r0,[$r1+#0x2]
  3daf40:	a4 09       	lhi333 $r0,[$r1+#0x2]
  3daf42:	58 00 00 01 	ori $r0,$r0,#0x1
  3daf46:	ac 09       	shi333 $r0,[$r1+#0x2]
  3daf48:	a4 89       	lhi333 $r2,[$r1+#0x2]
  3daf4a:	84 1b       	movi55 $r0,#-5
  3daf4c:	fe 16       	and33 $r0,$r2
  3daf4e:	ac 09       	shi333 $r0,[$r1+#0x2]
  3daf50:	a4 09       	lhi333 $r0,[$r1+#0x2]
  3daf52:	44 20 02 00 	movi $r2,#0x200
  3daf56:	40 00 20 02 	and $r0,$r0,$r8
  3daf5a:	ac 09       	shi333 $r0,[$r1+#0x2]
  3daf5c:	14 70 80 09 	swi $r7,[$r1+#0x24]
  3daf60:	80 0a       	mov55 $r0,$r10
  3daf62:	a9 cd       	swi333 $r7,[$r1+#0x14]
  3daf64:	44 10 00 ff 	movi $r1,#0xff
  3daf68:	49 00 03 26 	jal 3db5b4 <HAL_SetOverFlowThresh>
  3daf6c:	50 05 00 06 	addi $r0,$r10,#0x6
  3daf70:	96 00       	zeb33 $r0,$r0
  3daf72:	49 00 0a 65 	jal 3dc43c <NVIC_EnableIRQ>
  3daf76:	5a 98 04 c6 	bnec $r9,#0x4,3daf02 <HAL_Init+0xc2>
  3daf7a:	02 13 00 24 	lhi $r1,[$r6+#0x48]
  3daf7e:	46 00 05 e2 	sethi $r0,#0x5e2
  3daf82:	12 10 00 10 	shi $r1,[$r0+#0x20]
  3daf86:	44 10 18 c0 	movi $r1,#0x18c0
  3daf8a:	14 10 00 09 	swi $r1,[$r0+#0x24]
  3daf8e:	46 10 04 90 	sethi $r1,#0x490
  3daf92:	a8 47       	swi333 $r1,[$r0+#0x1c]
  3daf94:	84 05       	movi55 $r0,#0x5
  3daf96:	49 00 0a 53 	jal 3dc43c <NVIC_EnableIRQ>
  3daf9a:	83 86       	mov55 $fp,$r6
  3daf9c:	b8 50       	lwi37 $r0,[$fp+#0x140]
  3daf9e:	46 10 05 e5 	sethi $r1,#0x5e5
  3dafa2:	80 87       	mov55 $r4,$r7
  3dafa4:	b6 01       	swi450 $r0,[$r1]
  3dafa6:	b8 50       	lwi37 $r0,[$fp+#0x140]
  3dafa8:	a8 09       	swi333 $r0,[$r1+#0x4]
  3dafaa:	b8 50       	lwi37 $r0,[$fp+#0x140]
  3dafac:	a8 0a       	swi333 $r0,[$r1+#0x8]
  3dafae:	b8 50       	lwi37 $r0,[$fp+#0x140]
  3dafb0:	a8 0b       	swi333 $r0,[$r1+#0xc]
  3dafb2:	b8 51       	lwi37 $r0,[$fp+#0x144]
  3dafb4:	a8 0c       	swi333 $r0,[$r1+#0x10]
  3dafb6:	80 07       	mov55 $r0,$r7
  3dafb8:	94 82       	slli333 $r2,$r0,#0x2
  3dafba:	88 41       	add45 $r2,$r1
  3dafbc:	8c 01       	addi45 $r0,#0x1
  3dafbe:	83 82       	mov55 $fp,$r2
  3dafc0:	bc d0       	swi37 $r4,[$fp+#0x140]
  3dafc2:	04 33 00 52 	lwi $r3,[$r6+#0x148]
  3dafc6:	46 70 05 e5 	sethi $r7,#0x5e5
  3dafca:	bb a0       	swi37 $r3,[$fp+#0x80]
  3dafcc:	04 33 00 55 	lwi $r3,[$r6+#0x154]
  3dafd0:	bb b0       	swi37 $r3,[$fp+#0xc0]
  3dafd2:	5a 08 04 f3 	bnec $r0,#0x4,3dafb8 <HAL_Init+0x178>
  3dafd6:	83 86       	mov55 $fp,$r6
  3dafd8:	b8 53       	lwi37 $r0,[$fp+#0x14c]
  3dafda:	14 03 80 24 	swi $r0,[$r7+#0x90]
  3dafde:	b8 54       	lwi37 $r0,[$fp+#0x150]
  3dafe0:	14 03 80 25 	swi $r0,[$r7+#0x94]
  3dafe4:	b8 56       	lwi37 $r0,[$fp+#0x158]
  3dafe6:	14 03 80 34 	swi $r0,[$r7+#0xd0]
  3dafea:	b8 57       	lwi37 $r0,[$fp+#0x15c]
  3dafec:	14 03 80 35 	swi $r0,[$r7+#0xd4]
  3daff0:	b8 59       	lwi37 $r0,[$fp+#0x164]
  3daff2:	14 03 80 54 	swi $r0,[$r7+#0x150]
  3daff6:	b8 63       	lwi37 $r0,[$fp+#0x18c]
  3daff8:	14 03 80 10 	swi $r0,[$r7+#0x40]
  3daffc:	00 03 00 e7 	lbi $r0,[$r6+#0xe7]
  3db000:	b9 3a       	lwi37 $r1,[$fp+#0xe8]
  3db002:	b6 1f       	swi450 $r0,[$sp]
  3db004:	00 23 00 f4 	lbi $r2,[$r6+#0xf4]
  3db008:	b8 3e       	lwi37 $r0,[$fp+#0xf8]
  3db00a:	00 33 00 e4 	lbi $r3,[$r6+#0xe4]
  3db00e:	00 43 00 e5 	lbi $r4,[$r6+#0xe5]
  3db012:	00 53 00 e6 	lbi $r5,[$r6+#0xe6]
  3db016:	49 ff fa 7d 	jal 3da510 <HAL_SystemInit>
  3db01a:	46 00 05 e0 	sethi $r0,#0x5e0
  3db01e:	44 10 01 11 	movi $r1,#0x111
  3db022:	83 80       	mov55 $fp,$r0
  3db024:	b9 a0       	swi37 $r1,[$fp+#0x80]
  3db026:	44 10 01 13 	movi $r1,#0x113
  3db02a:	b9 a1       	swi37 $r1,[$fp+#0x84]
  3db02c:	44 10 01 33 	movi $r1,#0x133
  3db030:	b9 a2       	swi37 $r1,[$fp+#0x88]
  3db032:	44 10 01 10 	movi $r1,#0x110
  3db036:	b9 a3       	swi37 $r1,[$fp+#0x8c]
  3db038:	04 03 80 60 	lwi $r0,[$r7+#0x180]
  3db03c:	58 00 00 01 	ori $r0,$r0,#0x1
  3db040:	14 03 80 60 	swi $r0,[$r7+#0x180]
  3db044:	04 03 80 60 	lwi $r0,[$r7+#0x180]
  3db048:	58 00 00 02 	ori $r0,$r0,#0x2
  3db04c:	14 03 80 60 	swi $r0,[$r7+#0x180]
  3db050:	04 03 80 60 	lwi $r0,[$r7+#0x180]
  3db054:	58 00 00 04 	ori $r0,$r0,#0x4
  3db058:	14 03 80 60 	swi $r0,[$r7+#0x180]
  3db05c:	04 03 80 60 	lwi $r0,[$r7+#0x180]
  3db060:	58 00 00 08 	ori $r0,$r0,#0x8
  3db064:	14 03 80 60 	swi $r0,[$r7+#0x180]
  3db068:	04 13 80 60 	lwi $r1,[$r7+#0x180]
  3db06c:	44 0f ff ef 	movi $r0,#-17
  3db070:	fe 0e       	and33 $r0,$r1
  3db072:	14 03 80 60 	swi $r0,[$r7+#0x180]
  3db076:	04 13 80 60 	lwi $r1,[$r7+#0x180]
  3db07a:	44 0f ff df 	movi $r0,#-33
  3db07e:	fe 0e       	and33 $r0,$r1
  3db080:	14 03 80 60 	swi $r0,[$r7+#0x180]
  3db084:	04 03 80 60 	lwi $r0,[$r7+#0x180]
  3db088:	58 00 00 80 	ori $r0,$r0,#0x80
  3db08c:	14 03 80 60 	swi $r0,[$r7+#0x180]
  3db090:	04 03 80 60 	lwi $r0,[$r7+#0x180]
  3db094:	58 00 01 00 	ori $r0,$r0,#0x100
  3db098:	14 03 80 60 	swi $r0,[$r7+#0x180]
  3db09c:	04 03 80 60 	lwi $r0,[$r7+#0x180]
  3db0a0:	58 00 02 00 	ori $r0,$r0,#0x200
  3db0a4:	14 03 80 60 	swi $r0,[$r7+#0x180]
  3db0a8:	04 03 80 60 	lwi $r0,[$r7+#0x180]
  3db0ac:	58 00 04 00 	ori $r0,$r0,#0x400
  3db0b0:	14 03 80 60 	swi $r0,[$r7+#0x180]
  3db0b4:	46 00 05 ec 	sethi $r0,#0x5ec
  3db0b8:	b4 20       	lwi450 $r1,[$r0]
  3db0ba:	58 10 80 40 	ori $r1,$r1,#0x40
  3db0be:	b6 20       	swi450 $r1,[$r0]
  3db0c0:	b4 20       	lwi450 $r1,[$r0]
  3db0c2:	58 10 80 80 	ori $r1,$r1,#0x80
  3db0c6:	b6 20       	swi450 $r1,[$r0]
  3db0c8:	04 10 04 00 	lwi $r1,[$r0+#0x1000]
  3db0cc:	58 10 80 40 	ori $r1,$r1,#0x40
  3db0d0:	14 10 04 00 	swi $r1,[$r0+#0x1000]
  3db0d4:	04 10 04 00 	lwi $r1,[$r0+#0x1000]
  3db0d8:	58 10 80 80 	ori $r1,$r1,#0x80
  3db0dc:	14 10 04 00 	swi $r1,[$r0+#0x1000]
  3db0e0:	04 10 08 00 	lwi $r1,[$r0+#0x2000]
  3db0e4:	58 10 80 40 	ori $r1,$r1,#0x40
  3db0e8:	14 10 08 00 	swi $r1,[$r0+#0x2000]
  3db0ec:	04 10 08 00 	lwi $r1,[$r0+#0x2000]
  3db0f0:	58 10 80 80 	ori $r1,$r1,#0x80
  3db0f4:	14 10 08 00 	swi $r1,[$r0+#0x2000]
  3db0f8:	04 10 0c 00 	lwi $r1,[$r0+#0x3000]
  3db0fc:	58 10 80 40 	ori $r1,$r1,#0x40
  3db100:	14 10 0c 00 	swi $r1,[$r0+#0x3000]
  3db104:	04 10 0c 00 	lwi $r1,[$r0+#0x3000]
  3db108:	58 10 80 80 	ori $r1,$r1,#0x80
  3db10c:	14 10 0c 00 	swi $r1,[$r0+#0x3000]
  3db110:	fc c1       	pop25 $r10,#8    ! {$r6~$r10, $fp, $gp, $lp}

003db112 <HAL_NFResetFlash>:
  3db112:	fc 01       	push25 $r6,#8    ! {$r6, $fp, $gp, $lp}
  3db114:	f2 81       	swi37.sp $r2,[+#0x4]
  3db116:	84 41       	movi55 $r2,#0x1
  3db118:	b6 1f       	swi450 $r0,[$sp]
  3db11a:	49 00 03 53 	jal 3db7c0 <HAL_MCU_SetCe>
  3db11e:	44 00 00 40 	movi $r0,#0x40
  3db122:	49 00 0b 16 	jal 3dc74e <Delay>
  3db126:	b4 1f       	lwi450 $r0,[$sp]
  3db128:	f1 01       	lwi37.sp $r1,[+#0x4]
  3db12a:	49 00 03 57 	jal 3db7d8 <HAL_MCU_SendCmd>
  3db12e:	46 00 01 86 	sethi $r0,#0x186
  3db132:	50 00 0a 00 	addi $r0,$r0,#0xa00
  3db136:	49 00 0b 0c 	jal 3dc74e <Delay>
  3db13a:	84 00       	movi55 $r0,#0x0
  3db13c:	fc 81       	pop25 $r6,#8    ! {$r6, $fp, $gp, $lp}

003db13e <HAL_NFReadFlashID>:
  3db13e:	fc 42       	push25 $r10,#16    ! {$r6~$r10, $fp, $gp, $lp}
  3db140:	81 20       	mov55 $r9,$r0
  3db142:	3e 0d 2a 8c 	addi.gp $r0,#-185716
  3db146:	80 e1       	mov55 $r7,$r1
  3db148:	38 10 06 02 	lw $r1,[$r0+($r1<<#0x2)]
  3db14c:	44 0f 0f ff 	movi $r0,#-61441
  3db150:	46 60 05 e0 	sethi $r6,#0x5e0
  3db154:	83 81       	mov55 $fp,$r1
  3db156:	bb 30       	lwi37 $r3,[$fp+#0xc0]
  3db158:	fe 1e       	and33 $r0,$r3
  3db15a:	58 00 40 00 	ori $r0,$r0,#0x4000
  3db15e:	b8 b0       	swi37 $r0,[$fp+#0xc0]
  3db160:	b4 61       	lwi450 $r3,[$r1]
  3db162:	44 0f ff cf 	movi $r0,#-49
  3db166:	fe 1e       	and33 $r0,$r3
  3db168:	b6 01       	swi450 $r0,[$r1]
  3db16a:	80 22       	mov55 $r1,$r2
  3db16c:	80 07       	mov55 $r0,$r7
  3db16e:	44 20 00 ff 	movi $r2,#0xff
  3db172:	49 ff ff d0 	jal 3db112 <HAL_NFResetFlash>
  3db176:	00 03 00 34 	lbi $r0,[$r6+#0x34]
  3db17a:	54 80 00 ff 	andi $r8,$r0,#0xff
  3db17e:	84 00       	movi55 $r0,#0x0
  3db180:	49 ff f9 bd 	jal 3da4fa <HAL_CPMGetClkSource>
  3db184:	f0 83       	swi37.sp $r0,[+#0xc]
  3db186:	00 03 00 14 	lbi $r0,[$r6+#0x14]
  3db18a:	54 a0 00 ff 	andi $r10,$r0,#0xff
  3db18e:	80 07       	mov55 $r0,$r7
  3db190:	49 ff f9 bb 	jal 3da506 <HAL_CPMGetTrx2Period>
  3db194:	e6 08       	slti45 $r0,#0x8
  3db196:	80 c0       	mov55 $r6,$r0
  3db198:	e8 0a       	beqzs8 3db1ac <HAL_NFReadFlashID+0x6e>
  3db19a:	b6 1f       	swi450 $r0,[$sp]
  3db19c:	80 2a       	mov55 $r1,$r10
  3db19e:	80 08       	mov55 $r0,$r8
  3db1a0:	f2 03       	lwi37.sp $r2,[+#0xc]
  3db1a2:	80 66       	mov55 $r3,$r6
  3db1a4:	80 86       	mov55 $r4,$r6
  3db1a6:	80 a6       	mov55 $r5,$r6
  3db1a8:	49 ff f9 b4 	jal 3da510 <HAL_SystemInit>
  3db1ac:	44 10 00 90 	movi $r1,#0x90
  3db1b0:	80 07       	mov55 $r0,$r7
  3db1b2:	49 00 03 13 	jal 3db7d8 <HAL_MCU_SendCmd>
  3db1b6:	fa 00       	movpi45 $r0,#0x10
  3db1b8:	49 00 0a cb 	jal 3dc74e <Delay>
  3db1bc:	80 07       	mov55 $r0,$r7
  3db1be:	84 20       	movi55 $r1,#0x0
  3db1c0:	49 00 03 1c 	jal 3db7f8 <HAL_MCU_SendOneAddr>
  3db1c4:	44 00 01 00 	movi $r0,#0x100
  3db1c8:	49 00 0a c3 	jal 3dc74e <Delay>
  3db1cc:	51 c4 80 08 	addi $fp,$r9,#0x8
  3db1d0:	80 07       	mov55 $r0,$r7
  3db1d2:	49 ff fe 24 	jal 3dae1a <HAL_McuSendReadPluse>
  3db1d6:	18 04 80 01 	sbi.bi $r0,[$r9],#0x1
  3db1da:	4c 9e 7f fb 	bne $r9,$fp,3db1d0 <HAL_NFReadFlashID+0x92>
  3db1de:	e6 c8       	slti45 $r6,#0x8
  3db1e0:	e8 0a       	beqzs8 3db1f4 <HAL_NFReadFlashID+0xb6>
  3db1e2:	b6 df       	swi450 $r6,[$sp]
  3db1e4:	80 08       	mov55 $r0,$r8
  3db1e6:	80 2a       	mov55 $r1,$r10
  3db1e8:	80 48       	mov55 $r2,$r8
  3db1ea:	80 66       	mov55 $r3,$r6
  3db1ec:	80 86       	mov55 $r4,$r6
  3db1ee:	80 a6       	mov55 $r5,$r6
  3db1f0:	49 ff f9 90 	jal 3da510 <HAL_SystemInit>
  3db1f4:	80 07       	mov55 $r0,$r7
  3db1f6:	49 ff e7 cf 	jal 3d8194 <Fdl_ClearExceptionState>
  3db1fa:	fc c2       	pop25 $r10,#16    ! {$r6~$r10, $fp, $gp, $lp}

003db1fc <HAL_NFSetExtFeature>:
  3db1fc:	fc 02       	push25 $r6,#16    ! {$r6, $fp, $gp, $lp}
  3db1fe:	f2 82       	swi37.sp $r2,[+#0x8]
  3db200:	84 41       	movi55 $r2,#0x1
  3db202:	80 c5       	mov55 $r6,$r5
  3db204:	f3 83       	swi37.sp $r3,[+#0xc]
  3db206:	f0 81       	swi37.sp $r0,[+#0x4]
  3db208:	49 00 02 dc 	jal 3db7c0 <HAL_MCU_SetCe>
  3db20c:	f0 01       	lwi37.sp $r0,[+#0x4]
  3db20e:	44 10 00 dd 	movi $r1,#0xdd
  3db212:	49 00 02 e3 	jal 3db7d8 <HAL_MCU_SendCmd>
  3db216:	f0 01       	lwi37.sp $r0,[+#0x4]
  3db218:	f1 02       	lwi37.sp $r1,[+#0x8]
  3db21a:	49 00 02 ef 	jal 3db7f8 <HAL_MCU_SendOneAddr>
  3db21e:	f0 01       	lwi37.sp $r0,[+#0x4]
  3db220:	f1 03       	lwi37.sp $r1,[+#0xc]
  3db222:	49 00 02 eb 	jal 3db7f8 <HAL_MCU_SendOneAddr>
  3db226:	f0 01       	lwi37.sp $r0,[+#0x4]
  3db228:	a6 70       	lbi333 $r1,[$r6+#0x0]
  3db22a:	49 ff fd eb 	jal 3dae00 <HAL_McuSendWRPulse>
  3db22e:	f0 01       	lwi37.sp $r0,[+#0x4]
  3db230:	84 20       	movi55 $r1,#0x0
  3db232:	49 ff fd e7 	jal 3dae00 <HAL_McuSendWRPulse>
  3db236:	f0 01       	lwi37.sp $r0,[+#0x4]
  3db238:	84 20       	movi55 $r1,#0x0
  3db23a:	49 ff fd e3 	jal 3dae00 <HAL_McuSendWRPulse>
  3db23e:	fa 0e       	movpi45 $r0,#0x1e
  3db240:	49 00 0a 87 	jal 3dc74e <Delay>
  3db244:	fc 82       	pop25 $r6,#16    ! {$r6, $fp, $gp, $lp}

003db246 <HAL_MCUSendNByteDataByDqs>:
  3db246:	fc 00       	push25 $r6,#0    ! {$r6, $fp, $gp, $lp}
  3db248:	84 63       	movi55 $r3,#0x3
  3db24a:	fe c4       	mul33 $r3,$r0
  3db24c:	46 50 05 e5 	sethi $r5,#0x5e5
  3db250:	94 da       	slli333 $r3,$r3,#0x2
  3db252:	88 65       	add45 $r3,$r5
  3db254:	44 4f ff bf 	movi $r4,#-65
  3db258:	00 61 82 08 	lbi $r6,[$r3+#0x208]
  3db25c:	50 00 00 50 	addi $r0,$r0,#0x50
  3db260:	ff a6       	and33 $r6,$r4
  3db262:	10 61 82 08 	sbi $r6,[$r3+#0x208]
  3db266:	00 61 81 c8 	lbi $r6,[$r3+#0x1c8]
  3db26a:	ff a6       	and33 $r6,$r4
  3db26c:	10 61 81 c8 	sbi $r6,[$r3+#0x1c8]
  3db270:	38 62 82 02 	lw $r6,[$r5+($r0<<#0x2)]
  3db274:	58 63 01 00 	ori $r6,$r6,#0x100
  3db278:	38 62 82 0a 	sw $r6,[$r5+($r0<<#0x2)]
  3db27c:	84 c0       	movi55 $r6,#0x0
  3db27e:	10 61 81 c0 	sbi $r6,[$r3+#0x1c0]
  3db282:	38 62 82 02 	lw $r6,[$r5+($r0<<#0x2)]
  3db286:	58 63 00 01 	ori $r6,$r6,#0x1
  3db28a:	38 62 82 0a 	sw $r6,[$r5+($r0<<#0x2)]
  3db28e:	64 00 00 08 	dsb
  3db292:	80 c1       	mov55 $r6,$r1
  3db294:	9b 71       	sub333 $r5,$r6,$r1
  3db296:	97 68       	zeb33 $r5,$r5
  3db298:	e2 a2       	slt45 $r5,$r2
  3db29a:	e8 17       	beqzs8 3db2c8 <HAL_MCUSendNByteDataByDqs+0x82>
  3db29c:	08 53 00 01 	lbi.bi $r5,[$r6],#0x1
  3db2a0:	10 51 82 00 	sbi $r5,[$r3+#0x200]
  3db2a4:	64 00 00 08 	dsb
  3db2a8:	00 51 82 08 	lbi $r5,[$r3+#0x208]
  3db2ac:	58 52 80 40 	ori $r5,$r5,#0x40
  3db2b0:	10 51 82 08 	sbi $r5,[$r3+#0x208]
  3db2b4:	64 00 00 08 	dsb
  3db2b8:	00 51 82 08 	lbi $r5,[$r3+#0x208]
  3db2bc:	ff 66       	and33 $r5,$r4
  3db2be:	10 51 82 08 	sbi $r5,[$r3+#0x208]
  3db2c2:	64 00 00 08 	dsb
  3db2c6:	d5 e7       	j8 3db294 <HAL_MCUSendNByteDataByDqs+0x4e>
  3db2c8:	00 11 82 08 	lbi $r1,[$r3+#0x208]
  3db2cc:	58 10 80 40 	ori $r1,$r1,#0x40
  3db2d0:	10 11 82 08 	sbi $r1,[$r3+#0x208]
  3db2d4:	00 11 81 c8 	lbi $r1,[$r3+#0x1c8]
  3db2d8:	54 10 80 bf 	andi $r1,$r1,#0xbf
  3db2dc:	10 11 81 c8 	sbi $r1,[$r3+#0x1c8]
  3db2e0:	46 10 05 e5 	sethi $r1,#0x5e5
  3db2e4:	38 20 82 02 	lw $r2,[$r1+($r0<<#0x2)]
  3db2e8:	58 21 01 00 	ori $r2,$r2,#0x100
  3db2ec:	38 20 82 0a 	sw $r2,[$r1+($r0<<#0x2)]
  3db2f0:	38 30 82 02 	lw $r3,[$r1+($r0<<#0x2)]
  3db2f4:	44 2f fe ff 	movi $r2,#-257
  3db2f8:	fe 9e       	and33 $r2,$r3
  3db2fa:	38 20 82 0a 	sw $r2,[$r1+($r0<<#0x2)]
  3db2fe:	38 30 82 02 	lw $r3,[$r1+($r0<<#0x2)]
  3db302:	84 5e       	movi55 $r2,#-2
  3db304:	fe 9e       	and33 $r2,$r3
  3db306:	38 20 82 0a 	sw $r2,[$r1+($r0<<#0x2)]
  3db30a:	64 00 00 08 	dsb
  3db30e:	fc 80       	pop25 $r6,#0    ! {$r6, $fp, $gp, $lp}

003db310 <HAL_McuSetFeature>:
  3db310:	fc 42       	push25 $r10,#16    ! {$r6~$r10, $fp, $gp, $lp}
  3db312:	81 23       	mov55 $r9,$r3
  3db314:	f2 83       	swi37.sp $r2,[+#0xc]
  3db316:	80 e4       	mov55 $r7,$r4
  3db318:	80 c5       	mov55 $r6,$r5
  3db31a:	f1 82       	swi37.sp $r1,[+#0x8]
  3db31c:	f0 81       	swi37.sp $r0,[+#0x4]
  3db31e:	49 00 02 9c 	jal 3db856 <HAL_MCUCheckStatus>
  3db322:	f0 01       	lwi37.sp $r0,[+#0x4]
  3db324:	44 10 00 ef 	movi $r1,#0xef
  3db328:	49 00 02 58 	jal 3db7d8 <HAL_MCU_SendCmd>
  3db32c:	f0 01       	lwi37.sp $r0,[+#0x4]
  3db32e:	f1 03       	lwi37.sp $r1,[+#0xc]
  3db330:	49 00 02 64 	jal 3db7f8 <HAL_MCU_SendOneAddr>
  3db334:	84 04       	movi55 $r0,#0x4
  3db336:	49 00 0a 0c 	jal 3dc74e <Delay>
  3db33a:	5a 90 01 04 	beqc $r9,#0x1,3db342 <HAL_McuSetFeature+0x32>
  3db33e:	88 e6       	add45 $r7,$r6
  3db340:	d5 07       	j8 3db34e <HAL_McuSetFeature+0x3e>
  3db342:	f0 01       	lwi37.sp $r0,[+#0x4]
  3db344:	80 26       	mov55 $r1,$r6
  3db346:	80 47       	mov55 $r2,$r7
  3db348:	49 ff ff 7f 	jal 3db246 <HAL_MCUSendNByteDataByDqs>
  3db34c:	d5 09       	j8 3db35e <HAL_McuSetFeature+0x4e>
  3db34e:	4c 63 80 08 	beq $r6,$r7,3db35e <HAL_McuSetFeature+0x4e>
  3db352:	f0 01       	lwi37.sp $r0,[+#0x4]
  3db354:	08 13 00 01 	lbi.bi $r1,[$r6],#0x1
  3db358:	49 ff fd 54 	jal 3dae00 <HAL_McuSendWRPulse>
  3db35c:	d5 f9       	j8 3db34e <HAL_McuSetFeature+0x3e>
  3db35e:	f0 01       	lwi37.sp $r0,[+#0x4]
  3db360:	f1 02       	lwi37.sp $r1,[+#0x8]
  3db362:	49 00 02 7a 	jal 3db856 <HAL_MCUCheckStatus>
  3db366:	84 00       	movi55 $r0,#0x0
  3db368:	fc c2       	pop25 $r10,#16    ! {$r6~$r10, $fp, $gp, $lp}

003db36a <HAL_NFSetFeature>:
  3db36a:	fc 01       	push25 $r6,#8    ! {$r6, $fp, $gp, $lp}
  3db36c:	f3 81       	swi37.sp $r3,[+#0x4]
  3db36e:	f5 01       	lwi37.sp $r5,[+#0x4]
  3db370:	80 64       	mov55 $r3,$r4
  3db372:	84 84       	movi55 $r4,#0x4
  3db374:	49 ff ff ce 	jal 3db310 <HAL_McuSetFeature>
  3db378:	fc 81       	pop25 $r6,#8    ! {$r6, $fp, $gp, $lp}

003db37a <HAL_McuSendReadPluseGetData>:
  3db37a:	fc 00       	push25 $r6,#0    ! {$r6, $fp, $gp, $lp}
  3db37c:	84 63       	movi55 $r3,#0x3
  3db37e:	fe c4       	mul33 $r3,$r0
  3db380:	46 50 05 e5 	sethi $r5,#0x5e5
  3db384:	94 da       	slli333 $r3,$r3,#0x2
  3db386:	88 65       	add45 $r3,$r5
  3db388:	84 9b       	movi55 $r4,#-5
  3db38a:	00 61 82 08 	lbi $r6,[$r3+#0x208]
  3db38e:	50 00 00 50 	addi $r0,$r0,#0x50
  3db392:	ff a6       	and33 $r6,$r4
  3db394:	10 61 82 08 	sbi $r6,[$r3+#0x208]
  3db398:	00 61 81 c8 	lbi $r6,[$r3+#0x1c8]
  3db39c:	ff a6       	and33 $r6,$r4
  3db39e:	10 61 81 c8 	sbi $r6,[$r3+#0x1c8]
  3db3a2:	38 62 82 02 	lw $r6,[$r5+($r0<<#0x2)]
  3db3a6:	58 63 02 00 	ori $r6,$r6,#0x200
  3db3aa:	38 62 82 0a 	sw $r6,[$r5+($r0<<#0x2)]
  3db3ae:	64 00 00 08 	dsb
  3db3b2:	00 51 82 08 	lbi $r5,[$r3+#0x208]
  3db3b6:	80 c1       	mov55 $r6,$r1
  3db3b8:	ff 66       	and33 $r5,$r4
  3db3ba:	10 51 82 08 	sbi $r5,[$r3+#0x208]
  3db3be:	00 51 82 00 	lbi $r5,[$r3+#0x200]
  3db3c2:	af 48       	sbi333 $r5,[$r1+#0x0]
  3db3c4:	00 51 82 08 	lbi $r5,[$r3+#0x208]
  3db3c8:	58 52 80 04 	ori $r5,$r5,#0x4
  3db3cc:	10 51 82 08 	sbi $r5,[$r3+#0x208]
  3db3d0:	9b 71       	sub333 $r5,$r6,$r1
  3db3d2:	97 68       	zeb33 $r5,$r5
  3db3d4:	e2 a2       	slt45 $r5,$r2
  3db3d6:	e8 11       	beqzs8 3db3f8 <HAL_McuSendReadPluseGetData+0x7e>
  3db3d8:	00 51 82 08 	lbi $r5,[$r3+#0x208]
  3db3dc:	ff 66       	and33 $r5,$r4
  3db3de:	10 51 82 08 	sbi $r5,[$r3+#0x208]
  3db3e2:	00 51 82 00 	lbi $r5,[$r3+#0x200]
  3db3e6:	18 53 00 01 	sbi.bi $r5,[$r6],#0x1
  3db3ea:	00 51 82 08 	lbi $r5,[$r3+#0x208]
  3db3ee:	58 52 80 04 	ori $r5,$r5,#0x4
  3db3f2:	10 51 82 08 	sbi $r5,[$r3+#0x208]
  3db3f6:	d5 ed       	j8 3db3d0 <HAL_McuSendReadPluseGetData+0x56>
  3db3f8:	46 20 05 e5 	sethi $r2,#0x5e5
  3db3fc:	44 1f fd ff 	movi $r1,#-513
  3db400:	38 31 02 02 	lw $r3,[$r2+($r0<<#0x2)]
  3db404:	fe 5e       	and33 $r1,$r3
  3db406:	38 11 02 0a 	sw $r1,[$r2+($r0<<#0x2)]
  3db40a:	fc 80       	pop25 $r6,#0    ! {$r6, $fp, $gp, $lp}

003db40c <HAL_McuGetFeature>:
  3db40c:	fc 02       	push25 $r6,#16    ! {$r6, $fp, $gp, $lp}
  3db40e:	f2 82       	swi37.sp $r2,[+#0x8]
  3db410:	f3 83       	swi37.sp $r3,[+#0xc]
  3db412:	f1 81       	swi37.sp $r1,[+#0x4]
  3db414:	b6 1f       	swi450 $r0,[$sp]
  3db416:	49 00 02 20 	jal 3db856 <HAL_MCUCheckStatus>
  3db41a:	b4 1f       	lwi450 $r0,[$sp]
  3db41c:	44 10 00 ee 	movi $r1,#0xee
  3db420:	49 00 01 dc 	jal 3db7d8 <HAL_MCU_SendCmd>
  3db424:	b4 1f       	lwi450 $r0,[$sp]
  3db426:	f1 02       	lwi37.sp $r1,[+#0x8]
  3db428:	49 00 01 e8 	jal 3db7f8 <HAL_MCU_SendOneAddr>
  3db42c:	f1 01       	lwi37.sp $r1,[+#0x4]
  3db42e:	b4 1f       	lwi450 $r0,[$sp]
  3db430:	49 00 02 13 	jal 3db856 <HAL_MCUCheckStatus>
  3db434:	b4 1f       	lwi450 $r0,[$sp]
  3db436:	f1 03       	lwi37.sp $r1,[+#0xc]
  3db438:	84 44       	movi55 $r2,#0x4
  3db43a:	49 ff ff a0 	jal 3db37a <HAL_McuSendReadPluseGetData>
  3db43e:	84 00       	movi55 $r0,#0x0
  3db440:	fc 82       	pop25 $r6,#16    ! {$r6, $fp, $gp, $lp}

003db442 <HAL_NFGetFeature>:
  3db442:	fc 00       	push25 $r6,#0    ! {$r6, $fp, $gp, $lp}
  3db444:	49 ff ff e4 	jal 3db40c <HAL_McuGetFeature>
  3db448:	fc 80       	pop25 $r6,#0    ! {$r6, $fp, $gp, $lp}

003db44a <HAL_NFGetExtFeature>:
  3db44a:	fc 02       	push25 $r6,#16    ! {$r6, $fp, $gp, $lp}
  3db44c:	f2 81       	swi37.sp $r2,[+#0x4]
  3db44e:	84 41       	movi55 $r2,#0x1
  3db450:	f3 82       	swi37.sp $r3,[+#0x8]
  3db452:	f5 83       	swi37.sp $r5,[+#0xc]
  3db454:	b6 1f       	swi450 $r0,[$sp]
  3db456:	49 00 01 b5 	jal 3db7c0 <HAL_MCU_SetCe>
  3db45a:	b4 1f       	lwi450 $r0,[$sp]
  3db45c:	44 10 00 dd 	movi $r1,#0xdd
  3db460:	49 00 01 bc 	jal 3db7d8 <HAL_MCU_SendCmd>
  3db464:	b4 1f       	lwi450 $r0,[$sp]
  3db466:	f1 01       	lwi37.sp $r1,[+#0x4]
  3db468:	49 00 01 c8 	jal 3db7f8 <HAL_MCU_SendOneAddr>
  3db46c:	f1 02       	lwi37.sp $r1,[+#0x8]
  3db46e:	b4 1f       	lwi450 $r0,[$sp]
  3db470:	49 00 01 c4 	jal 3db7f8 <HAL_MCU_SendOneAddr>
  3db474:	84 0a       	movi55 $r0,#0xa
  3db476:	49 00 09 6c 	jal 3dc74e <Delay>
  3db47a:	b4 1f       	lwi450 $r0,[$sp]
  3db47c:	f1 03       	lwi37.sp $r1,[+#0xc]
  3db47e:	84 44       	movi55 $r2,#0x4
  3db480:	49 ff ff 7d 	jal 3db37a <HAL_McuSendReadPluseGetData>
  3db484:	fc 82       	pop25 $r6,#16    ! {$r6, $fp, $gp, $lp}

003db486 <HAL_MCUSendDataByDqs_GAI>:
  3db486:	fc 00       	push25 $r6,#0    ! {$r6, $fp, $gp, $lp}
  3db488:	54 31 00 f0 	andi $r3,$r2,#0xf0
  3db48c:	5a 38 10 29 	bnec $r3,#0x10,3db4de <HAL_MCUSendDataByDqs_GAI+0x58>
  3db490:	84 63       	movi55 $r3,#0x3
  3db492:	fe c4       	mul33 $r3,$r0
  3db494:	46 40 05 e5 	sethi $r4,#0x5e5
  3db498:	94 da       	slli333 $r3,$r3,#0x2
  3db49a:	88 64       	add45 $r3,$r4
  3db49c:	44 5f ff bf 	movi $r5,#-65
  3db4a0:	00 61 82 08 	lbi $r6,[$r3+#0x208]
  3db4a4:	ff ae       	and33 $r6,$r5
  3db4a6:	10 61 82 08 	sbi $r6,[$r3+#0x208]
  3db4aa:	00 61 81 c8 	lbi $r6,[$r3+#0x1c8]
  3db4ae:	ff 76       	and33 $r5,$r6
  3db4b0:	10 51 81 c8 	sbi $r5,[$r3+#0x1c8]
  3db4b4:	50 50 00 50 	addi $r5,$r0,#0x50
  3db4b8:	38 62 16 02 	lw $r6,[$r4+($r5<<#0x2)]
  3db4bc:	58 63 01 00 	ori $r6,$r6,#0x100
  3db4c0:	38 62 16 0a 	sw $r6,[$r4+($r5<<#0x2)]
  3db4c4:	84 c0       	movi55 $r6,#0x0
  3db4c6:	10 61 81 c0 	sbi $r6,[$r3+#0x1c0]
  3db4ca:	38 32 16 02 	lw $r3,[$r4+($r5<<#0x2)]
  3db4ce:	58 31 80 01 	ori $r3,$r3,#0x1
  3db4d2:	38 32 16 0a 	sw $r3,[$r4+($r5<<#0x2)]
  3db4d6:	64 00 00 08 	dsb
  3db4da:	64 00 00 08 	dsb
  3db4de:	84 63       	movi55 $r3,#0x3
  3db4e0:	fe c4       	mul33 $r3,$r0
  3db4e2:	46 40 05 e5 	sethi $r4,#0x5e5
  3db4e6:	94 da       	slli333 $r3,$r3,#0x2
  3db4e8:	88 64       	add45 $r3,$r4
  3db4ea:	10 11 82 00 	sbi $r1,[$r3+#0x200]
  3db4ee:	64 00 00 08 	dsb
  3db4f2:	00 11 82 08 	lbi $r1,[$r3+#0x208]
  3db4f6:	96 76       	bmski33 $r1,#0x6
  3db4f8:	c1 06       	beqz38 $r1,3db504 <HAL_MCUSendDataByDqs_GAI+0x7e>
  3db4fa:	00 11 82 08 	lbi $r1,[$r3+#0x208]
  3db4fe:	54 10 80 bf 	andi $r1,$r1,#0xbf
  3db502:	d5 05       	j8 3db50c <HAL_MCUSendDataByDqs_GAI+0x86>
